ARM GAS  /tmp/cc1jQKzY.s 			page 1


   1              		.syntax unified
   2              		.cpu cortex-m4
   3              		.eabi_attribute 27, 1
   4              		.eabi_attribute 28, 1
   5              		.fpu fpv4-sp-d16
   6              		.eabi_attribute 20, 1
   7              		.eabi_attribute 21, 1
   8              		.eabi_attribute 23, 3
   9              		.eabi_attribute 24, 1
  10              		.eabi_attribute 25, 1
  11              		.eabi_attribute 26, 1
  12              		.eabi_attribute 30, 1
  13              		.eabi_attribute 34, 1
  14              		.eabi_attribute 18, 4
  15              		.thumb
  16              		.syntax unified
  17              		.file	"rtx_mutex.c"
  18              		.text
  19              	.Ltext0:
  20              		.cfi_sections	.debug_frame
  21              		.section	.text.svcRtxMutexNew,"ax",%progbits
  22              		.align	2
  23              		.thumb
  24              		.thumb_func
  26              	svcRtxMutexNew:
  27              	.LFB175:
  28              		.file 1 "/usr/local/lib/ARM/CMSIS/5.4.0/CMSIS/RTOS2/RTX/Source/rtx_mutex.c"
   1:/usr/local/lib/ARM/CMSIS/5.4.0/CMSIS/RTOS2/RTX/Source/rtx_mutex.c **** /*
   2:/usr/local/lib/ARM/CMSIS/5.4.0/CMSIS/RTOS2/RTX/Source/rtx_mutex.c ****  * Copyright (c) 2013-2018 Arm Limited. All rights reserved.
   3:/usr/local/lib/ARM/CMSIS/5.4.0/CMSIS/RTOS2/RTX/Source/rtx_mutex.c ****  *
   4:/usr/local/lib/ARM/CMSIS/5.4.0/CMSIS/RTOS2/RTX/Source/rtx_mutex.c ****  * SPDX-License-Identifier: Apache-2.0
   5:/usr/local/lib/ARM/CMSIS/5.4.0/CMSIS/RTOS2/RTX/Source/rtx_mutex.c ****  *
   6:/usr/local/lib/ARM/CMSIS/5.4.0/CMSIS/RTOS2/RTX/Source/rtx_mutex.c ****  * Licensed under the Apache License, Version 2.0 (the License); you may
   7:/usr/local/lib/ARM/CMSIS/5.4.0/CMSIS/RTOS2/RTX/Source/rtx_mutex.c ****  * not use this file except in compliance with the License.
   8:/usr/local/lib/ARM/CMSIS/5.4.0/CMSIS/RTOS2/RTX/Source/rtx_mutex.c ****  * You may obtain a copy of the License at
   9:/usr/local/lib/ARM/CMSIS/5.4.0/CMSIS/RTOS2/RTX/Source/rtx_mutex.c ****  *
  10:/usr/local/lib/ARM/CMSIS/5.4.0/CMSIS/RTOS2/RTX/Source/rtx_mutex.c ****  * www.apache.org/licenses/LICENSE-2.0
  11:/usr/local/lib/ARM/CMSIS/5.4.0/CMSIS/RTOS2/RTX/Source/rtx_mutex.c ****  *
  12:/usr/local/lib/ARM/CMSIS/5.4.0/CMSIS/RTOS2/RTX/Source/rtx_mutex.c ****  * Unless required by applicable law or agreed to in writing, software
  13:/usr/local/lib/ARM/CMSIS/5.4.0/CMSIS/RTOS2/RTX/Source/rtx_mutex.c ****  * distributed under the License is distributed on an AS IS BASIS, WITHOUT
  14:/usr/local/lib/ARM/CMSIS/5.4.0/CMSIS/RTOS2/RTX/Source/rtx_mutex.c ****  * WARRANTIES OR CONDITIONS OF ANY KIND, either express or implied.
  15:/usr/local/lib/ARM/CMSIS/5.4.0/CMSIS/RTOS2/RTX/Source/rtx_mutex.c ****  * See the License for the specific language governing permissions and
  16:/usr/local/lib/ARM/CMSIS/5.4.0/CMSIS/RTOS2/RTX/Source/rtx_mutex.c ****  * limitations under the License.
  17:/usr/local/lib/ARM/CMSIS/5.4.0/CMSIS/RTOS2/RTX/Source/rtx_mutex.c ****  *
  18:/usr/local/lib/ARM/CMSIS/5.4.0/CMSIS/RTOS2/RTX/Source/rtx_mutex.c ****  * -----------------------------------------------------------------------------
  19:/usr/local/lib/ARM/CMSIS/5.4.0/CMSIS/RTOS2/RTX/Source/rtx_mutex.c ****  *
  20:/usr/local/lib/ARM/CMSIS/5.4.0/CMSIS/RTOS2/RTX/Source/rtx_mutex.c ****  * Project:     CMSIS-RTOS RTX
  21:/usr/local/lib/ARM/CMSIS/5.4.0/CMSIS/RTOS2/RTX/Source/rtx_mutex.c ****  * Title:       Mutex functions
  22:/usr/local/lib/ARM/CMSIS/5.4.0/CMSIS/RTOS2/RTX/Source/rtx_mutex.c ****  *
  23:/usr/local/lib/ARM/CMSIS/5.4.0/CMSIS/RTOS2/RTX/Source/rtx_mutex.c ****  * -----------------------------------------------------------------------------
  24:/usr/local/lib/ARM/CMSIS/5.4.0/CMSIS/RTOS2/RTX/Source/rtx_mutex.c ****  */
  25:/usr/local/lib/ARM/CMSIS/5.4.0/CMSIS/RTOS2/RTX/Source/rtx_mutex.c **** 
  26:/usr/local/lib/ARM/CMSIS/5.4.0/CMSIS/RTOS2/RTX/Source/rtx_mutex.c **** #include "rtx_lib.h"
  27:/usr/local/lib/ARM/CMSIS/5.4.0/CMSIS/RTOS2/RTX/Source/rtx_mutex.c **** 
  28:/usr/local/lib/ARM/CMSIS/5.4.0/CMSIS/RTOS2/RTX/Source/rtx_mutex.c **** 
  29:/usr/local/lib/ARM/CMSIS/5.4.0/CMSIS/RTOS2/RTX/Source/rtx_mutex.c **** //  OS Runtime Object Memory Usage
  30:/usr/local/lib/ARM/CMSIS/5.4.0/CMSIS/RTOS2/RTX/Source/rtx_mutex.c **** #if ((defined(OS_OBJ_MEM_USAGE) && (OS_OBJ_MEM_USAGE != 0)))
ARM GAS  /tmp/cc1jQKzY.s 			page 2


  31:/usr/local/lib/ARM/CMSIS/5.4.0/CMSIS/RTOS2/RTX/Source/rtx_mutex.c **** osRtxObjectMemUsage_t osRtxMutexMemUsage \
  32:/usr/local/lib/ARM/CMSIS/5.4.0/CMSIS/RTOS2/RTX/Source/rtx_mutex.c **** __attribute__((section(".data.os.mutex.obj"))) =
  33:/usr/local/lib/ARM/CMSIS/5.4.0/CMSIS/RTOS2/RTX/Source/rtx_mutex.c **** { 0U, 0U, 0U };
  34:/usr/local/lib/ARM/CMSIS/5.4.0/CMSIS/RTOS2/RTX/Source/rtx_mutex.c **** #endif
  35:/usr/local/lib/ARM/CMSIS/5.4.0/CMSIS/RTOS2/RTX/Source/rtx_mutex.c **** 
  36:/usr/local/lib/ARM/CMSIS/5.4.0/CMSIS/RTOS2/RTX/Source/rtx_mutex.c **** 
  37:/usr/local/lib/ARM/CMSIS/5.4.0/CMSIS/RTOS2/RTX/Source/rtx_mutex.c **** //  ==== Library functions ====
  38:/usr/local/lib/ARM/CMSIS/5.4.0/CMSIS/RTOS2/RTX/Source/rtx_mutex.c **** 
  39:/usr/local/lib/ARM/CMSIS/5.4.0/CMSIS/RTOS2/RTX/Source/rtx_mutex.c **** /// Release Mutex list when owner Thread terminates.
  40:/usr/local/lib/ARM/CMSIS/5.4.0/CMSIS/RTOS2/RTX/Source/rtx_mutex.c **** /// \param[in]  mutex           mutex object.
  41:/usr/local/lib/ARM/CMSIS/5.4.0/CMSIS/RTOS2/RTX/Source/rtx_mutex.c **** /// \return 1 - success, 0 - failure.
  42:/usr/local/lib/ARM/CMSIS/5.4.0/CMSIS/RTOS2/RTX/Source/rtx_mutex.c **** void osRtxMutexOwnerRelease (os_mutex_t *mutex_list) {
  43:/usr/local/lib/ARM/CMSIS/5.4.0/CMSIS/RTOS2/RTX/Source/rtx_mutex.c ****   os_mutex_t  *mutex;
  44:/usr/local/lib/ARM/CMSIS/5.4.0/CMSIS/RTOS2/RTX/Source/rtx_mutex.c ****   os_mutex_t  *mutex_next;
  45:/usr/local/lib/ARM/CMSIS/5.4.0/CMSIS/RTOS2/RTX/Source/rtx_mutex.c ****   os_thread_t *thread;
  46:/usr/local/lib/ARM/CMSIS/5.4.0/CMSIS/RTOS2/RTX/Source/rtx_mutex.c **** 
  47:/usr/local/lib/ARM/CMSIS/5.4.0/CMSIS/RTOS2/RTX/Source/rtx_mutex.c ****   mutex = mutex_list;
  48:/usr/local/lib/ARM/CMSIS/5.4.0/CMSIS/RTOS2/RTX/Source/rtx_mutex.c ****   while (mutex != NULL) {
  49:/usr/local/lib/ARM/CMSIS/5.4.0/CMSIS/RTOS2/RTX/Source/rtx_mutex.c ****     mutex_next = mutex->owner_next;
  50:/usr/local/lib/ARM/CMSIS/5.4.0/CMSIS/RTOS2/RTX/Source/rtx_mutex.c ****     // Check if Mutex is Robust
  51:/usr/local/lib/ARM/CMSIS/5.4.0/CMSIS/RTOS2/RTX/Source/rtx_mutex.c ****     if ((mutex->attr & osMutexRobust) != 0U) {
  52:/usr/local/lib/ARM/CMSIS/5.4.0/CMSIS/RTOS2/RTX/Source/rtx_mutex.c ****       // Clear Lock counter
  53:/usr/local/lib/ARM/CMSIS/5.4.0/CMSIS/RTOS2/RTX/Source/rtx_mutex.c ****       mutex->lock = 0U;
  54:/usr/local/lib/ARM/CMSIS/5.4.0/CMSIS/RTOS2/RTX/Source/rtx_mutex.c ****       EvrRtxMutexReleased(mutex, 0U);
  55:/usr/local/lib/ARM/CMSIS/5.4.0/CMSIS/RTOS2/RTX/Source/rtx_mutex.c ****       // Check if Thread is waiting for a Mutex
  56:/usr/local/lib/ARM/CMSIS/5.4.0/CMSIS/RTOS2/RTX/Source/rtx_mutex.c ****       if (mutex->thread_list != NULL) {
  57:/usr/local/lib/ARM/CMSIS/5.4.0/CMSIS/RTOS2/RTX/Source/rtx_mutex.c ****         // Wakeup waiting Thread with highest Priority
  58:/usr/local/lib/ARM/CMSIS/5.4.0/CMSIS/RTOS2/RTX/Source/rtx_mutex.c ****         thread = osRtxThreadListGet(osRtxObject(mutex));
  59:/usr/local/lib/ARM/CMSIS/5.4.0/CMSIS/RTOS2/RTX/Source/rtx_mutex.c ****         osRtxThreadWaitExit(thread, (uint32_t)osOK, FALSE);
  60:/usr/local/lib/ARM/CMSIS/5.4.0/CMSIS/RTOS2/RTX/Source/rtx_mutex.c ****         // Thread is the new Mutex owner
  61:/usr/local/lib/ARM/CMSIS/5.4.0/CMSIS/RTOS2/RTX/Source/rtx_mutex.c ****         mutex->owner_thread = thread;
  62:/usr/local/lib/ARM/CMSIS/5.4.0/CMSIS/RTOS2/RTX/Source/rtx_mutex.c ****         mutex->owner_next   = thread->mutex_list;
  63:/usr/local/lib/ARM/CMSIS/5.4.0/CMSIS/RTOS2/RTX/Source/rtx_mutex.c ****         mutex->owner_prev   = NULL;
  64:/usr/local/lib/ARM/CMSIS/5.4.0/CMSIS/RTOS2/RTX/Source/rtx_mutex.c ****         thread->mutex_list  = mutex;
  65:/usr/local/lib/ARM/CMSIS/5.4.0/CMSIS/RTOS2/RTX/Source/rtx_mutex.c ****         mutex->lock = 1U;
  66:/usr/local/lib/ARM/CMSIS/5.4.0/CMSIS/RTOS2/RTX/Source/rtx_mutex.c ****         EvrRtxMutexAcquired(mutex, 1U);
  67:/usr/local/lib/ARM/CMSIS/5.4.0/CMSIS/RTOS2/RTX/Source/rtx_mutex.c ****       }
  68:/usr/local/lib/ARM/CMSIS/5.4.0/CMSIS/RTOS2/RTX/Source/rtx_mutex.c ****     }
  69:/usr/local/lib/ARM/CMSIS/5.4.0/CMSIS/RTOS2/RTX/Source/rtx_mutex.c ****     mutex = mutex_next;
  70:/usr/local/lib/ARM/CMSIS/5.4.0/CMSIS/RTOS2/RTX/Source/rtx_mutex.c ****   }
  71:/usr/local/lib/ARM/CMSIS/5.4.0/CMSIS/RTOS2/RTX/Source/rtx_mutex.c **** }
  72:/usr/local/lib/ARM/CMSIS/5.4.0/CMSIS/RTOS2/RTX/Source/rtx_mutex.c **** 
  73:/usr/local/lib/ARM/CMSIS/5.4.0/CMSIS/RTOS2/RTX/Source/rtx_mutex.c **** 
  74:/usr/local/lib/ARM/CMSIS/5.4.0/CMSIS/RTOS2/RTX/Source/rtx_mutex.c **** //  ==== Service Calls ====
  75:/usr/local/lib/ARM/CMSIS/5.4.0/CMSIS/RTOS2/RTX/Source/rtx_mutex.c **** 
  76:/usr/local/lib/ARM/CMSIS/5.4.0/CMSIS/RTOS2/RTX/Source/rtx_mutex.c **** /// Create and Initialize a Mutex object.
  77:/usr/local/lib/ARM/CMSIS/5.4.0/CMSIS/RTOS2/RTX/Source/rtx_mutex.c **** /// \note API identical to osMutexNew
  78:/usr/local/lib/ARM/CMSIS/5.4.0/CMSIS/RTOS2/RTX/Source/rtx_mutex.c **** static osMutexId_t svcRtxMutexNew (const osMutexAttr_t *attr) {
  29              		.loc 1 78 0
  30              		.cfi_startproc
  31              		@ args = 0, pretend = 0, frame = 0
  32              		@ frame_needed = 0, uses_anonymous_args = 0
  33              	.LVL0:
  34 0000 70B5     		push	{r4, r5, r6, lr}
  35              	.LCFI0:
  36              		.cfi_def_cfa_offset 16
  37              		.cfi_offset 4, -16
ARM GAS  /tmp/cc1jQKzY.s 			page 3


  38              		.cfi_offset 5, -12
  39              		.cfi_offset 6, -8
  40              		.cfi_offset 14, -4
  79:/usr/local/lib/ARM/CMSIS/5.4.0/CMSIS/RTOS2/RTX/Source/rtx_mutex.c ****   os_mutex_t *mutex;
  80:/usr/local/lib/ARM/CMSIS/5.4.0/CMSIS/RTOS2/RTX/Source/rtx_mutex.c ****   uint32_t    attr_bits;
  81:/usr/local/lib/ARM/CMSIS/5.4.0/CMSIS/RTOS2/RTX/Source/rtx_mutex.c ****   uint8_t     flags;
  82:/usr/local/lib/ARM/CMSIS/5.4.0/CMSIS/RTOS2/RTX/Source/rtx_mutex.c ****   const char *name;
  83:/usr/local/lib/ARM/CMSIS/5.4.0/CMSIS/RTOS2/RTX/Source/rtx_mutex.c **** 
  84:/usr/local/lib/ARM/CMSIS/5.4.0/CMSIS/RTOS2/RTX/Source/rtx_mutex.c ****   // Process attributes
  85:/usr/local/lib/ARM/CMSIS/5.4.0/CMSIS/RTOS2/RTX/Source/rtx_mutex.c ****   if (attr != NULL) {
  41              		.loc 1 85 0
  42 0002 C8B1     		cbz	r0, .L9
  86:/usr/local/lib/ARM/CMSIS/5.4.0/CMSIS/RTOS2/RTX/Source/rtx_mutex.c ****     name      = attr->name;
  43              		.loc 1 86 0
  44 0004 0568     		ldr	r5, [r0]
  45              	.LVL1:
  87:/usr/local/lib/ARM/CMSIS/5.4.0/CMSIS/RTOS2/RTX/Source/rtx_mutex.c ****     attr_bits = attr->attr_bits;
  46              		.loc 1 87 0
  47 0006 4668     		ldr	r6, [r0, #4]
  48              	.LVL2:
  88:/usr/local/lib/ARM/CMSIS/5.4.0/CMSIS/RTOS2/RTX/Source/rtx_mutex.c ****     //lint -e{9079} "conversion from pointer to void to pointer to other type" [MISRA Note 6]
  89:/usr/local/lib/ARM/CMSIS/5.4.0/CMSIS/RTOS2/RTX/Source/rtx_mutex.c ****     mutex     = attr->cb_mem;
  49              		.loc 1 89 0
  50 0008 8468     		ldr	r4, [r0, #8]
  51              	.LVL3:
  90:/usr/local/lib/ARM/CMSIS/5.4.0/CMSIS/RTOS2/RTX/Source/rtx_mutex.c ****     if (mutex != NULL) {
  52              		.loc 1 90 0
  53 000a 64B1     		cbz	r4, .L3
  91:/usr/local/lib/ARM/CMSIS/5.4.0/CMSIS/RTOS2/RTX/Source/rtx_mutex.c ****       //lint -e(923) -e(9078) "cast from pointer to unsigned int" [MISRA Note 7]
  92:/usr/local/lib/ARM/CMSIS/5.4.0/CMSIS/RTOS2/RTX/Source/rtx_mutex.c ****       if ((((uint32_t)mutex & 3U) != 0U) || (attr->cb_size < sizeof(os_mutex_t))) {
  54              		.loc 1 92 0
  55 000c 14F0030F 		tst	r4, #3
  56 0010 02D1     		bne	.L4
  57              		.loc 1 92 0 is_stmt 0 discriminator 1
  58 0012 C368     		ldr	r3, [r0, #12]
  59 0014 1B2B     		cmp	r3, #27
  60 0016 12D8     		bhi	.L2
  61              	.L4:
  93:/usr/local/lib/ARM/CMSIS/5.4.0/CMSIS/RTOS2/RTX/Source/rtx_mutex.c ****         EvrRtxMutexError(NULL, osRtxErrorInvalidControlBlock);
  62              		.loc 1 93 0 is_stmt 1
  63 0018 6FF00801 		mvn	r1, #8
  64 001c 0020     		movs	r0, #0
  65              	.LVL4:
  66 001e FFF7FEFF 		bl	EvrRtxMutexError
  67              	.LVL5:
  94:/usr/local/lib/ARM/CMSIS/5.4.0/CMSIS/RTOS2/RTX/Source/rtx_mutex.c ****         //lint -e{904} "Return statement before end of function" [MISRA Note 1]
  95:/usr/local/lib/ARM/CMSIS/5.4.0/CMSIS/RTOS2/RTX/Source/rtx_mutex.c ****         return NULL;
  68              		.loc 1 95 0
  69 0022 0020     		movs	r0, #0
  70 0024 70BD     		pop	{r4, r5, r6, pc}
  71              	.LVL6:
  72              	.L3:
  96:/usr/local/lib/ARM/CMSIS/5.4.0/CMSIS/RTOS2/RTX/Source/rtx_mutex.c ****       }
  97:/usr/local/lib/ARM/CMSIS/5.4.0/CMSIS/RTOS2/RTX/Source/rtx_mutex.c ****     } else {
  98:/usr/local/lib/ARM/CMSIS/5.4.0/CMSIS/RTOS2/RTX/Source/rtx_mutex.c ****       if (attr->cb_size != 0U) {
  73              		.loc 1 98 0
  74 0026 C368     		ldr	r3, [r0, #12]
ARM GAS  /tmp/cc1jQKzY.s 			page 4


  75 0028 4BB1     		cbz	r3, .L2
  99:/usr/local/lib/ARM/CMSIS/5.4.0/CMSIS/RTOS2/RTX/Source/rtx_mutex.c ****         EvrRtxMutexError(NULL, osRtxErrorInvalidControlBlock);
  76              		.loc 1 99 0
  77 002a 6FF00801 		mvn	r1, #8
  78 002e 0020     		movs	r0, #0
  79              	.LVL7:
  80 0030 FFF7FEFF 		bl	EvrRtxMutexError
  81              	.LVL8:
 100:/usr/local/lib/ARM/CMSIS/5.4.0/CMSIS/RTOS2/RTX/Source/rtx_mutex.c ****         //lint -e{904} "Return statement before end of function" [MISRA Note 1]
 101:/usr/local/lib/ARM/CMSIS/5.4.0/CMSIS/RTOS2/RTX/Source/rtx_mutex.c ****         return NULL;
  82              		.loc 1 101 0
  83 0034 0020     		movs	r0, #0
  84 0036 70BD     		pop	{r4, r5, r6, pc}
  85              	.LVL9:
  86              	.L9:
 102:/usr/local/lib/ARM/CMSIS/5.4.0/CMSIS/RTOS2/RTX/Source/rtx_mutex.c ****       }
 103:/usr/local/lib/ARM/CMSIS/5.4.0/CMSIS/RTOS2/RTX/Source/rtx_mutex.c ****     }
 104:/usr/local/lib/ARM/CMSIS/5.4.0/CMSIS/RTOS2/RTX/Source/rtx_mutex.c ****   } else {
 105:/usr/local/lib/ARM/CMSIS/5.4.0/CMSIS/RTOS2/RTX/Source/rtx_mutex.c ****     name      = NULL;
  87              		.loc 1 105 0
  88 0038 0025     		movs	r5, #0
 106:/usr/local/lib/ARM/CMSIS/5.4.0/CMSIS/RTOS2/RTX/Source/rtx_mutex.c ****     attr_bits = 0U;
  89              		.loc 1 106 0
  90 003a 2E46     		mov	r6, r5
 107:/usr/local/lib/ARM/CMSIS/5.4.0/CMSIS/RTOS2/RTX/Source/rtx_mutex.c ****     mutex     = NULL;
  91              		.loc 1 107 0
  92 003c 2C46     		mov	r4, r5
  93              	.L2:
  94              	.LVL10:
 108:/usr/local/lib/ARM/CMSIS/5.4.0/CMSIS/RTOS2/RTX/Source/rtx_mutex.c ****   }
 109:/usr/local/lib/ARM/CMSIS/5.4.0/CMSIS/RTOS2/RTX/Source/rtx_mutex.c **** 
 110:/usr/local/lib/ARM/CMSIS/5.4.0/CMSIS/RTOS2/RTX/Source/rtx_mutex.c ****   // Allocate object memory if not provided
 111:/usr/local/lib/ARM/CMSIS/5.4.0/CMSIS/RTOS2/RTX/Source/rtx_mutex.c ****   if (mutex == NULL) {
  95              		.loc 1 111 0
  96 003e 94B9     		cbnz	r4, .L10
 112:/usr/local/lib/ARM/CMSIS/5.4.0/CMSIS/RTOS2/RTX/Source/rtx_mutex.c ****     if (osRtxInfo.mpi.mutex != NULL) {
  97              		.loc 1 112 0
  98 0040 164B     		ldr	r3, .L12
  99 0042 D3F89400 		ldr	r0, [r3, #148]
 100              	.LVL11:
 101 0046 20B1     		cbz	r0, .L7
 113:/usr/local/lib/ARM/CMSIS/5.4.0/CMSIS/RTOS2/RTX/Source/rtx_mutex.c ****       //lint -e{9079} "conversion from pointer to void to pointer to other type" [MISRA Note 5]
 114:/usr/local/lib/ARM/CMSIS/5.4.0/CMSIS/RTOS2/RTX/Source/rtx_mutex.c ****       mutex = osRtxMemoryPoolAlloc(osRtxInfo.mpi.mutex);
 102              		.loc 1 114 0
 103 0048 FFF7FEFF 		bl	osRtxMemoryPoolAlloc
 104              	.LVL12:
 105 004c 0446     		mov	r4, r0
 106              	.LVL13:
 115:/usr/local/lib/ARM/CMSIS/5.4.0/CMSIS/RTOS2/RTX/Source/rtx_mutex.c ****     } else {
 116:/usr/local/lib/ARM/CMSIS/5.4.0/CMSIS/RTOS2/RTX/Source/rtx_mutex.c ****       //lint -e{9079} "conversion from pointer to void to pointer to other type" [MISRA Note 5]
 117:/usr/local/lib/ARM/CMSIS/5.4.0/CMSIS/RTOS2/RTX/Source/rtx_mutex.c ****       mutex = osRtxMemoryAlloc(osRtxInfo.mem.common, sizeof(os_mutex_t), 1U);
 118:/usr/local/lib/ARM/CMSIS/5.4.0/CMSIS/RTOS2/RTX/Source/rtx_mutex.c ****     }
 119:/usr/local/lib/ARM/CMSIS/5.4.0/CMSIS/RTOS2/RTX/Source/rtx_mutex.c **** #if (defined(OS_OBJ_MEM_USAGE) && (OS_OBJ_MEM_USAGE != 0))
 120:/usr/local/lib/ARM/CMSIS/5.4.0/CMSIS/RTOS2/RTX/Source/rtx_mutex.c ****     if (mutex != NULL) {
 121:/usr/local/lib/ARM/CMSIS/5.4.0/CMSIS/RTOS2/RTX/Source/rtx_mutex.c ****       uint32_t used;
 122:/usr/local/lib/ARM/CMSIS/5.4.0/CMSIS/RTOS2/RTX/Source/rtx_mutex.c ****       osRtxMutexMemUsage.cnt_alloc++;
 123:/usr/local/lib/ARM/CMSIS/5.4.0/CMSIS/RTOS2/RTX/Source/rtx_mutex.c ****       used = osRtxMutexMemUsage.cnt_alloc - osRtxMutexMemUsage.cnt_free;
ARM GAS  /tmp/cc1jQKzY.s 			page 5


 124:/usr/local/lib/ARM/CMSIS/5.4.0/CMSIS/RTOS2/RTX/Source/rtx_mutex.c ****       if (osRtxMutexMemUsage.max_used < used) {
 125:/usr/local/lib/ARM/CMSIS/5.4.0/CMSIS/RTOS2/RTX/Source/rtx_mutex.c ****         osRtxMutexMemUsage.max_used = used;
 126:/usr/local/lib/ARM/CMSIS/5.4.0/CMSIS/RTOS2/RTX/Source/rtx_mutex.c ****       }
 127:/usr/local/lib/ARM/CMSIS/5.4.0/CMSIS/RTOS2/RTX/Source/rtx_mutex.c ****     }
 128:/usr/local/lib/ARM/CMSIS/5.4.0/CMSIS/RTOS2/RTX/Source/rtx_mutex.c **** #endif
 129:/usr/local/lib/ARM/CMSIS/5.4.0/CMSIS/RTOS2/RTX/Source/rtx_mutex.c ****     flags = osRtxFlagSystemObject;
 107              		.loc 1 129 0
 108 004e 0123     		movs	r3, #1
 109 0050 0AE0     		b	.L6
 110              	.LVL14:
 111              	.L7:
 117:/usr/local/lib/ARM/CMSIS/5.4.0/CMSIS/RTOS2/RTX/Source/rtx_mutex.c ****     }
 112              		.loc 1 117 0
 113 0052 0122     		movs	r2, #1
 114 0054 1C21     		movs	r1, #28
 115 0056 114B     		ldr	r3, .L12
 116 0058 D3F88000 		ldr	r0, [r3, #128]
 117 005c FFF7FEFF 		bl	osRtxMemoryAlloc
 118              	.LVL15:
 119 0060 0446     		mov	r4, r0
 120              	.LVL16:
 121              		.loc 1 129 0
 122 0062 0123     		movs	r3, #1
 123 0064 00E0     		b	.L6
 124              	.LVL17:
 125              	.L10:
 130:/usr/local/lib/ARM/CMSIS/5.4.0/CMSIS/RTOS2/RTX/Source/rtx_mutex.c ****   } else {
 131:/usr/local/lib/ARM/CMSIS/5.4.0/CMSIS/RTOS2/RTX/Source/rtx_mutex.c ****     flags = 0U;
 126              		.loc 1 131 0
 127 0066 0023     		movs	r3, #0
 128              	.LVL18:
 129              	.L6:
 132:/usr/local/lib/ARM/CMSIS/5.4.0/CMSIS/RTOS2/RTX/Source/rtx_mutex.c ****   }
 133:/usr/local/lib/ARM/CMSIS/5.4.0/CMSIS/RTOS2/RTX/Source/rtx_mutex.c **** 
 134:/usr/local/lib/ARM/CMSIS/5.4.0/CMSIS/RTOS2/RTX/Source/rtx_mutex.c ****   if (mutex != NULL) {
 130              		.loc 1 134 0
 131 0068 84B1     		cbz	r4, .L8
 135:/usr/local/lib/ARM/CMSIS/5.4.0/CMSIS/RTOS2/RTX/Source/rtx_mutex.c ****     // Initialize control block
 136:/usr/local/lib/ARM/CMSIS/5.4.0/CMSIS/RTOS2/RTX/Source/rtx_mutex.c ****     mutex->id           = osRtxIdMutex;
 132              		.loc 1 136 0
 133 006a 0422     		movs	r2, #4
 134 006c 2270     		strb	r2, [r4]
 137:/usr/local/lib/ARM/CMSIS/5.4.0/CMSIS/RTOS2/RTX/Source/rtx_mutex.c ****     mutex->flags        = flags;
 135              		.loc 1 137 0
 136 006e A370     		strb	r3, [r4, #2]
 138:/usr/local/lib/ARM/CMSIS/5.4.0/CMSIS/RTOS2/RTX/Source/rtx_mutex.c ****     mutex->attr         = (uint8_t)attr_bits;
 137              		.loc 1 138 0
 138 0070 E670     		strb	r6, [r4, #3]
 139:/usr/local/lib/ARM/CMSIS/5.4.0/CMSIS/RTOS2/RTX/Source/rtx_mutex.c ****     mutex->name         = name;
 139              		.loc 1 139 0
 140 0072 6560     		str	r5, [r4, #4]
 140:/usr/local/lib/ARM/CMSIS/5.4.0/CMSIS/RTOS2/RTX/Source/rtx_mutex.c ****     mutex->thread_list  = NULL;
 141              		.loc 1 140 0
 142 0074 0023     		movs	r3, #0
 143              	.LVL19:
 144 0076 A360     		str	r3, [r4, #8]
 141:/usr/local/lib/ARM/CMSIS/5.4.0/CMSIS/RTOS2/RTX/Source/rtx_mutex.c ****     mutex->owner_thread = NULL;
ARM GAS  /tmp/cc1jQKzY.s 			page 6


 145              		.loc 1 141 0
 146 0078 E360     		str	r3, [r4, #12]
 142:/usr/local/lib/ARM/CMSIS/5.4.0/CMSIS/RTOS2/RTX/Source/rtx_mutex.c ****     mutex->owner_prev   = NULL;
 147              		.loc 1 142 0
 148 007a 2361     		str	r3, [r4, #16]
 143:/usr/local/lib/ARM/CMSIS/5.4.0/CMSIS/RTOS2/RTX/Source/rtx_mutex.c ****     mutex->owner_next   = NULL;
 149              		.loc 1 143 0
 150 007c 6361     		str	r3, [r4, #20]
 144:/usr/local/lib/ARM/CMSIS/5.4.0/CMSIS/RTOS2/RTX/Source/rtx_mutex.c ****     mutex->lock         = 0U;
 151              		.loc 1 144 0
 152 007e 2376     		strb	r3, [r4, #24]
 145:/usr/local/lib/ARM/CMSIS/5.4.0/CMSIS/RTOS2/RTX/Source/rtx_mutex.c **** 
 146:/usr/local/lib/ARM/CMSIS/5.4.0/CMSIS/RTOS2/RTX/Source/rtx_mutex.c ****     EvrRtxMutexCreated(mutex, mutex->name);
 153              		.loc 1 146 0
 154 0080 2946     		mov	r1, r5
 155 0082 2046     		mov	r0, r4
 156 0084 FFF7FEFF 		bl	EvrRtxMutexCreated
 157              	.LVL20:
 147:/usr/local/lib/ARM/CMSIS/5.4.0/CMSIS/RTOS2/RTX/Source/rtx_mutex.c ****   } else {
 148:/usr/local/lib/ARM/CMSIS/5.4.0/CMSIS/RTOS2/RTX/Source/rtx_mutex.c ****     EvrRtxMutexError(NULL, (int32_t)osErrorNoMemory);
 149:/usr/local/lib/ARM/CMSIS/5.4.0/CMSIS/RTOS2/RTX/Source/rtx_mutex.c ****   }
 150:/usr/local/lib/ARM/CMSIS/5.4.0/CMSIS/RTOS2/RTX/Source/rtx_mutex.c **** 
 151:/usr/local/lib/ARM/CMSIS/5.4.0/CMSIS/RTOS2/RTX/Source/rtx_mutex.c ****   return mutex;
 158              		.loc 1 151 0
 159 0088 2046     		mov	r0, r4
 160 008a 70BD     		pop	{r4, r5, r6, pc}
 161              	.LVL21:
 162              	.L8:
 148:/usr/local/lib/ARM/CMSIS/5.4.0/CMSIS/RTOS2/RTX/Source/rtx_mutex.c ****   }
 163              		.loc 1 148 0
 164 008c 6FF00401 		mvn	r1, #4
 165 0090 0020     		movs	r0, #0
 166 0092 FFF7FEFF 		bl	EvrRtxMutexError
 167              	.LVL22:
 168              		.loc 1 151 0
 169 0096 2046     		mov	r0, r4
 152:/usr/local/lib/ARM/CMSIS/5.4.0/CMSIS/RTOS2/RTX/Source/rtx_mutex.c **** }
 170              		.loc 1 152 0
 171 0098 70BD     		pop	{r4, r5, r6, pc}
 172              	.LVL23:
 173              	.L13:
 174 009a 00BF     		.align	2
 175              	.L12:
 176 009c 00000000 		.word	osRtxInfo
 177              		.cfi_endproc
 178              	.LFE175:
 180              		.section	.text.svcRtxMutexGetName,"ax",%progbits
 181              		.align	2
 182              		.thumb
 183              		.thumb_func
 185              	svcRtxMutexGetName:
 186              	.LFB176:
 153:/usr/local/lib/ARM/CMSIS/5.4.0/CMSIS/RTOS2/RTX/Source/rtx_mutex.c **** 
 154:/usr/local/lib/ARM/CMSIS/5.4.0/CMSIS/RTOS2/RTX/Source/rtx_mutex.c **** /// Get name of a Mutex object.
 155:/usr/local/lib/ARM/CMSIS/5.4.0/CMSIS/RTOS2/RTX/Source/rtx_mutex.c **** /// \note API identical to osMutexGetName
 156:/usr/local/lib/ARM/CMSIS/5.4.0/CMSIS/RTOS2/RTX/Source/rtx_mutex.c **** static const char *svcRtxMutexGetName (osMutexId_t mutex_id) {
 187              		.loc 1 156 0
ARM GAS  /tmp/cc1jQKzY.s 			page 7


 188              		.cfi_startproc
 189              		@ args = 0, pretend = 0, frame = 0
 190              		@ frame_needed = 0, uses_anonymous_args = 0
 191              	.LVL24:
 192 0000 10B5     		push	{r4, lr}
 193              	.LCFI1:
 194              		.cfi_def_cfa_offset 8
 195              		.cfi_offset 4, -8
 196              		.cfi_offset 14, -4
 157:/usr/local/lib/ARM/CMSIS/5.4.0/CMSIS/RTOS2/RTX/Source/rtx_mutex.c ****   os_mutex_t *mutex = osRtxMutexId(mutex_id);
 158:/usr/local/lib/ARM/CMSIS/5.4.0/CMSIS/RTOS2/RTX/Source/rtx_mutex.c **** 
 159:/usr/local/lib/ARM/CMSIS/5.4.0/CMSIS/RTOS2/RTX/Source/rtx_mutex.c ****   // Check parameters
 160:/usr/local/lib/ARM/CMSIS/5.4.0/CMSIS/RTOS2/RTX/Source/rtx_mutex.c ****   if ((mutex == NULL) || (mutex->id != osRtxIdMutex)) {
 197              		.loc 1 160 0
 198 0002 0446     		mov	r4, r0
 199 0004 10B1     		cbz	r0, .L15
 200              		.loc 1 160 0 is_stmt 0 discriminator 1
 201 0006 0378     		ldrb	r3, [r0]	@ zero_extendqisi2
 202 0008 042B     		cmp	r3, #4
 203 000a 05D0     		beq	.L16
 204              	.L15:
 161:/usr/local/lib/ARM/CMSIS/5.4.0/CMSIS/RTOS2/RTX/Source/rtx_mutex.c ****     EvrRtxMutexGetName(mutex, NULL);
 205              		.loc 1 161 0 is_stmt 1
 206 000c 0021     		movs	r1, #0
 207 000e 2046     		mov	r0, r4
 208              	.LVL25:
 209 0010 FFF7FEFF 		bl	EvrRtxMutexGetName
 210              	.LVL26:
 162:/usr/local/lib/ARM/CMSIS/5.4.0/CMSIS/RTOS2/RTX/Source/rtx_mutex.c ****     //lint -e{904} "Return statement before end of function" [MISRA Note 1]
 163:/usr/local/lib/ARM/CMSIS/5.4.0/CMSIS/RTOS2/RTX/Source/rtx_mutex.c ****     return NULL;
 211              		.loc 1 163 0
 212 0014 0020     		movs	r0, #0
 213 0016 10BD     		pop	{r4, pc}
 214              	.LVL27:
 215              	.L16:
 164:/usr/local/lib/ARM/CMSIS/5.4.0/CMSIS/RTOS2/RTX/Source/rtx_mutex.c ****   }
 165:/usr/local/lib/ARM/CMSIS/5.4.0/CMSIS/RTOS2/RTX/Source/rtx_mutex.c **** 
 166:/usr/local/lib/ARM/CMSIS/5.4.0/CMSIS/RTOS2/RTX/Source/rtx_mutex.c ****   EvrRtxMutexGetName(mutex, mutex->name);
 216              		.loc 1 166 0
 217 0018 4168     		ldr	r1, [r0, #4]
 218 001a FFF7FEFF 		bl	EvrRtxMutexGetName
 219              	.LVL28:
 167:/usr/local/lib/ARM/CMSIS/5.4.0/CMSIS/RTOS2/RTX/Source/rtx_mutex.c **** 
 168:/usr/local/lib/ARM/CMSIS/5.4.0/CMSIS/RTOS2/RTX/Source/rtx_mutex.c ****   return mutex->name;
 220              		.loc 1 168 0
 221 001e 6068     		ldr	r0, [r4, #4]
 169:/usr/local/lib/ARM/CMSIS/5.4.0/CMSIS/RTOS2/RTX/Source/rtx_mutex.c **** }
 222              		.loc 1 169 0
 223 0020 10BD     		pop	{r4, pc}
 224              		.cfi_endproc
 225              	.LFE176:
 227 0022 00BF     		.section	.text.svcRtxMutexAcquire,"ax",%progbits
 228              		.align	2
 229              		.thumb
 230              		.thumb_func
 232              	svcRtxMutexAcquire:
 233              	.LFB177:
ARM GAS  /tmp/cc1jQKzY.s 			page 8


 170:/usr/local/lib/ARM/CMSIS/5.4.0/CMSIS/RTOS2/RTX/Source/rtx_mutex.c **** 
 171:/usr/local/lib/ARM/CMSIS/5.4.0/CMSIS/RTOS2/RTX/Source/rtx_mutex.c **** /// Acquire a Mutex or timeout if it is locked.
 172:/usr/local/lib/ARM/CMSIS/5.4.0/CMSIS/RTOS2/RTX/Source/rtx_mutex.c **** /// \note API identical to osMutexAcquire
 173:/usr/local/lib/ARM/CMSIS/5.4.0/CMSIS/RTOS2/RTX/Source/rtx_mutex.c **** static osStatus_t svcRtxMutexAcquire (osMutexId_t mutex_id, uint32_t timeout) {
 234              		.loc 1 173 0
 235              		.cfi_startproc
 236              		@ args = 0, pretend = 0, frame = 0
 237              		@ frame_needed = 0, uses_anonymous_args = 0
 238              	.LVL29:
 239 0000 70B5     		push	{r4, r5, r6, lr}
 240              	.LCFI2:
 241              		.cfi_def_cfa_offset 16
 242              		.cfi_offset 4, -16
 243              		.cfi_offset 5, -12
 244              		.cfi_offset 6, -8
 245              		.cfi_offset 14, -4
 246 0002 0446     		mov	r4, r0
 247              	.LBB114:
 248              	.LBB115:
 249              		.file 2 "/usr/local/lib/ARM/CMSIS/5.4.0/CMSIS/RTOS2/RTX/Source/rtx_lib.h"
   1:/usr/local/lib/ARM/CMSIS/5.4.0/CMSIS/RTOS2/RTX/Source/rtx_lib.h **** /*
   2:/usr/local/lib/ARM/CMSIS/5.4.0/CMSIS/RTOS2/RTX/Source/rtx_lib.h ****  * Copyright (c) 2013-2018 Arm Limited. All rights reserved.
   3:/usr/local/lib/ARM/CMSIS/5.4.0/CMSIS/RTOS2/RTX/Source/rtx_lib.h ****  *
   4:/usr/local/lib/ARM/CMSIS/5.4.0/CMSIS/RTOS2/RTX/Source/rtx_lib.h ****  * SPDX-License-Identifier: Apache-2.0
   5:/usr/local/lib/ARM/CMSIS/5.4.0/CMSIS/RTOS2/RTX/Source/rtx_lib.h ****  *
   6:/usr/local/lib/ARM/CMSIS/5.4.0/CMSIS/RTOS2/RTX/Source/rtx_lib.h ****  * Licensed under the Apache License, Version 2.0 (the License); you may
   7:/usr/local/lib/ARM/CMSIS/5.4.0/CMSIS/RTOS2/RTX/Source/rtx_lib.h ****  * not use this file except in compliance with the License.
   8:/usr/local/lib/ARM/CMSIS/5.4.0/CMSIS/RTOS2/RTX/Source/rtx_lib.h ****  * You may obtain a copy of the License at
   9:/usr/local/lib/ARM/CMSIS/5.4.0/CMSIS/RTOS2/RTX/Source/rtx_lib.h ****  *
  10:/usr/local/lib/ARM/CMSIS/5.4.0/CMSIS/RTOS2/RTX/Source/rtx_lib.h ****  * www.apache.org/licenses/LICENSE-2.0
  11:/usr/local/lib/ARM/CMSIS/5.4.0/CMSIS/RTOS2/RTX/Source/rtx_lib.h ****  *
  12:/usr/local/lib/ARM/CMSIS/5.4.0/CMSIS/RTOS2/RTX/Source/rtx_lib.h ****  * Unless required by applicable law or agreed to in writing, software
  13:/usr/local/lib/ARM/CMSIS/5.4.0/CMSIS/RTOS2/RTX/Source/rtx_lib.h ****  * distributed under the License is distributed on an AS IS BASIS, WITHOUT
  14:/usr/local/lib/ARM/CMSIS/5.4.0/CMSIS/RTOS2/RTX/Source/rtx_lib.h ****  * WARRANTIES OR CONDITIONS OF ANY KIND, either express or implied.
  15:/usr/local/lib/ARM/CMSIS/5.4.0/CMSIS/RTOS2/RTX/Source/rtx_lib.h ****  * See the License for the specific language governing permissions and
  16:/usr/local/lib/ARM/CMSIS/5.4.0/CMSIS/RTOS2/RTX/Source/rtx_lib.h ****  * limitations under the License.
  17:/usr/local/lib/ARM/CMSIS/5.4.0/CMSIS/RTOS2/RTX/Source/rtx_lib.h ****  *
  18:/usr/local/lib/ARM/CMSIS/5.4.0/CMSIS/RTOS2/RTX/Source/rtx_lib.h ****  * -----------------------------------------------------------------------------
  19:/usr/local/lib/ARM/CMSIS/5.4.0/CMSIS/RTOS2/RTX/Source/rtx_lib.h ****  *
  20:/usr/local/lib/ARM/CMSIS/5.4.0/CMSIS/RTOS2/RTX/Source/rtx_lib.h ****  * Project:     CMSIS-RTOS RTX
  21:/usr/local/lib/ARM/CMSIS/5.4.0/CMSIS/RTOS2/RTX/Source/rtx_lib.h ****  * Title:       RTX Library definitions
  22:/usr/local/lib/ARM/CMSIS/5.4.0/CMSIS/RTOS2/RTX/Source/rtx_lib.h ****  *
  23:/usr/local/lib/ARM/CMSIS/5.4.0/CMSIS/RTOS2/RTX/Source/rtx_lib.h ****  * -----------------------------------------------------------------------------
  24:/usr/local/lib/ARM/CMSIS/5.4.0/CMSIS/RTOS2/RTX/Source/rtx_lib.h ****  */
  25:/usr/local/lib/ARM/CMSIS/5.4.0/CMSIS/RTOS2/RTX/Source/rtx_lib.h **** 
  26:/usr/local/lib/ARM/CMSIS/5.4.0/CMSIS/RTOS2/RTX/Source/rtx_lib.h **** #ifndef RTX_LIB_H_
  27:/usr/local/lib/ARM/CMSIS/5.4.0/CMSIS/RTOS2/RTX/Source/rtx_lib.h **** #define RTX_LIB_H_
  28:/usr/local/lib/ARM/CMSIS/5.4.0/CMSIS/RTOS2/RTX/Source/rtx_lib.h **** 
  29:/usr/local/lib/ARM/CMSIS/5.4.0/CMSIS/RTOS2/RTX/Source/rtx_lib.h **** #include <string.h>
  30:/usr/local/lib/ARM/CMSIS/5.4.0/CMSIS/RTOS2/RTX/Source/rtx_lib.h **** #include "rtx_core_c.h"                 // Cortex core definitions
  31:/usr/local/lib/ARM/CMSIS/5.4.0/CMSIS/RTOS2/RTX/Source/rtx_lib.h **** #if ((defined(__ARM_ARCH_8M_BASE__) && (__ARM_ARCH_8M_BASE__ != 0)) || \
  32:/usr/local/lib/ARM/CMSIS/5.4.0/CMSIS/RTOS2/RTX/Source/rtx_lib.h ****      (defined(__ARM_ARCH_8M_MAIN__) && (__ARM_ARCH_8M_MAIN__ != 0)))
  33:/usr/local/lib/ARM/CMSIS/5.4.0/CMSIS/RTOS2/RTX/Source/rtx_lib.h **** #include "tz_context.h"                 // TrustZone Context API
  34:/usr/local/lib/ARM/CMSIS/5.4.0/CMSIS/RTOS2/RTX/Source/rtx_lib.h **** #endif
  35:/usr/local/lib/ARM/CMSIS/5.4.0/CMSIS/RTOS2/RTX/Source/rtx_lib.h **** #include "os_tick.h"                    // CMSIS OS Tick API
  36:/usr/local/lib/ARM/CMSIS/5.4.0/CMSIS/RTOS2/RTX/Source/rtx_lib.h **** #include "cmsis_os2.h"                  // CMSIS RTOS API
  37:/usr/local/lib/ARM/CMSIS/5.4.0/CMSIS/RTOS2/RTX/Source/rtx_lib.h **** #include "RTX_Config.h"                 // RTX Configuration
ARM GAS  /tmp/cc1jQKzY.s 			page 9


  38:/usr/local/lib/ARM/CMSIS/5.4.0/CMSIS/RTOS2/RTX/Source/rtx_lib.h **** #include "rtx_os.h"                     // RTX OS definitions
  39:/usr/local/lib/ARM/CMSIS/5.4.0/CMSIS/RTOS2/RTX/Source/rtx_lib.h **** #include "rtx_evr.h"                    // RTX Event Recorder definitions
  40:/usr/local/lib/ARM/CMSIS/5.4.0/CMSIS/RTOS2/RTX/Source/rtx_lib.h **** 
  41:/usr/local/lib/ARM/CMSIS/5.4.0/CMSIS/RTOS2/RTX/Source/rtx_lib.h **** 
  42:/usr/local/lib/ARM/CMSIS/5.4.0/CMSIS/RTOS2/RTX/Source/rtx_lib.h **** //  ==== Library defines ====
  43:/usr/local/lib/ARM/CMSIS/5.4.0/CMSIS/RTOS2/RTX/Source/rtx_lib.h **** 
  44:/usr/local/lib/ARM/CMSIS/5.4.0/CMSIS/RTOS2/RTX/Source/rtx_lib.h **** #define os_thread_t         osRtxThread_t
  45:/usr/local/lib/ARM/CMSIS/5.4.0/CMSIS/RTOS2/RTX/Source/rtx_lib.h **** #define os_timer_t          osRtxTimer_t
  46:/usr/local/lib/ARM/CMSIS/5.4.0/CMSIS/RTOS2/RTX/Source/rtx_lib.h **** #define os_timer_finfo_t    osRtxTimerFinfo_t
  47:/usr/local/lib/ARM/CMSIS/5.4.0/CMSIS/RTOS2/RTX/Source/rtx_lib.h **** #define os_event_flags_t    osRtxEventFlags_t
  48:/usr/local/lib/ARM/CMSIS/5.4.0/CMSIS/RTOS2/RTX/Source/rtx_lib.h **** #define os_mutex_t          osRtxMutex_t
  49:/usr/local/lib/ARM/CMSIS/5.4.0/CMSIS/RTOS2/RTX/Source/rtx_lib.h **** #define os_semaphore_t      osRtxSemaphore_t
  50:/usr/local/lib/ARM/CMSIS/5.4.0/CMSIS/RTOS2/RTX/Source/rtx_lib.h **** #define os_mp_info_t        osRtxMpInfo_t
  51:/usr/local/lib/ARM/CMSIS/5.4.0/CMSIS/RTOS2/RTX/Source/rtx_lib.h **** #define os_memory_pool_t    osRtxMemoryPool_t
  52:/usr/local/lib/ARM/CMSIS/5.4.0/CMSIS/RTOS2/RTX/Source/rtx_lib.h **** #define os_message_t        osRtxMessage_t
  53:/usr/local/lib/ARM/CMSIS/5.4.0/CMSIS/RTOS2/RTX/Source/rtx_lib.h **** #define os_message_queue_t  osRtxMessageQueue_t
  54:/usr/local/lib/ARM/CMSIS/5.4.0/CMSIS/RTOS2/RTX/Source/rtx_lib.h **** #define os_object_t         osRtxObject_t
  55:/usr/local/lib/ARM/CMSIS/5.4.0/CMSIS/RTOS2/RTX/Source/rtx_lib.h **** 
  56:/usr/local/lib/ARM/CMSIS/5.4.0/CMSIS/RTOS2/RTX/Source/rtx_lib.h **** //  ==== Inline functions ====
  57:/usr/local/lib/ARM/CMSIS/5.4.0/CMSIS/RTOS2/RTX/Source/rtx_lib.h **** 
  58:/usr/local/lib/ARM/CMSIS/5.4.0/CMSIS/RTOS2/RTX/Source/rtx_lib.h **** // Thread ID
  59:/usr/local/lib/ARM/CMSIS/5.4.0/CMSIS/RTOS2/RTX/Source/rtx_lib.h **** __STATIC_INLINE os_thread_t *osRtxThreadId (osThreadId_t thread_id) {
  60:/usr/local/lib/ARM/CMSIS/5.4.0/CMSIS/RTOS2/RTX/Source/rtx_lib.h ****   //lint -e{9079} -e{9087} "cast from pointer to void to pointer to object type" [MISRA Note 2]
  61:/usr/local/lib/ARM/CMSIS/5.4.0/CMSIS/RTOS2/RTX/Source/rtx_lib.h ****   return ((os_thread_t *)thread_id);
  62:/usr/local/lib/ARM/CMSIS/5.4.0/CMSIS/RTOS2/RTX/Source/rtx_lib.h **** }
  63:/usr/local/lib/ARM/CMSIS/5.4.0/CMSIS/RTOS2/RTX/Source/rtx_lib.h **** // Timer ID
  64:/usr/local/lib/ARM/CMSIS/5.4.0/CMSIS/RTOS2/RTX/Source/rtx_lib.h **** __STATIC_INLINE os_timer_t *osRtxTimerId (osTimerId_t timer_id) {
  65:/usr/local/lib/ARM/CMSIS/5.4.0/CMSIS/RTOS2/RTX/Source/rtx_lib.h ****   //lint -e{9079} -e{9087} "cast from pointer to void to pointer to object type" [MISRA Note 2]
  66:/usr/local/lib/ARM/CMSIS/5.4.0/CMSIS/RTOS2/RTX/Source/rtx_lib.h ****   return ((os_timer_t *)timer_id);
  67:/usr/local/lib/ARM/CMSIS/5.4.0/CMSIS/RTOS2/RTX/Source/rtx_lib.h **** }
  68:/usr/local/lib/ARM/CMSIS/5.4.0/CMSIS/RTOS2/RTX/Source/rtx_lib.h **** // Event Flags ID
  69:/usr/local/lib/ARM/CMSIS/5.4.0/CMSIS/RTOS2/RTX/Source/rtx_lib.h **** __STATIC_INLINE os_event_flags_t *osRtxEventFlagsId (osEventFlagsId_t ef_id) {
  70:/usr/local/lib/ARM/CMSIS/5.4.0/CMSIS/RTOS2/RTX/Source/rtx_lib.h ****   //lint -e{9079} -e{9087} "cast from pointer to void to pointer to object type" [MISRA Note 2]
  71:/usr/local/lib/ARM/CMSIS/5.4.0/CMSIS/RTOS2/RTX/Source/rtx_lib.h ****   return ((os_event_flags_t *)ef_id);
  72:/usr/local/lib/ARM/CMSIS/5.4.0/CMSIS/RTOS2/RTX/Source/rtx_lib.h **** }
  73:/usr/local/lib/ARM/CMSIS/5.4.0/CMSIS/RTOS2/RTX/Source/rtx_lib.h **** // Mutex ID
  74:/usr/local/lib/ARM/CMSIS/5.4.0/CMSIS/RTOS2/RTX/Source/rtx_lib.h **** __STATIC_INLINE os_mutex_t *osRtxMutexId (osMutexId_t mutex_id) {
  75:/usr/local/lib/ARM/CMSIS/5.4.0/CMSIS/RTOS2/RTX/Source/rtx_lib.h ****   //lint -e{9079} -e{9087} "cast from pointer to void to pointer to object type" [MISRA Note 2]
  76:/usr/local/lib/ARM/CMSIS/5.4.0/CMSIS/RTOS2/RTX/Source/rtx_lib.h ****   return ((os_mutex_t *)mutex_id);
  77:/usr/local/lib/ARM/CMSIS/5.4.0/CMSIS/RTOS2/RTX/Source/rtx_lib.h **** }
  78:/usr/local/lib/ARM/CMSIS/5.4.0/CMSIS/RTOS2/RTX/Source/rtx_lib.h **** // Semaphore ID
  79:/usr/local/lib/ARM/CMSIS/5.4.0/CMSIS/RTOS2/RTX/Source/rtx_lib.h **** __STATIC_INLINE os_semaphore_t *osRtxSemaphoreId (osSemaphoreId_t semaphore_id) {
  80:/usr/local/lib/ARM/CMSIS/5.4.0/CMSIS/RTOS2/RTX/Source/rtx_lib.h ****   //lint -e{9079} -e{9087} "cast from pointer to void to pointer to object type" [MISRA Note 2]
  81:/usr/local/lib/ARM/CMSIS/5.4.0/CMSIS/RTOS2/RTX/Source/rtx_lib.h ****   return ((os_semaphore_t *)semaphore_id);
  82:/usr/local/lib/ARM/CMSIS/5.4.0/CMSIS/RTOS2/RTX/Source/rtx_lib.h **** }
  83:/usr/local/lib/ARM/CMSIS/5.4.0/CMSIS/RTOS2/RTX/Source/rtx_lib.h **** // Memory Pool ID
  84:/usr/local/lib/ARM/CMSIS/5.4.0/CMSIS/RTOS2/RTX/Source/rtx_lib.h **** __STATIC_INLINE os_memory_pool_t *osRtxMemoryPoolId (osMemoryPoolId_t mp_id) {
  85:/usr/local/lib/ARM/CMSIS/5.4.0/CMSIS/RTOS2/RTX/Source/rtx_lib.h ****   //lint -e{9079} -e{9087} "cast from pointer to void to pointer to object type" [MISRA Note 2]
  86:/usr/local/lib/ARM/CMSIS/5.4.0/CMSIS/RTOS2/RTX/Source/rtx_lib.h ****   return ((os_memory_pool_t *)mp_id);
  87:/usr/local/lib/ARM/CMSIS/5.4.0/CMSIS/RTOS2/RTX/Source/rtx_lib.h **** }
  88:/usr/local/lib/ARM/CMSIS/5.4.0/CMSIS/RTOS2/RTX/Source/rtx_lib.h **** // Message Queue ID
  89:/usr/local/lib/ARM/CMSIS/5.4.0/CMSIS/RTOS2/RTX/Source/rtx_lib.h **** __STATIC_INLINE os_message_queue_t *osRtxMessageQueueId (osMessageQueueId_t mq_id) {
  90:/usr/local/lib/ARM/CMSIS/5.4.0/CMSIS/RTOS2/RTX/Source/rtx_lib.h ****   //lint -e{9079} -e{9087} "cast from pointer to void to pointer to object type" [MISRA Note 2]
  91:/usr/local/lib/ARM/CMSIS/5.4.0/CMSIS/RTOS2/RTX/Source/rtx_lib.h ****   return ((os_message_queue_t *)mq_id);
  92:/usr/local/lib/ARM/CMSIS/5.4.0/CMSIS/RTOS2/RTX/Source/rtx_lib.h **** }
  93:/usr/local/lib/ARM/CMSIS/5.4.0/CMSIS/RTOS2/RTX/Source/rtx_lib.h **** 
  94:/usr/local/lib/ARM/CMSIS/5.4.0/CMSIS/RTOS2/RTX/Source/rtx_lib.h **** // Generic Object
ARM GAS  /tmp/cc1jQKzY.s 			page 10


  95:/usr/local/lib/ARM/CMSIS/5.4.0/CMSIS/RTOS2/RTX/Source/rtx_lib.h **** __STATIC_INLINE os_object_t *osRtxObject (void *object) {
  96:/usr/local/lib/ARM/CMSIS/5.4.0/CMSIS/RTOS2/RTX/Source/rtx_lib.h ****   //lint -e{9079} -e{9087} "cast from pointer to void to pointer to object type" [MISRA Note 3]
  97:/usr/local/lib/ARM/CMSIS/5.4.0/CMSIS/RTOS2/RTX/Source/rtx_lib.h ****   return ((os_object_t *)object);
  98:/usr/local/lib/ARM/CMSIS/5.4.0/CMSIS/RTOS2/RTX/Source/rtx_lib.h **** }
  99:/usr/local/lib/ARM/CMSIS/5.4.0/CMSIS/RTOS2/RTX/Source/rtx_lib.h **** 
 100:/usr/local/lib/ARM/CMSIS/5.4.0/CMSIS/RTOS2/RTX/Source/rtx_lib.h **** // Thread Object
 101:/usr/local/lib/ARM/CMSIS/5.4.0/CMSIS/RTOS2/RTX/Source/rtx_lib.h **** __STATIC_INLINE os_thread_t *osRtxThreadObject (os_object_t *object) {
 102:/usr/local/lib/ARM/CMSIS/5.4.0/CMSIS/RTOS2/RTX/Source/rtx_lib.h ****   //lint -e{740} -e{826} -e{9087} "cast from pointer to generic object to specific object" [MISRA N
 103:/usr/local/lib/ARM/CMSIS/5.4.0/CMSIS/RTOS2/RTX/Source/rtx_lib.h ****   return ((os_thread_t *)object);
 104:/usr/local/lib/ARM/CMSIS/5.4.0/CMSIS/RTOS2/RTX/Source/rtx_lib.h **** }
 105:/usr/local/lib/ARM/CMSIS/5.4.0/CMSIS/RTOS2/RTX/Source/rtx_lib.h **** // Timer Object
 106:/usr/local/lib/ARM/CMSIS/5.4.0/CMSIS/RTOS2/RTX/Source/rtx_lib.h **** __STATIC_INLINE os_timer_t *osRtxTimerObject (os_object_t *object) {
 107:/usr/local/lib/ARM/CMSIS/5.4.0/CMSIS/RTOS2/RTX/Source/rtx_lib.h ****   //lint -e{740} -e{826} -e{9087} "cast from pointer to generic object to specific object" [MISRA N
 108:/usr/local/lib/ARM/CMSIS/5.4.0/CMSIS/RTOS2/RTX/Source/rtx_lib.h ****   return ((os_timer_t *)object);
 109:/usr/local/lib/ARM/CMSIS/5.4.0/CMSIS/RTOS2/RTX/Source/rtx_lib.h **** }
 110:/usr/local/lib/ARM/CMSIS/5.4.0/CMSIS/RTOS2/RTX/Source/rtx_lib.h **** // Event Flags Object
 111:/usr/local/lib/ARM/CMSIS/5.4.0/CMSIS/RTOS2/RTX/Source/rtx_lib.h **** __STATIC_INLINE os_event_flags_t *osRtxEventFlagsObject (os_object_t *object) {
 112:/usr/local/lib/ARM/CMSIS/5.4.0/CMSIS/RTOS2/RTX/Source/rtx_lib.h ****   //lint -e{740} -e{826} -e{9087} "cast from pointer to generic object to specific object" [MISRA N
 113:/usr/local/lib/ARM/CMSIS/5.4.0/CMSIS/RTOS2/RTX/Source/rtx_lib.h ****   return ((os_event_flags_t *)object);
 114:/usr/local/lib/ARM/CMSIS/5.4.0/CMSIS/RTOS2/RTX/Source/rtx_lib.h **** }
 115:/usr/local/lib/ARM/CMSIS/5.4.0/CMSIS/RTOS2/RTX/Source/rtx_lib.h **** // Mutex Object
 116:/usr/local/lib/ARM/CMSIS/5.4.0/CMSIS/RTOS2/RTX/Source/rtx_lib.h **** __STATIC_INLINE os_mutex_t *osRtxMutexObject (os_object_t *object) {
 117:/usr/local/lib/ARM/CMSIS/5.4.0/CMSIS/RTOS2/RTX/Source/rtx_lib.h ****   //lint -e{740} -e{826} -e{9087} "cast from pointer to generic object to specific object" [MISRA N
 118:/usr/local/lib/ARM/CMSIS/5.4.0/CMSIS/RTOS2/RTX/Source/rtx_lib.h ****   return ((os_mutex_t *)object);
 119:/usr/local/lib/ARM/CMSIS/5.4.0/CMSIS/RTOS2/RTX/Source/rtx_lib.h **** }
 120:/usr/local/lib/ARM/CMSIS/5.4.0/CMSIS/RTOS2/RTX/Source/rtx_lib.h **** // Semaphore Object
 121:/usr/local/lib/ARM/CMSIS/5.4.0/CMSIS/RTOS2/RTX/Source/rtx_lib.h **** __STATIC_INLINE os_semaphore_t *osRtxSemaphoreObject (os_object_t *object) {
 122:/usr/local/lib/ARM/CMSIS/5.4.0/CMSIS/RTOS2/RTX/Source/rtx_lib.h ****   //lint -e{740} -e{826} -e{9087} "cast from pointer to generic object to specific object" [MISRA N
 123:/usr/local/lib/ARM/CMSIS/5.4.0/CMSIS/RTOS2/RTX/Source/rtx_lib.h ****   return ((os_semaphore_t *)object);
 124:/usr/local/lib/ARM/CMSIS/5.4.0/CMSIS/RTOS2/RTX/Source/rtx_lib.h **** }
 125:/usr/local/lib/ARM/CMSIS/5.4.0/CMSIS/RTOS2/RTX/Source/rtx_lib.h **** // Memory Pool Object
 126:/usr/local/lib/ARM/CMSIS/5.4.0/CMSIS/RTOS2/RTX/Source/rtx_lib.h **** __STATIC_INLINE os_memory_pool_t *osRtxMemoryPoolObject (os_object_t *object) {
 127:/usr/local/lib/ARM/CMSIS/5.4.0/CMSIS/RTOS2/RTX/Source/rtx_lib.h ****   //lint -e{740} -e{826} -e{9087} "cast from pointer to generic object to specific object" [MISRA N
 128:/usr/local/lib/ARM/CMSIS/5.4.0/CMSIS/RTOS2/RTX/Source/rtx_lib.h ****   return ((os_memory_pool_t *)object);
 129:/usr/local/lib/ARM/CMSIS/5.4.0/CMSIS/RTOS2/RTX/Source/rtx_lib.h **** }
 130:/usr/local/lib/ARM/CMSIS/5.4.0/CMSIS/RTOS2/RTX/Source/rtx_lib.h **** // Message Queue Object
 131:/usr/local/lib/ARM/CMSIS/5.4.0/CMSIS/RTOS2/RTX/Source/rtx_lib.h **** __STATIC_INLINE os_message_queue_t *osRtxMessageQueueObject (os_object_t *object) {
 132:/usr/local/lib/ARM/CMSIS/5.4.0/CMSIS/RTOS2/RTX/Source/rtx_lib.h ****   //lint -e{740} -e{826} -e{9087} "cast from pointer to generic object to specific object" [MISRA N
 133:/usr/local/lib/ARM/CMSIS/5.4.0/CMSIS/RTOS2/RTX/Source/rtx_lib.h ****   return ((os_message_queue_t *)object);
 134:/usr/local/lib/ARM/CMSIS/5.4.0/CMSIS/RTOS2/RTX/Source/rtx_lib.h **** }
 135:/usr/local/lib/ARM/CMSIS/5.4.0/CMSIS/RTOS2/RTX/Source/rtx_lib.h **** // Message Object
 136:/usr/local/lib/ARM/CMSIS/5.4.0/CMSIS/RTOS2/RTX/Source/rtx_lib.h **** __STATIC_INLINE os_message_t *osRtxMessageObject (os_object_t *object) {
 137:/usr/local/lib/ARM/CMSIS/5.4.0/CMSIS/RTOS2/RTX/Source/rtx_lib.h ****   //lint -e{740} -e{826} -e{9087} "cast from pointer to generic object to specific object" [MISRA N
 138:/usr/local/lib/ARM/CMSIS/5.4.0/CMSIS/RTOS2/RTX/Source/rtx_lib.h ****   return ((os_message_t *)object);
 139:/usr/local/lib/ARM/CMSIS/5.4.0/CMSIS/RTOS2/RTX/Source/rtx_lib.h **** }
 140:/usr/local/lib/ARM/CMSIS/5.4.0/CMSIS/RTOS2/RTX/Source/rtx_lib.h **** 
 141:/usr/local/lib/ARM/CMSIS/5.4.0/CMSIS/RTOS2/RTX/Source/rtx_lib.h **** // Kernel State
 142:/usr/local/lib/ARM/CMSIS/5.4.0/CMSIS/RTOS2/RTX/Source/rtx_lib.h **** __STATIC_INLINE osKernelState_t osRtxKernelState (void) {
 143:/usr/local/lib/ARM/CMSIS/5.4.0/CMSIS/RTOS2/RTX/Source/rtx_lib.h ****   //lint -e{9030} -e{9034} "cast to enum"
 144:/usr/local/lib/ARM/CMSIS/5.4.0/CMSIS/RTOS2/RTX/Source/rtx_lib.h ****   return ((osKernelState_t)(osRtxInfo.kernel.state));
 145:/usr/local/lib/ARM/CMSIS/5.4.0/CMSIS/RTOS2/RTX/Source/rtx_lib.h **** }
 146:/usr/local/lib/ARM/CMSIS/5.4.0/CMSIS/RTOS2/RTX/Source/rtx_lib.h **** 
 147:/usr/local/lib/ARM/CMSIS/5.4.0/CMSIS/RTOS2/RTX/Source/rtx_lib.h **** // Thread State
 148:/usr/local/lib/ARM/CMSIS/5.4.0/CMSIS/RTOS2/RTX/Source/rtx_lib.h **** __STATIC_INLINE osThreadState_t osRtxThreadState (const os_thread_t *thread) {
 149:/usr/local/lib/ARM/CMSIS/5.4.0/CMSIS/RTOS2/RTX/Source/rtx_lib.h ****   uint8_t state = thread->state & osRtxThreadStateMask;
 150:/usr/local/lib/ARM/CMSIS/5.4.0/CMSIS/RTOS2/RTX/Source/rtx_lib.h ****   //lint -e{9030} -e{9034} "cast to enum"
 151:/usr/local/lib/ARM/CMSIS/5.4.0/CMSIS/RTOS2/RTX/Source/rtx_lib.h ****   return ((osThreadState_t)state);
ARM GAS  /tmp/cc1jQKzY.s 			page 11


 152:/usr/local/lib/ARM/CMSIS/5.4.0/CMSIS/RTOS2/RTX/Source/rtx_lib.h **** }
 153:/usr/local/lib/ARM/CMSIS/5.4.0/CMSIS/RTOS2/RTX/Source/rtx_lib.h **** 
 154:/usr/local/lib/ARM/CMSIS/5.4.0/CMSIS/RTOS2/RTX/Source/rtx_lib.h **** // Thread Priority
 155:/usr/local/lib/ARM/CMSIS/5.4.0/CMSIS/RTOS2/RTX/Source/rtx_lib.h **** __STATIC_INLINE osPriority_t osRtxThreadPriority (const os_thread_t *thread) {
 156:/usr/local/lib/ARM/CMSIS/5.4.0/CMSIS/RTOS2/RTX/Source/rtx_lib.h ****   //lint -e{9030} -e{9034} "cast to enum"
 157:/usr/local/lib/ARM/CMSIS/5.4.0/CMSIS/RTOS2/RTX/Source/rtx_lib.h ****   return ((osPriority_t)thread->priority);
 158:/usr/local/lib/ARM/CMSIS/5.4.0/CMSIS/RTOS2/RTX/Source/rtx_lib.h **** }
 159:/usr/local/lib/ARM/CMSIS/5.4.0/CMSIS/RTOS2/RTX/Source/rtx_lib.h **** 
 160:/usr/local/lib/ARM/CMSIS/5.4.0/CMSIS/RTOS2/RTX/Source/rtx_lib.h **** // Kernel Get State
 161:/usr/local/lib/ARM/CMSIS/5.4.0/CMSIS/RTOS2/RTX/Source/rtx_lib.h **** __STATIC_INLINE uint8_t osRtxKernelGetState (void) {
 162:/usr/local/lib/ARM/CMSIS/5.4.0/CMSIS/RTOS2/RTX/Source/rtx_lib.h ****   return osRtxInfo.kernel.state;
 163:/usr/local/lib/ARM/CMSIS/5.4.0/CMSIS/RTOS2/RTX/Source/rtx_lib.h **** }
 164:/usr/local/lib/ARM/CMSIS/5.4.0/CMSIS/RTOS2/RTX/Source/rtx_lib.h **** 
 165:/usr/local/lib/ARM/CMSIS/5.4.0/CMSIS/RTOS2/RTX/Source/rtx_lib.h **** // Thread Get/Set Running
 166:/usr/local/lib/ARM/CMSIS/5.4.0/CMSIS/RTOS2/RTX/Source/rtx_lib.h **** __STATIC_INLINE os_thread_t *osRtxThreadGetRunning (void) {
 167:/usr/local/lib/ARM/CMSIS/5.4.0/CMSIS/RTOS2/RTX/Source/rtx_lib.h ****   return osRtxInfo.thread.run.curr;
 250              		.loc 2 167 0
 251 0004 354B     		ldr	r3, .L32
 252 0006 5D69     		ldr	r5, [r3, #20]
 253              	.LBE115:
 254              	.LBE114:
 174:/usr/local/lib/ARM/CMSIS/5.4.0/CMSIS/RTOS2/RTX/Source/rtx_mutex.c ****   os_mutex_t  *mutex = osRtxMutexId(mutex_id);
 175:/usr/local/lib/ARM/CMSIS/5.4.0/CMSIS/RTOS2/RTX/Source/rtx_mutex.c ****   os_thread_t *runnig_thread;
 176:/usr/local/lib/ARM/CMSIS/5.4.0/CMSIS/RTOS2/RTX/Source/rtx_mutex.c ****   osStatus_t   status;
 177:/usr/local/lib/ARM/CMSIS/5.4.0/CMSIS/RTOS2/RTX/Source/rtx_mutex.c **** 
 178:/usr/local/lib/ARM/CMSIS/5.4.0/CMSIS/RTOS2/RTX/Source/rtx_mutex.c ****   // Check running thread
 179:/usr/local/lib/ARM/CMSIS/5.4.0/CMSIS/RTOS2/RTX/Source/rtx_mutex.c ****   runnig_thread = osRtxThreadGetRunning();
 180:/usr/local/lib/ARM/CMSIS/5.4.0/CMSIS/RTOS2/RTX/Source/rtx_mutex.c ****   if (runnig_thread == NULL) {
 255              		.loc 1 180 0
 256 0008 35B9     		cbnz	r5, .L20
 181:/usr/local/lib/ARM/CMSIS/5.4.0/CMSIS/RTOS2/RTX/Source/rtx_mutex.c ****     EvrRtxMutexError(mutex, osRtxErrorKernelNotRunning);
 257              		.loc 1 181 0
 258 000a 6FF00701 		mvn	r1, #7
 259              	.LVL30:
 260 000e FFF7FEFF 		bl	EvrRtxMutexError
 261              	.LVL31:
 182:/usr/local/lib/ARM/CMSIS/5.4.0/CMSIS/RTOS2/RTX/Source/rtx_mutex.c ****     //lint -e{904} "Return statement before end of function" [MISRA Note 1]
 183:/usr/local/lib/ARM/CMSIS/5.4.0/CMSIS/RTOS2/RTX/Source/rtx_mutex.c ****     return osError;
 262              		.loc 1 183 0
 263 0012 4FF0FF30 		mov	r0, #-1
 264 0016 70BD     		pop	{r4, r5, r6, pc}
 265              	.LVL32:
 266              	.L20:
 267 0018 0E46     		mov	r6, r1
 184:/usr/local/lib/ARM/CMSIS/5.4.0/CMSIS/RTOS2/RTX/Source/rtx_mutex.c ****   }
 185:/usr/local/lib/ARM/CMSIS/5.4.0/CMSIS/RTOS2/RTX/Source/rtx_mutex.c **** 
 186:/usr/local/lib/ARM/CMSIS/5.4.0/CMSIS/RTOS2/RTX/Source/rtx_mutex.c ****   // Check parameters
 187:/usr/local/lib/ARM/CMSIS/5.4.0/CMSIS/RTOS2/RTX/Source/rtx_mutex.c ****   if ((mutex == NULL) || (mutex->id != osRtxIdMutex)) {
 268              		.loc 1 187 0
 269 001a 10B1     		cbz	r0, .L22
 270              		.loc 1 187 0 is_stmt 0 discriminator 1
 271 001c 0378     		ldrb	r3, [r0]	@ zero_extendqisi2
 272 001e 042B     		cmp	r3, #4
 273 0020 07D0     		beq	.L23
 274              	.L22:
 188:/usr/local/lib/ARM/CMSIS/5.4.0/CMSIS/RTOS2/RTX/Source/rtx_mutex.c ****     EvrRtxMutexError(mutex, (int32_t)osErrorParameter);
 275              		.loc 1 188 0 is_stmt 1
ARM GAS  /tmp/cc1jQKzY.s 			page 12


 276 0022 6FF00301 		mvn	r1, #3
 277              	.LVL33:
 278 0026 2046     		mov	r0, r4
 279              	.LVL34:
 280 0028 FFF7FEFF 		bl	EvrRtxMutexError
 281              	.LVL35:
 189:/usr/local/lib/ARM/CMSIS/5.4.0/CMSIS/RTOS2/RTX/Source/rtx_mutex.c ****     //lint -e{904} "Return statement before end of function" [MISRA Note 1]
 190:/usr/local/lib/ARM/CMSIS/5.4.0/CMSIS/RTOS2/RTX/Source/rtx_mutex.c ****     return osErrorParameter;
 282              		.loc 1 190 0
 283 002c 6FF00300 		mvn	r0, #3
 284 0030 70BD     		pop	{r4, r5, r6, pc}
 285              	.LVL36:
 286              	.L23:
 191:/usr/local/lib/ARM/CMSIS/5.4.0/CMSIS/RTOS2/RTX/Source/rtx_mutex.c ****   }
 192:/usr/local/lib/ARM/CMSIS/5.4.0/CMSIS/RTOS2/RTX/Source/rtx_mutex.c **** 
 193:/usr/local/lib/ARM/CMSIS/5.4.0/CMSIS/RTOS2/RTX/Source/rtx_mutex.c ****   // Check if Mutex is not locked
 194:/usr/local/lib/ARM/CMSIS/5.4.0/CMSIS/RTOS2/RTX/Source/rtx_mutex.c ****   if (mutex->lock == 0U) {
 287              		.loc 1 194 0
 288 0032 037E     		ldrb	r3, [r0, #24]	@ zero_extendqisi2
 289 0034 7BB9     		cbnz	r3, .L24
 195:/usr/local/lib/ARM/CMSIS/5.4.0/CMSIS/RTOS2/RTX/Source/rtx_mutex.c ****     // Acquire Mutex
 196:/usr/local/lib/ARM/CMSIS/5.4.0/CMSIS/RTOS2/RTX/Source/rtx_mutex.c ****     mutex->owner_thread = runnig_thread;
 290              		.loc 1 196 0
 291 0036 C560     		str	r5, [r0, #12]
 197:/usr/local/lib/ARM/CMSIS/5.4.0/CMSIS/RTOS2/RTX/Source/rtx_mutex.c ****     mutex->owner_next   = runnig_thread->mutex_list;
 292              		.loc 1 197 0
 293 0038 EB6A     		ldr	r3, [r5, #44]
 294 003a 4361     		str	r3, [r0, #20]
 198:/usr/local/lib/ARM/CMSIS/5.4.0/CMSIS/RTOS2/RTX/Source/rtx_mutex.c ****     mutex->owner_prev   = NULL;
 295              		.loc 1 198 0
 296 003c 0023     		movs	r3, #0
 297 003e 0361     		str	r3, [r0, #16]
 199:/usr/local/lib/ARM/CMSIS/5.4.0/CMSIS/RTOS2/RTX/Source/rtx_mutex.c ****     if (runnig_thread->mutex_list != NULL) {
 298              		.loc 1 199 0
 299 0040 EB6A     		ldr	r3, [r5, #44]
 300 0042 03B1     		cbz	r3, .L25
 200:/usr/local/lib/ARM/CMSIS/5.4.0/CMSIS/RTOS2/RTX/Source/rtx_mutex.c ****         runnig_thread->mutex_list->owner_prev = mutex;
 301              		.loc 1 200 0
 302 0044 1861     		str	r0, [r3, #16]
 303              	.L25:
 201:/usr/local/lib/ARM/CMSIS/5.4.0/CMSIS/RTOS2/RTX/Source/rtx_mutex.c ****     }
 202:/usr/local/lib/ARM/CMSIS/5.4.0/CMSIS/RTOS2/RTX/Source/rtx_mutex.c ****     runnig_thread->mutex_list = mutex;
 304              		.loc 1 202 0
 305 0046 EC62     		str	r4, [r5, #44]
 203:/usr/local/lib/ARM/CMSIS/5.4.0/CMSIS/RTOS2/RTX/Source/rtx_mutex.c ****     mutex->lock = 1U;
 306              		.loc 1 203 0
 307 0048 0121     		movs	r1, #1
 308              	.LVL37:
 309 004a 2176     		strb	r1, [r4, #24]
 204:/usr/local/lib/ARM/CMSIS/5.4.0/CMSIS/RTOS2/RTX/Source/rtx_mutex.c ****     EvrRtxMutexAcquired(mutex, mutex->lock);
 310              		.loc 1 204 0
 311 004c 2046     		mov	r0, r4
 312              	.LVL38:
 313 004e FFF7FEFF 		bl	EvrRtxMutexAcquired
 314              	.LVL39:
 205:/usr/local/lib/ARM/CMSIS/5.4.0/CMSIS/RTOS2/RTX/Source/rtx_mutex.c ****     status = osOK;
 315              		.loc 1 205 0
ARM GAS  /tmp/cc1jQKzY.s 			page 13


 316 0052 0020     		movs	r0, #0
 317 0054 70BD     		pop	{r4, r5, r6, pc}
 318              	.LVL40:
 319              	.L24:
 206:/usr/local/lib/ARM/CMSIS/5.4.0/CMSIS/RTOS2/RTX/Source/rtx_mutex.c ****   } else {
 207:/usr/local/lib/ARM/CMSIS/5.4.0/CMSIS/RTOS2/RTX/Source/rtx_mutex.c ****     // Check if Mutex is recursive and running Thread is the owner
 208:/usr/local/lib/ARM/CMSIS/5.4.0/CMSIS/RTOS2/RTX/Source/rtx_mutex.c ****     if (((mutex->attr & osMutexRecursive) != 0U) && (mutex->owner_thread == runnig_thread)) {
 320              		.loc 1 208 0
 321 0056 C278     		ldrb	r2, [r0, #3]	@ zero_extendqisi2
 322 0058 12F0010F 		tst	r2, #1
 323 005c 12D0     		beq	.L26
 324              		.loc 1 208 0 is_stmt 0 discriminator 1
 325 005e C168     		ldr	r1, [r0, #12]
 326              	.LVL41:
 327 0060 A942     		cmp	r1, r5
 328 0062 0FD1     		bne	.L26
 209:/usr/local/lib/ARM/CMSIS/5.4.0/CMSIS/RTOS2/RTX/Source/rtx_mutex.c ****       // Try to increment lock counter
 210:/usr/local/lib/ARM/CMSIS/5.4.0/CMSIS/RTOS2/RTX/Source/rtx_mutex.c ****       if (mutex->lock == osRtxMutexLockLimit) {
 329              		.loc 1 210 0 is_stmt 1
 330 0064 FF2B     		cmp	r3, #255
 331 0066 06D1     		bne	.L27
 211:/usr/local/lib/ARM/CMSIS/5.4.0/CMSIS/RTOS2/RTX/Source/rtx_mutex.c ****         EvrRtxMutexError(mutex, osRtxErrorMutexLockLimit);
 332              		.loc 1 211 0
 333 0068 6FF00F01 		mvn	r1, #15
 334 006c FFF7FEFF 		bl	EvrRtxMutexError
 335              	.LVL42:
 212:/usr/local/lib/ARM/CMSIS/5.4.0/CMSIS/RTOS2/RTX/Source/rtx_mutex.c ****         status = osErrorResource;
 336              		.loc 1 212 0
 337 0070 6FF00200 		mvn	r0, #2
 338 0074 70BD     		pop	{r4, r5, r6, pc}
 339              	.LVL43:
 340              	.L27:
 213:/usr/local/lib/ARM/CMSIS/5.4.0/CMSIS/RTOS2/RTX/Source/rtx_mutex.c ****       } else {
 214:/usr/local/lib/ARM/CMSIS/5.4.0/CMSIS/RTOS2/RTX/Source/rtx_mutex.c ****         mutex->lock++;
 341              		.loc 1 214 0
 342 0076 0133     		adds	r3, r3, #1
 343 0078 D9B2     		uxtb	r1, r3
 344 007a 0176     		strb	r1, [r0, #24]
 215:/usr/local/lib/ARM/CMSIS/5.4.0/CMSIS/RTOS2/RTX/Source/rtx_mutex.c ****         EvrRtxMutexAcquired(mutex, mutex->lock);
 345              		.loc 1 215 0
 346 007c FFF7FEFF 		bl	EvrRtxMutexAcquired
 347              	.LVL44:
 216:/usr/local/lib/ARM/CMSIS/5.4.0/CMSIS/RTOS2/RTX/Source/rtx_mutex.c ****         status = osOK;
 348              		.loc 1 216 0
 349 0080 0020     		movs	r0, #0
 350 0082 70BD     		pop	{r4, r5, r6, pc}
 351              	.LVL45:
 352              	.L26:
 217:/usr/local/lib/ARM/CMSIS/5.4.0/CMSIS/RTOS2/RTX/Source/rtx_mutex.c ****       }
 218:/usr/local/lib/ARM/CMSIS/5.4.0/CMSIS/RTOS2/RTX/Source/rtx_mutex.c ****     } else {
 219:/usr/local/lib/ARM/CMSIS/5.4.0/CMSIS/RTOS2/RTX/Source/rtx_mutex.c ****       // Check if timeout is specified
 220:/usr/local/lib/ARM/CMSIS/5.4.0/CMSIS/RTOS2/RTX/Source/rtx_mutex.c ****       if (timeout != 0U) {
 353              		.loc 1 220 0
 354 0084 26B3     		cbz	r6, .L28
 221:/usr/local/lib/ARM/CMSIS/5.4.0/CMSIS/RTOS2/RTX/Source/rtx_mutex.c ****         // Check if Priority inheritance protocol is enabled
 222:/usr/local/lib/ARM/CMSIS/5.4.0/CMSIS/RTOS2/RTX/Source/rtx_mutex.c ****         if ((mutex->attr & osMutexPrioInherit) != 0U) {
 355              		.loc 1 222 0
ARM GAS  /tmp/cc1jQKzY.s 			page 14


 356 0086 12F0020F 		tst	r2, #2
 357 008a 0BD0     		beq	.L29
 223:/usr/local/lib/ARM/CMSIS/5.4.0/CMSIS/RTOS2/RTX/Source/rtx_mutex.c ****           // Raise priority of owner Thread if lower than priority of running Thread
 224:/usr/local/lib/ARM/CMSIS/5.4.0/CMSIS/RTOS2/RTX/Source/rtx_mutex.c ****           if (mutex->owner_thread->priority < runnig_thread->priority) {
 358              		.loc 1 224 0
 359 008c E368     		ldr	r3, [r4, #12]
 360 008e 93F92010 		ldrsb	r1, [r3, #32]
 361 0092 95F92020 		ldrsb	r2, [r5, #32]
 362 0096 9142     		cmp	r1, r2
 363 0098 04DA     		bge	.L29
 225:/usr/local/lib/ARM/CMSIS/5.4.0/CMSIS/RTOS2/RTX/Source/rtx_mutex.c ****             mutex->owner_thread->priority = runnig_thread->priority;
 364              		.loc 1 225 0
 365 009a 83F82020 		strb	r2, [r3, #32]
 226:/usr/local/lib/ARM/CMSIS/5.4.0/CMSIS/RTOS2/RTX/Source/rtx_mutex.c ****             osRtxThreadListSort(mutex->owner_thread);
 366              		.loc 1 226 0
 367 009e E068     		ldr	r0, [r4, #12]
 368              	.LVL46:
 369 00a0 FFF7FEFF 		bl	osRtxThreadListSort
 370              	.LVL47:
 371              	.L29:
 227:/usr/local/lib/ARM/CMSIS/5.4.0/CMSIS/RTOS2/RTX/Source/rtx_mutex.c ****           }
 228:/usr/local/lib/ARM/CMSIS/5.4.0/CMSIS/RTOS2/RTX/Source/rtx_mutex.c ****         }
 229:/usr/local/lib/ARM/CMSIS/5.4.0/CMSIS/RTOS2/RTX/Source/rtx_mutex.c ****         EvrRtxMutexAcquirePending(mutex, timeout);
 372              		.loc 1 229 0
 373 00a4 3146     		mov	r1, r6
 374 00a6 2046     		mov	r0, r4
 375 00a8 FFF7FEFF 		bl	EvrRtxMutexAcquirePending
 376              	.LVL48:
 230:/usr/local/lib/ARM/CMSIS/5.4.0/CMSIS/RTOS2/RTX/Source/rtx_mutex.c ****         // Suspend current Thread
 231:/usr/local/lib/ARM/CMSIS/5.4.0/CMSIS/RTOS2/RTX/Source/rtx_mutex.c ****         if (osRtxThreadWaitEnter(osRtxThreadWaitingMutex, timeout)) {
 377              		.loc 1 231 0
 378 00ac 3146     		mov	r1, r6
 379 00ae 5320     		movs	r0, #83
 380 00b0 FFF7FEFF 		bl	osRtxThreadWaitEnter
 381              	.LVL49:
 382 00b4 30B1     		cbz	r0, .L30
 232:/usr/local/lib/ARM/CMSIS/5.4.0/CMSIS/RTOS2/RTX/Source/rtx_mutex.c ****           osRtxThreadListPut(osRtxObject(mutex), runnig_thread);
 383              		.loc 1 232 0
 384 00b6 2946     		mov	r1, r5
 385 00b8 2046     		mov	r0, r4
 386 00ba FFF7FEFF 		bl	osRtxThreadListPut
 387              	.LVL50:
 233:/usr/local/lib/ARM/CMSIS/5.4.0/CMSIS/RTOS2/RTX/Source/rtx_mutex.c ****         } else {
 234:/usr/local/lib/ARM/CMSIS/5.4.0/CMSIS/RTOS2/RTX/Source/rtx_mutex.c ****           EvrRtxMutexAcquireTimeout(mutex);
 235:/usr/local/lib/ARM/CMSIS/5.4.0/CMSIS/RTOS2/RTX/Source/rtx_mutex.c ****         }
 236:/usr/local/lib/ARM/CMSIS/5.4.0/CMSIS/RTOS2/RTX/Source/rtx_mutex.c ****         status = osErrorTimeout;
 388              		.loc 1 236 0
 389 00be 6FF00100 		mvn	r0, #1
 390 00c2 70BD     		pop	{r4, r5, r6, pc}
 391              	.LVL51:
 392              	.L30:
 234:/usr/local/lib/ARM/CMSIS/5.4.0/CMSIS/RTOS2/RTX/Source/rtx_mutex.c ****         }
 393              		.loc 1 234 0
 394 00c4 2046     		mov	r0, r4
 395 00c6 FFF7FEFF 		bl	EvrRtxMutexAcquireTimeout
 396              	.LVL52:
 397              		.loc 1 236 0
ARM GAS  /tmp/cc1jQKzY.s 			page 15


 398 00ca 6FF00100 		mvn	r0, #1
 399 00ce 70BD     		pop	{r4, r5, r6, pc}
 400              	.LVL53:
 401              	.L28:
 237:/usr/local/lib/ARM/CMSIS/5.4.0/CMSIS/RTOS2/RTX/Source/rtx_mutex.c ****       } else {
 238:/usr/local/lib/ARM/CMSIS/5.4.0/CMSIS/RTOS2/RTX/Source/rtx_mutex.c ****         EvrRtxMutexNotAcquired(mutex);
 402              		.loc 1 238 0
 403 00d0 2046     		mov	r0, r4
 404              	.LVL54:
 405 00d2 FFF7FEFF 		bl	EvrRtxMutexNotAcquired
 406              	.LVL55:
 239:/usr/local/lib/ARM/CMSIS/5.4.0/CMSIS/RTOS2/RTX/Source/rtx_mutex.c ****         status = osErrorResource;
 407              		.loc 1 239 0
 408 00d6 6FF00200 		mvn	r0, #2
 240:/usr/local/lib/ARM/CMSIS/5.4.0/CMSIS/RTOS2/RTX/Source/rtx_mutex.c ****       }
 241:/usr/local/lib/ARM/CMSIS/5.4.0/CMSIS/RTOS2/RTX/Source/rtx_mutex.c ****     }
 242:/usr/local/lib/ARM/CMSIS/5.4.0/CMSIS/RTOS2/RTX/Source/rtx_mutex.c ****   }
 243:/usr/local/lib/ARM/CMSIS/5.4.0/CMSIS/RTOS2/RTX/Source/rtx_mutex.c **** 
 244:/usr/local/lib/ARM/CMSIS/5.4.0/CMSIS/RTOS2/RTX/Source/rtx_mutex.c ****   return status;
 245:/usr/local/lib/ARM/CMSIS/5.4.0/CMSIS/RTOS2/RTX/Source/rtx_mutex.c **** }
 409              		.loc 1 245 0
 410 00da 70BD     		pop	{r4, r5, r6, pc}
 411              	.LVL56:
 412              	.L33:
 413              		.align	2
 414              	.L32:
 415 00dc 00000000 		.word	osRtxInfo
 416              		.cfi_endproc
 417              	.LFE177:
 419              		.section	.text.svcRtxMutexRelease,"ax",%progbits
 420              		.align	2
 421              		.thumb
 422              		.thumb_func
 424              	svcRtxMutexRelease:
 425              	.LFB178:
 246:/usr/local/lib/ARM/CMSIS/5.4.0/CMSIS/RTOS2/RTX/Source/rtx_mutex.c **** 
 247:/usr/local/lib/ARM/CMSIS/5.4.0/CMSIS/RTOS2/RTX/Source/rtx_mutex.c **** /// Release a Mutex that was acquired by osMutexAcquire.
 248:/usr/local/lib/ARM/CMSIS/5.4.0/CMSIS/RTOS2/RTX/Source/rtx_mutex.c **** /// \note API identical to osMutexRelease
 249:/usr/local/lib/ARM/CMSIS/5.4.0/CMSIS/RTOS2/RTX/Source/rtx_mutex.c **** static osStatus_t svcRtxMutexRelease (osMutexId_t mutex_id) {
 426              		.loc 1 249 0
 427              		.cfi_startproc
 428              		@ args = 0, pretend = 0, frame = 0
 429              		@ frame_needed = 0, uses_anonymous_args = 0
 430              	.LVL57:
 431 0000 38B5     		push	{r3, r4, r5, lr}
 432              	.LCFI3:
 433              		.cfi_def_cfa_offset 16
 434              		.cfi_offset 3, -16
 435              		.cfi_offset 4, -12
 436              		.cfi_offset 5, -8
 437              		.cfi_offset 14, -4
 438 0002 0446     		mov	r4, r0
 439              	.LBB116:
 440              	.LBB117:
 441              		.loc 2 167 0
 442 0004 354B     		ldr	r3, .L52
 443 0006 5D69     		ldr	r5, [r3, #20]
ARM GAS  /tmp/cc1jQKzY.s 			page 16


 444              	.LBE117:
 445              	.LBE116:
 250:/usr/local/lib/ARM/CMSIS/5.4.0/CMSIS/RTOS2/RTX/Source/rtx_mutex.c ****         os_mutex_t  *mutex = osRtxMutexId(mutex_id);
 251:/usr/local/lib/ARM/CMSIS/5.4.0/CMSIS/RTOS2/RTX/Source/rtx_mutex.c ****   const os_mutex_t  *mutex0;
 252:/usr/local/lib/ARM/CMSIS/5.4.0/CMSIS/RTOS2/RTX/Source/rtx_mutex.c ****         os_thread_t *thread;
 253:/usr/local/lib/ARM/CMSIS/5.4.0/CMSIS/RTOS2/RTX/Source/rtx_mutex.c ****         os_thread_t *runnig_thread;
 254:/usr/local/lib/ARM/CMSIS/5.4.0/CMSIS/RTOS2/RTX/Source/rtx_mutex.c ****         int8_t       priority;
 255:/usr/local/lib/ARM/CMSIS/5.4.0/CMSIS/RTOS2/RTX/Source/rtx_mutex.c **** 
 256:/usr/local/lib/ARM/CMSIS/5.4.0/CMSIS/RTOS2/RTX/Source/rtx_mutex.c ****   // Check running thread
 257:/usr/local/lib/ARM/CMSIS/5.4.0/CMSIS/RTOS2/RTX/Source/rtx_mutex.c ****   runnig_thread = osRtxThreadGetRunning();
 258:/usr/local/lib/ARM/CMSIS/5.4.0/CMSIS/RTOS2/RTX/Source/rtx_mutex.c ****   if (runnig_thread == NULL) {
 446              		.loc 1 258 0
 447 0008 35B9     		cbnz	r5, .L35
 259:/usr/local/lib/ARM/CMSIS/5.4.0/CMSIS/RTOS2/RTX/Source/rtx_mutex.c ****     EvrRtxMutexError(mutex, osRtxErrorKernelNotRunning);
 448              		.loc 1 259 0
 449 000a 6FF00701 		mvn	r1, #7
 450 000e FFF7FEFF 		bl	EvrRtxMutexError
 451              	.LVL58:
 260:/usr/local/lib/ARM/CMSIS/5.4.0/CMSIS/RTOS2/RTX/Source/rtx_mutex.c ****     //lint -e{904} "Return statement before end of function" [MISRA Note 1]
 261:/usr/local/lib/ARM/CMSIS/5.4.0/CMSIS/RTOS2/RTX/Source/rtx_mutex.c ****     return osError;
 452              		.loc 1 261 0
 453 0012 4FF0FF30 		mov	r0, #-1
 454 0016 38BD     		pop	{r3, r4, r5, pc}
 455              	.LVL59:
 456              	.L35:
 262:/usr/local/lib/ARM/CMSIS/5.4.0/CMSIS/RTOS2/RTX/Source/rtx_mutex.c ****   }
 263:/usr/local/lib/ARM/CMSIS/5.4.0/CMSIS/RTOS2/RTX/Source/rtx_mutex.c **** 
 264:/usr/local/lib/ARM/CMSIS/5.4.0/CMSIS/RTOS2/RTX/Source/rtx_mutex.c ****   // Check parameters
 265:/usr/local/lib/ARM/CMSIS/5.4.0/CMSIS/RTOS2/RTX/Source/rtx_mutex.c ****   if ((mutex == NULL) || (mutex->id != osRtxIdMutex)) {
 457              		.loc 1 265 0
 458 0018 10B1     		cbz	r0, .L37
 459              		.loc 1 265 0 is_stmt 0 discriminator 1
 460 001a 0378     		ldrb	r3, [r0]	@ zero_extendqisi2
 461 001c 042B     		cmp	r3, #4
 462 001e 07D0     		beq	.L38
 463              	.L37:
 266:/usr/local/lib/ARM/CMSIS/5.4.0/CMSIS/RTOS2/RTX/Source/rtx_mutex.c ****     EvrRtxMutexError(mutex, (int32_t)osErrorParameter);
 464              		.loc 1 266 0 is_stmt 1
 465 0020 6FF00301 		mvn	r1, #3
 466 0024 2046     		mov	r0, r4
 467              	.LVL60:
 468 0026 FFF7FEFF 		bl	EvrRtxMutexError
 469              	.LVL61:
 267:/usr/local/lib/ARM/CMSIS/5.4.0/CMSIS/RTOS2/RTX/Source/rtx_mutex.c ****     //lint -e{904} "Return statement before end of function" [MISRA Note 1]
 268:/usr/local/lib/ARM/CMSIS/5.4.0/CMSIS/RTOS2/RTX/Source/rtx_mutex.c ****     return osErrorParameter;
 470              		.loc 1 268 0
 471 002a 6FF00300 		mvn	r0, #3
 472 002e 38BD     		pop	{r3, r4, r5, pc}
 473              	.LVL62:
 474              	.L38:
 269:/usr/local/lib/ARM/CMSIS/5.4.0/CMSIS/RTOS2/RTX/Source/rtx_mutex.c ****   }
 270:/usr/local/lib/ARM/CMSIS/5.4.0/CMSIS/RTOS2/RTX/Source/rtx_mutex.c **** 
 271:/usr/local/lib/ARM/CMSIS/5.4.0/CMSIS/RTOS2/RTX/Source/rtx_mutex.c ****   // Check if Mutex is not locked
 272:/usr/local/lib/ARM/CMSIS/5.4.0/CMSIS/RTOS2/RTX/Source/rtx_mutex.c ****   if (mutex->lock == 0U) {
 475              		.loc 1 272 0
 476 0030 017E     		ldrb	r1, [r0, #24]	@ zero_extendqisi2
 477 0032 31B9     		cbnz	r1, .L39
ARM GAS  /tmp/cc1jQKzY.s 			page 17


 273:/usr/local/lib/ARM/CMSIS/5.4.0/CMSIS/RTOS2/RTX/Source/rtx_mutex.c ****     EvrRtxMutexError(mutex, osRtxErrorMutexNotLocked);
 478              		.loc 1 273 0
 479 0034 6FF00E01 		mvn	r1, #14
 480 0038 FFF7FEFF 		bl	EvrRtxMutexError
 481              	.LVL63:
 274:/usr/local/lib/ARM/CMSIS/5.4.0/CMSIS/RTOS2/RTX/Source/rtx_mutex.c ****     //lint -e{904} "Return statement before end of function" [MISRA Note 1]
 275:/usr/local/lib/ARM/CMSIS/5.4.0/CMSIS/RTOS2/RTX/Source/rtx_mutex.c ****     return osErrorResource;
 482              		.loc 1 275 0
 483 003c 6FF00200 		mvn	r0, #2
 484 0040 38BD     		pop	{r3, r4, r5, pc}
 485              	.LVL64:
 486              	.L39:
 276:/usr/local/lib/ARM/CMSIS/5.4.0/CMSIS/RTOS2/RTX/Source/rtx_mutex.c ****   }
 277:/usr/local/lib/ARM/CMSIS/5.4.0/CMSIS/RTOS2/RTX/Source/rtx_mutex.c **** 
 278:/usr/local/lib/ARM/CMSIS/5.4.0/CMSIS/RTOS2/RTX/Source/rtx_mutex.c ****   // Check if running Thread is not the owner
 279:/usr/local/lib/ARM/CMSIS/5.4.0/CMSIS/RTOS2/RTX/Source/rtx_mutex.c ****   if (mutex->owner_thread != runnig_thread) {
 487              		.loc 1 279 0
 488 0042 C368     		ldr	r3, [r0, #12]
 489 0044 AB42     		cmp	r3, r5
 490 0046 06D0     		beq	.L40
 280:/usr/local/lib/ARM/CMSIS/5.4.0/CMSIS/RTOS2/RTX/Source/rtx_mutex.c ****     EvrRtxMutexError(mutex, osRtxErrorMutexNotOwned);
 491              		.loc 1 280 0
 492 0048 6FF00D01 		mvn	r1, #13
 493 004c FFF7FEFF 		bl	EvrRtxMutexError
 494              	.LVL65:
 281:/usr/local/lib/ARM/CMSIS/5.4.0/CMSIS/RTOS2/RTX/Source/rtx_mutex.c ****     //lint -e{904} "Return statement before end of function" [MISRA Note 1]
 282:/usr/local/lib/ARM/CMSIS/5.4.0/CMSIS/RTOS2/RTX/Source/rtx_mutex.c ****     return osErrorResource;
 495              		.loc 1 282 0
 496 0050 6FF00200 		mvn	r0, #2
 497 0054 38BD     		pop	{r3, r4, r5, pc}
 498              	.LVL66:
 499              	.L40:
 283:/usr/local/lib/ARM/CMSIS/5.4.0/CMSIS/RTOS2/RTX/Source/rtx_mutex.c ****   }
 284:/usr/local/lib/ARM/CMSIS/5.4.0/CMSIS/RTOS2/RTX/Source/rtx_mutex.c **** 
 285:/usr/local/lib/ARM/CMSIS/5.4.0/CMSIS/RTOS2/RTX/Source/rtx_mutex.c ****   // Decrement Lock counter
 286:/usr/local/lib/ARM/CMSIS/5.4.0/CMSIS/RTOS2/RTX/Source/rtx_mutex.c ****   mutex->lock--;
 500              		.loc 1 286 0
 501 0056 0139     		subs	r1, r1, #1
 502 0058 C9B2     		uxtb	r1, r1
 503 005a 0176     		strb	r1, [r0, #24]
 287:/usr/local/lib/ARM/CMSIS/5.4.0/CMSIS/RTOS2/RTX/Source/rtx_mutex.c ****   EvrRtxMutexReleased(mutex, mutex->lock);
 504              		.loc 1 287 0
 505 005c FFF7FEFF 		bl	EvrRtxMutexReleased
 506              	.LVL67:
 288:/usr/local/lib/ARM/CMSIS/5.4.0/CMSIS/RTOS2/RTX/Source/rtx_mutex.c **** 
 289:/usr/local/lib/ARM/CMSIS/5.4.0/CMSIS/RTOS2/RTX/Source/rtx_mutex.c ****   // Check Lock counter
 290:/usr/local/lib/ARM/CMSIS/5.4.0/CMSIS/RTOS2/RTX/Source/rtx_mutex.c ****   if (mutex->lock == 0U) {
 507              		.loc 1 290 0
 508 0060 237E     		ldrb	r3, [r4, #24]	@ zero_extendqisi2
 509 0062 002B     		cmp	r3, #0
 510 0064 38D1     		bne	.L49
 291:/usr/local/lib/ARM/CMSIS/5.4.0/CMSIS/RTOS2/RTX/Source/rtx_mutex.c **** 
 292:/usr/local/lib/ARM/CMSIS/5.4.0/CMSIS/RTOS2/RTX/Source/rtx_mutex.c ****     // Remove Mutex from Thread owner list
 293:/usr/local/lib/ARM/CMSIS/5.4.0/CMSIS/RTOS2/RTX/Source/rtx_mutex.c ****     if (mutex->owner_next != NULL) {
 511              		.loc 1 293 0
 512 0066 6369     		ldr	r3, [r4, #20]
 513 0068 0BB1     		cbz	r3, .L41
ARM GAS  /tmp/cc1jQKzY.s 			page 18


 294:/usr/local/lib/ARM/CMSIS/5.4.0/CMSIS/RTOS2/RTX/Source/rtx_mutex.c ****       mutex->owner_next->owner_prev = mutex->owner_prev;
 514              		.loc 1 294 0
 515 006a 2269     		ldr	r2, [r4, #16]
 516 006c 1A61     		str	r2, [r3, #16]
 517              	.L41:
 295:/usr/local/lib/ARM/CMSIS/5.4.0/CMSIS/RTOS2/RTX/Source/rtx_mutex.c ****     }
 296:/usr/local/lib/ARM/CMSIS/5.4.0/CMSIS/RTOS2/RTX/Source/rtx_mutex.c ****     if (mutex->owner_prev != NULL) {
 518              		.loc 1 296 0
 519 006e 2369     		ldr	r3, [r4, #16]
 520 0070 13B1     		cbz	r3, .L42
 297:/usr/local/lib/ARM/CMSIS/5.4.0/CMSIS/RTOS2/RTX/Source/rtx_mutex.c ****       mutex->owner_prev->owner_next = mutex->owner_next;
 521              		.loc 1 297 0
 522 0072 6269     		ldr	r2, [r4, #20]
 523 0074 5A61     		str	r2, [r3, #20]
 524 0076 01E0     		b	.L43
 525              	.L42:
 298:/usr/local/lib/ARM/CMSIS/5.4.0/CMSIS/RTOS2/RTX/Source/rtx_mutex.c ****     } else {
 299:/usr/local/lib/ARM/CMSIS/5.4.0/CMSIS/RTOS2/RTX/Source/rtx_mutex.c ****       runnig_thread->mutex_list = mutex->owner_next;
 526              		.loc 1 299 0
 527 0078 6369     		ldr	r3, [r4, #20]
 528 007a EB62     		str	r3, [r5, #44]
 529              	.L43:
 300:/usr/local/lib/ARM/CMSIS/5.4.0/CMSIS/RTOS2/RTX/Source/rtx_mutex.c ****     }
 301:/usr/local/lib/ARM/CMSIS/5.4.0/CMSIS/RTOS2/RTX/Source/rtx_mutex.c **** 
 302:/usr/local/lib/ARM/CMSIS/5.4.0/CMSIS/RTOS2/RTX/Source/rtx_mutex.c ****     // Restore running Thread priority
 303:/usr/local/lib/ARM/CMSIS/5.4.0/CMSIS/RTOS2/RTX/Source/rtx_mutex.c ****     if ((mutex->attr & osMutexPrioInherit) != 0U) {
 530              		.loc 1 303 0
 531 007c E378     		ldrb	r3, [r4, #3]	@ zero_extendqisi2
 532 007e 13F0020F 		tst	r3, #2
 533 0082 0FD0     		beq	.L44
 304:/usr/local/lib/ARM/CMSIS/5.4.0/CMSIS/RTOS2/RTX/Source/rtx_mutex.c ****       priority = runnig_thread->priority_base;
 534              		.loc 1 304 0
 535 0084 95F92110 		ldrsb	r1, [r5, #33]
 536              	.LVL68:
 305:/usr/local/lib/ARM/CMSIS/5.4.0/CMSIS/RTOS2/RTX/Source/rtx_mutex.c ****       mutex0   = runnig_thread->mutex_list;
 537              		.loc 1 305 0
 538 0088 EB6A     		ldr	r3, [r5, #44]
 539              	.LVL69:
 306:/usr/local/lib/ARM/CMSIS/5.4.0/CMSIS/RTOS2/RTX/Source/rtx_mutex.c ****       while (mutex0 != NULL) {
 540              		.loc 1 306 0
 541 008a 07E0     		b	.L45
 542              	.L47:
 307:/usr/local/lib/ARM/CMSIS/5.4.0/CMSIS/RTOS2/RTX/Source/rtx_mutex.c ****         // Mutexes owned by running Thread
 308:/usr/local/lib/ARM/CMSIS/5.4.0/CMSIS/RTOS2/RTX/Source/rtx_mutex.c ****         if ((mutex0->thread_list != NULL) && (mutex0->thread_list->priority > priority)) {
 543              		.loc 1 308 0
 544 008c 9A68     		ldr	r2, [r3, #8]
 545 008e 22B1     		cbz	r2, .L46
 546              		.loc 1 308 0 is_stmt 0 discriminator 1
 547 0090 92F92020 		ldrsb	r2, [r2, #32]
 548 0094 9142     		cmp	r1, r2
 549 0096 00DA     		bge	.L46
 309:/usr/local/lib/ARM/CMSIS/5.4.0/CMSIS/RTOS2/RTX/Source/rtx_mutex.c ****           // Higher priority Thread is waiting for Mutex
 310:/usr/local/lib/ARM/CMSIS/5.4.0/CMSIS/RTOS2/RTX/Source/rtx_mutex.c ****           priority = mutex0->thread_list->priority;
 550              		.loc 1 310 0 is_stmt 1
 551 0098 1146     		mov	r1, r2
 552              	.LVL70:
 553              	.L46:
ARM GAS  /tmp/cc1jQKzY.s 			page 19


 311:/usr/local/lib/ARM/CMSIS/5.4.0/CMSIS/RTOS2/RTX/Source/rtx_mutex.c ****         }
 312:/usr/local/lib/ARM/CMSIS/5.4.0/CMSIS/RTOS2/RTX/Source/rtx_mutex.c ****         mutex0 = mutex0->owner_next;
 554              		.loc 1 312 0
 555 009a 5B69     		ldr	r3, [r3, #20]
 556              	.LVL71:
 557              	.L45:
 306:/usr/local/lib/ARM/CMSIS/5.4.0/CMSIS/RTOS2/RTX/Source/rtx_mutex.c ****         // Mutexes owned by running Thread
 558              		.loc 1 306 0
 559 009c 002B     		cmp	r3, #0
 560 009e F5D1     		bne	.L47
 313:/usr/local/lib/ARM/CMSIS/5.4.0/CMSIS/RTOS2/RTX/Source/rtx_mutex.c ****       }
 314:/usr/local/lib/ARM/CMSIS/5.4.0/CMSIS/RTOS2/RTX/Source/rtx_mutex.c ****       runnig_thread->priority = priority;
 561              		.loc 1 314 0
 562 00a0 85F82010 		strb	r1, [r5, #32]
 563              	.LVL72:
 564              	.L44:
 315:/usr/local/lib/ARM/CMSIS/5.4.0/CMSIS/RTOS2/RTX/Source/rtx_mutex.c ****     }
 316:/usr/local/lib/ARM/CMSIS/5.4.0/CMSIS/RTOS2/RTX/Source/rtx_mutex.c **** 
 317:/usr/local/lib/ARM/CMSIS/5.4.0/CMSIS/RTOS2/RTX/Source/rtx_mutex.c ****     // Check if Thread is waiting for a Mutex
 318:/usr/local/lib/ARM/CMSIS/5.4.0/CMSIS/RTOS2/RTX/Source/rtx_mutex.c ****     if (mutex->thread_list != NULL) {
 565              		.loc 1 318 0
 566 00a4 A368     		ldr	r3, [r4, #8]
 567 00a6 93B1     		cbz	r3, .L48
 319:/usr/local/lib/ARM/CMSIS/5.4.0/CMSIS/RTOS2/RTX/Source/rtx_mutex.c ****       // Wakeup waiting Thread with highest Priority
 320:/usr/local/lib/ARM/CMSIS/5.4.0/CMSIS/RTOS2/RTX/Source/rtx_mutex.c ****       thread = osRtxThreadListGet(osRtxObject(mutex));
 568              		.loc 1 320 0
 569 00a8 2046     		mov	r0, r4
 570 00aa FFF7FEFF 		bl	osRtxThreadListGet
 571              	.LVL73:
 572 00ae 0546     		mov	r5, r0
 573              	.LVL74:
 321:/usr/local/lib/ARM/CMSIS/5.4.0/CMSIS/RTOS2/RTX/Source/rtx_mutex.c ****       osRtxThreadWaitExit(thread, (uint32_t)osOK, FALSE);
 574              		.loc 1 321 0
 575 00b0 0022     		movs	r2, #0
 576 00b2 1146     		mov	r1, r2
 577 00b4 FFF7FEFF 		bl	osRtxThreadWaitExit
 578              	.LVL75:
 322:/usr/local/lib/ARM/CMSIS/5.4.0/CMSIS/RTOS2/RTX/Source/rtx_mutex.c ****       // Thread is the new Mutex owner
 323:/usr/local/lib/ARM/CMSIS/5.4.0/CMSIS/RTOS2/RTX/Source/rtx_mutex.c ****       mutex->owner_thread = thread;
 579              		.loc 1 323 0
 580 00b8 E560     		str	r5, [r4, #12]
 324:/usr/local/lib/ARM/CMSIS/5.4.0/CMSIS/RTOS2/RTX/Source/rtx_mutex.c ****       mutex->owner_next   = thread->mutex_list;
 581              		.loc 1 324 0
 582 00ba EB6A     		ldr	r3, [r5, #44]
 583 00bc 6361     		str	r3, [r4, #20]
 325:/usr/local/lib/ARM/CMSIS/5.4.0/CMSIS/RTOS2/RTX/Source/rtx_mutex.c ****       mutex->owner_prev   = NULL;
 584              		.loc 1 325 0
 585 00be 0023     		movs	r3, #0
 586 00c0 2361     		str	r3, [r4, #16]
 326:/usr/local/lib/ARM/CMSIS/5.4.0/CMSIS/RTOS2/RTX/Source/rtx_mutex.c ****       thread->mutex_list  = mutex;
 587              		.loc 1 326 0
 588 00c2 EC62     		str	r4, [r5, #44]
 327:/usr/local/lib/ARM/CMSIS/5.4.0/CMSIS/RTOS2/RTX/Source/rtx_mutex.c ****       mutex->lock = 1U;
 589              		.loc 1 327 0
 590 00c4 0121     		movs	r1, #1
 591 00c6 2176     		strb	r1, [r4, #24]
 328:/usr/local/lib/ARM/CMSIS/5.4.0/CMSIS/RTOS2/RTX/Source/rtx_mutex.c ****       EvrRtxMutexAcquired(mutex, 1U);
ARM GAS  /tmp/cc1jQKzY.s 			page 20


 592              		.loc 1 328 0
 593 00c8 2046     		mov	r0, r4
 594 00ca FFF7FEFF 		bl	EvrRtxMutexAcquired
 595              	.LVL76:
 596              	.L48:
 329:/usr/local/lib/ARM/CMSIS/5.4.0/CMSIS/RTOS2/RTX/Source/rtx_mutex.c ****     }
 330:/usr/local/lib/ARM/CMSIS/5.4.0/CMSIS/RTOS2/RTX/Source/rtx_mutex.c **** 
 331:/usr/local/lib/ARM/CMSIS/5.4.0/CMSIS/RTOS2/RTX/Source/rtx_mutex.c ****     osRtxThreadDispatch(NULL);
 597              		.loc 1 331 0
 598 00ce 0020     		movs	r0, #0
 599 00d0 FFF7FEFF 		bl	osRtxThreadDispatch
 600              	.LVL77:
 332:/usr/local/lib/ARM/CMSIS/5.4.0/CMSIS/RTOS2/RTX/Source/rtx_mutex.c ****   }
 333:/usr/local/lib/ARM/CMSIS/5.4.0/CMSIS/RTOS2/RTX/Source/rtx_mutex.c **** 
 334:/usr/local/lib/ARM/CMSIS/5.4.0/CMSIS/RTOS2/RTX/Source/rtx_mutex.c ****   return osOK;
 601              		.loc 1 334 0
 602 00d4 0020     		movs	r0, #0
 603 00d6 38BD     		pop	{r3, r4, r5, pc}
 604              	.LVL78:
 605              	.L49:
 606 00d8 0020     		movs	r0, #0
 335:/usr/local/lib/ARM/CMSIS/5.4.0/CMSIS/RTOS2/RTX/Source/rtx_mutex.c **** }
 607              		.loc 1 335 0
 608 00da 38BD     		pop	{r3, r4, r5, pc}
 609              	.LVL79:
 610              	.L53:
 611              		.align	2
 612              	.L52:
 613 00dc 00000000 		.word	osRtxInfo
 614              		.cfi_endproc
 615              	.LFE178:
 617              		.section	.text.svcRtxMutexGetOwner,"ax",%progbits
 618              		.align	2
 619              		.thumb
 620              		.thumb_func
 622              	svcRtxMutexGetOwner:
 623              	.LFB179:
 336:/usr/local/lib/ARM/CMSIS/5.4.0/CMSIS/RTOS2/RTX/Source/rtx_mutex.c **** 
 337:/usr/local/lib/ARM/CMSIS/5.4.0/CMSIS/RTOS2/RTX/Source/rtx_mutex.c **** /// Get Thread which owns a Mutex object.
 338:/usr/local/lib/ARM/CMSIS/5.4.0/CMSIS/RTOS2/RTX/Source/rtx_mutex.c **** /// \note API identical to osMutexGetOwner
 339:/usr/local/lib/ARM/CMSIS/5.4.0/CMSIS/RTOS2/RTX/Source/rtx_mutex.c **** static osThreadId_t svcRtxMutexGetOwner (osMutexId_t mutex_id) {
 624              		.loc 1 339 0
 625              		.cfi_startproc
 626              		@ args = 0, pretend = 0, frame = 0
 627              		@ frame_needed = 0, uses_anonymous_args = 0
 628              	.LVL80:
 629 0000 10B5     		push	{r4, lr}
 630              	.LCFI4:
 631              		.cfi_def_cfa_offset 8
 632              		.cfi_offset 4, -8
 633              		.cfi_offset 14, -4
 340:/usr/local/lib/ARM/CMSIS/5.4.0/CMSIS/RTOS2/RTX/Source/rtx_mutex.c ****   os_mutex_t *mutex = osRtxMutexId(mutex_id);
 341:/usr/local/lib/ARM/CMSIS/5.4.0/CMSIS/RTOS2/RTX/Source/rtx_mutex.c **** 
 342:/usr/local/lib/ARM/CMSIS/5.4.0/CMSIS/RTOS2/RTX/Source/rtx_mutex.c ****   // Check parameters
 343:/usr/local/lib/ARM/CMSIS/5.4.0/CMSIS/RTOS2/RTX/Source/rtx_mutex.c ****   if ((mutex == NULL) || (mutex->id != osRtxIdMutex)) {
 634              		.loc 1 343 0
 635 0002 0446     		mov	r4, r0
ARM GAS  /tmp/cc1jQKzY.s 			page 21


 636 0004 10B1     		cbz	r0, .L55
 637              		.loc 1 343 0 is_stmt 0 discriminator 1
 638 0006 0378     		ldrb	r3, [r0]	@ zero_extendqisi2
 639 0008 042B     		cmp	r3, #4
 640 000a 05D0     		beq	.L56
 641              	.L55:
 344:/usr/local/lib/ARM/CMSIS/5.4.0/CMSIS/RTOS2/RTX/Source/rtx_mutex.c ****     EvrRtxMutexGetOwner(mutex, NULL);
 642              		.loc 1 344 0 is_stmt 1
 643 000c 0021     		movs	r1, #0
 644 000e 2046     		mov	r0, r4
 645              	.LVL81:
 646 0010 FFF7FEFF 		bl	EvrRtxMutexGetOwner
 647              	.LVL82:
 345:/usr/local/lib/ARM/CMSIS/5.4.0/CMSIS/RTOS2/RTX/Source/rtx_mutex.c ****     //lint -e{904} "Return statement before end of function" [MISRA Note 1]
 346:/usr/local/lib/ARM/CMSIS/5.4.0/CMSIS/RTOS2/RTX/Source/rtx_mutex.c ****     return NULL;
 648              		.loc 1 346 0
 649 0014 0020     		movs	r0, #0
 650 0016 10BD     		pop	{r4, pc}
 651              	.LVL83:
 652              	.L56:
 347:/usr/local/lib/ARM/CMSIS/5.4.0/CMSIS/RTOS2/RTX/Source/rtx_mutex.c ****   }
 348:/usr/local/lib/ARM/CMSIS/5.4.0/CMSIS/RTOS2/RTX/Source/rtx_mutex.c **** 
 349:/usr/local/lib/ARM/CMSIS/5.4.0/CMSIS/RTOS2/RTX/Source/rtx_mutex.c ****   // Check if Mutex is not locked
 350:/usr/local/lib/ARM/CMSIS/5.4.0/CMSIS/RTOS2/RTX/Source/rtx_mutex.c ****   if (mutex->lock == 0U) {
 653              		.loc 1 350 0
 654 0018 037E     		ldrb	r3, [r0, #24]	@ zero_extendqisi2
 655 001a 23B9     		cbnz	r3, .L58
 351:/usr/local/lib/ARM/CMSIS/5.4.0/CMSIS/RTOS2/RTX/Source/rtx_mutex.c ****     EvrRtxMutexGetOwner(mutex, NULL);
 656              		.loc 1 351 0
 657 001c 0021     		movs	r1, #0
 658 001e FFF7FEFF 		bl	EvrRtxMutexGetOwner
 659              	.LVL84:
 352:/usr/local/lib/ARM/CMSIS/5.4.0/CMSIS/RTOS2/RTX/Source/rtx_mutex.c ****     //lint -e{904} "Return statement before end of function" [MISRA Note 1]
 353:/usr/local/lib/ARM/CMSIS/5.4.0/CMSIS/RTOS2/RTX/Source/rtx_mutex.c ****     return NULL;
 660              		.loc 1 353 0
 661 0022 0020     		movs	r0, #0
 662 0024 10BD     		pop	{r4, pc}
 663              	.LVL85:
 664              	.L58:
 354:/usr/local/lib/ARM/CMSIS/5.4.0/CMSIS/RTOS2/RTX/Source/rtx_mutex.c ****   }
 355:/usr/local/lib/ARM/CMSIS/5.4.0/CMSIS/RTOS2/RTX/Source/rtx_mutex.c **** 
 356:/usr/local/lib/ARM/CMSIS/5.4.0/CMSIS/RTOS2/RTX/Source/rtx_mutex.c ****   EvrRtxMutexGetOwner(mutex, mutex->owner_thread);
 665              		.loc 1 356 0
 666 0026 C168     		ldr	r1, [r0, #12]
 667 0028 FFF7FEFF 		bl	EvrRtxMutexGetOwner
 668              	.LVL86:
 357:/usr/local/lib/ARM/CMSIS/5.4.0/CMSIS/RTOS2/RTX/Source/rtx_mutex.c **** 
 358:/usr/local/lib/ARM/CMSIS/5.4.0/CMSIS/RTOS2/RTX/Source/rtx_mutex.c ****   return mutex->owner_thread;
 669              		.loc 1 358 0
 670 002c E068     		ldr	r0, [r4, #12]
 359:/usr/local/lib/ARM/CMSIS/5.4.0/CMSIS/RTOS2/RTX/Source/rtx_mutex.c **** }
 671              		.loc 1 359 0
 672 002e 10BD     		pop	{r4, pc}
 673              		.cfi_endproc
 674              	.LFE179:
 676              		.section	.text.svcRtxMutexDelete,"ax",%progbits
 677              		.align	2
ARM GAS  /tmp/cc1jQKzY.s 			page 22


 678              		.thumb
 679              		.thumb_func
 681              	svcRtxMutexDelete:
 682              	.LFB180:
 360:/usr/local/lib/ARM/CMSIS/5.4.0/CMSIS/RTOS2/RTX/Source/rtx_mutex.c **** 
 361:/usr/local/lib/ARM/CMSIS/5.4.0/CMSIS/RTOS2/RTX/Source/rtx_mutex.c **** /// Delete a Mutex object.
 362:/usr/local/lib/ARM/CMSIS/5.4.0/CMSIS/RTOS2/RTX/Source/rtx_mutex.c **** /// \note API identical to osMutexDelete
 363:/usr/local/lib/ARM/CMSIS/5.4.0/CMSIS/RTOS2/RTX/Source/rtx_mutex.c **** static osStatus_t svcRtxMutexDelete (osMutexId_t mutex_id) {
 683              		.loc 1 363 0
 684              		.cfi_startproc
 685              		@ args = 0, pretend = 0, frame = 0
 686              		@ frame_needed = 0, uses_anonymous_args = 0
 687              	.LVL87:
 688 0000 10B5     		push	{r4, lr}
 689              	.LCFI5:
 690              		.cfi_def_cfa_offset 8
 691              		.cfi_offset 4, -8
 692              		.cfi_offset 14, -4
 364:/usr/local/lib/ARM/CMSIS/5.4.0/CMSIS/RTOS2/RTX/Source/rtx_mutex.c ****         os_mutex_t  *mutex = osRtxMutexId(mutex_id);
 365:/usr/local/lib/ARM/CMSIS/5.4.0/CMSIS/RTOS2/RTX/Source/rtx_mutex.c ****   const os_mutex_t  *mutex0;
 366:/usr/local/lib/ARM/CMSIS/5.4.0/CMSIS/RTOS2/RTX/Source/rtx_mutex.c ****         os_thread_t *thread;
 367:/usr/local/lib/ARM/CMSIS/5.4.0/CMSIS/RTOS2/RTX/Source/rtx_mutex.c ****         int8_t       priority;
 368:/usr/local/lib/ARM/CMSIS/5.4.0/CMSIS/RTOS2/RTX/Source/rtx_mutex.c **** 
 369:/usr/local/lib/ARM/CMSIS/5.4.0/CMSIS/RTOS2/RTX/Source/rtx_mutex.c ****   // Check parameters
 370:/usr/local/lib/ARM/CMSIS/5.4.0/CMSIS/RTOS2/RTX/Source/rtx_mutex.c ****   if ((mutex == NULL) || (mutex->id != osRtxIdMutex)) {
 693              		.loc 1 370 0
 694 0002 0446     		mov	r4, r0
 695 0004 10B1     		cbz	r0, .L61
 696              		.loc 1 370 0 is_stmt 0 discriminator 1
 697 0006 0378     		ldrb	r3, [r0]	@ zero_extendqisi2
 698 0008 042B     		cmp	r3, #4
 699 000a 07D0     		beq	.L62
 700              	.L61:
 371:/usr/local/lib/ARM/CMSIS/5.4.0/CMSIS/RTOS2/RTX/Source/rtx_mutex.c ****     EvrRtxMutexError(mutex, (int32_t)osErrorParameter);
 701              		.loc 1 371 0 is_stmt 1
 702 000c 6FF00301 		mvn	r1, #3
 703 0010 2046     		mov	r0, r4
 704              	.LVL88:
 705 0012 FFF7FEFF 		bl	EvrRtxMutexError
 706              	.LVL89:
 372:/usr/local/lib/ARM/CMSIS/5.4.0/CMSIS/RTOS2/RTX/Source/rtx_mutex.c ****     //lint -e{904} "Return statement before end of function" [MISRA Note 1]
 373:/usr/local/lib/ARM/CMSIS/5.4.0/CMSIS/RTOS2/RTX/Source/rtx_mutex.c ****     return osErrorParameter;
 707              		.loc 1 373 0
 708 0016 6FF00300 		mvn	r0, #3
 709 001a 10BD     		pop	{r4, pc}
 710              	.LVL90:
 711              	.L62:
 374:/usr/local/lib/ARM/CMSIS/5.4.0/CMSIS/RTOS2/RTX/Source/rtx_mutex.c ****   }
 375:/usr/local/lib/ARM/CMSIS/5.4.0/CMSIS/RTOS2/RTX/Source/rtx_mutex.c **** 
 376:/usr/local/lib/ARM/CMSIS/5.4.0/CMSIS/RTOS2/RTX/Source/rtx_mutex.c ****   // Check if Mutex is locked
 377:/usr/local/lib/ARM/CMSIS/5.4.0/CMSIS/RTOS2/RTX/Source/rtx_mutex.c ****   if (mutex->lock != 0U) {
 712              		.loc 1 377 0
 713 001c 037E     		ldrb	r3, [r0, #24]	@ zero_extendqisi2
 714 001e 002B     		cmp	r3, #0
 715 0020 35D0     		beq	.L64
 378:/usr/local/lib/ARM/CMSIS/5.4.0/CMSIS/RTOS2/RTX/Source/rtx_mutex.c **** 
 379:/usr/local/lib/ARM/CMSIS/5.4.0/CMSIS/RTOS2/RTX/Source/rtx_mutex.c ****     thread = mutex->owner_thread;
ARM GAS  /tmp/cc1jQKzY.s 			page 23


 716              		.loc 1 379 0
 717 0022 C068     		ldr	r0, [r0, #12]
 718              	.LVL91:
 380:/usr/local/lib/ARM/CMSIS/5.4.0/CMSIS/RTOS2/RTX/Source/rtx_mutex.c **** 
 381:/usr/local/lib/ARM/CMSIS/5.4.0/CMSIS/RTOS2/RTX/Source/rtx_mutex.c ****     // Remove Mutex from Thread owner list
 382:/usr/local/lib/ARM/CMSIS/5.4.0/CMSIS/RTOS2/RTX/Source/rtx_mutex.c ****     if (mutex->owner_next != NULL) {
 719              		.loc 1 382 0
 720 0024 6369     		ldr	r3, [r4, #20]
 721 0026 0BB1     		cbz	r3, .L65
 383:/usr/local/lib/ARM/CMSIS/5.4.0/CMSIS/RTOS2/RTX/Source/rtx_mutex.c ****       mutex->owner_next->owner_prev = mutex->owner_prev;
 722              		.loc 1 383 0
 723 0028 2269     		ldr	r2, [r4, #16]
 724 002a 1A61     		str	r2, [r3, #16]
 725              	.L65:
 384:/usr/local/lib/ARM/CMSIS/5.4.0/CMSIS/RTOS2/RTX/Source/rtx_mutex.c ****     }
 385:/usr/local/lib/ARM/CMSIS/5.4.0/CMSIS/RTOS2/RTX/Source/rtx_mutex.c ****     if (mutex->owner_prev != NULL) {
 726              		.loc 1 385 0
 727 002c 2369     		ldr	r3, [r4, #16]
 728 002e 13B1     		cbz	r3, .L66
 386:/usr/local/lib/ARM/CMSIS/5.4.0/CMSIS/RTOS2/RTX/Source/rtx_mutex.c ****       mutex->owner_prev->owner_next = mutex->owner_next;
 729              		.loc 1 386 0
 730 0030 6269     		ldr	r2, [r4, #20]
 731 0032 5A61     		str	r2, [r3, #20]
 732 0034 01E0     		b	.L67
 733              	.L66:
 387:/usr/local/lib/ARM/CMSIS/5.4.0/CMSIS/RTOS2/RTX/Source/rtx_mutex.c ****     } else {
 388:/usr/local/lib/ARM/CMSIS/5.4.0/CMSIS/RTOS2/RTX/Source/rtx_mutex.c ****       thread->mutex_list = mutex->owner_next;
 734              		.loc 1 388 0
 735 0036 6369     		ldr	r3, [r4, #20]
 736 0038 C362     		str	r3, [r0, #44]
 737              	.L67:
 389:/usr/local/lib/ARM/CMSIS/5.4.0/CMSIS/RTOS2/RTX/Source/rtx_mutex.c ****     }
 390:/usr/local/lib/ARM/CMSIS/5.4.0/CMSIS/RTOS2/RTX/Source/rtx_mutex.c **** 
 391:/usr/local/lib/ARM/CMSIS/5.4.0/CMSIS/RTOS2/RTX/Source/rtx_mutex.c ****     // Restore owner Thread priority
 392:/usr/local/lib/ARM/CMSIS/5.4.0/CMSIS/RTOS2/RTX/Source/rtx_mutex.c ****     if ((mutex->attr & osMutexPrioInherit) != 0U) {
 738              		.loc 1 392 0
 739 003a E378     		ldrb	r3, [r4, #3]	@ zero_extendqisi2
 740 003c 13F0020F 		tst	r3, #2
 741 0040 15D0     		beq	.L68
 393:/usr/local/lib/ARM/CMSIS/5.4.0/CMSIS/RTOS2/RTX/Source/rtx_mutex.c ****       priority = thread->priority_base;
 742              		.loc 1 393 0
 743 0042 90F92110 		ldrsb	r1, [r0, #33]
 744              	.LVL92:
 394:/usr/local/lib/ARM/CMSIS/5.4.0/CMSIS/RTOS2/RTX/Source/rtx_mutex.c ****       mutex0   = thread->mutex_list;
 745              		.loc 1 394 0
 746 0046 C36A     		ldr	r3, [r0, #44]
 747              	.LVL93:
 395:/usr/local/lib/ARM/CMSIS/5.4.0/CMSIS/RTOS2/RTX/Source/rtx_mutex.c ****       while (mutex0 != NULL) {
 748              		.loc 1 395 0
 749 0048 07E0     		b	.L69
 750              	.L71:
 396:/usr/local/lib/ARM/CMSIS/5.4.0/CMSIS/RTOS2/RTX/Source/rtx_mutex.c ****         // Mutexes owned by running Thread
 397:/usr/local/lib/ARM/CMSIS/5.4.0/CMSIS/RTOS2/RTX/Source/rtx_mutex.c ****         if ((mutex0->thread_list != NULL) && (mutex0->thread_list->priority > priority)) {
 751              		.loc 1 397 0
 752 004a 9A68     		ldr	r2, [r3, #8]
 753 004c 22B1     		cbz	r2, .L70
 754              		.loc 1 397 0 is_stmt 0 discriminator 1
ARM GAS  /tmp/cc1jQKzY.s 			page 24


 755 004e 92F92020 		ldrsb	r2, [r2, #32]
 756 0052 9142     		cmp	r1, r2
 757 0054 00DA     		bge	.L70
 398:/usr/local/lib/ARM/CMSIS/5.4.0/CMSIS/RTOS2/RTX/Source/rtx_mutex.c ****           // Higher priority Thread is waiting for Mutex
 399:/usr/local/lib/ARM/CMSIS/5.4.0/CMSIS/RTOS2/RTX/Source/rtx_mutex.c ****           priority = mutex0->thread_list->priority;
 758              		.loc 1 399 0 is_stmt 1
 759 0056 1146     		mov	r1, r2
 760              	.LVL94:
 761              	.L70:
 400:/usr/local/lib/ARM/CMSIS/5.4.0/CMSIS/RTOS2/RTX/Source/rtx_mutex.c ****         }
 401:/usr/local/lib/ARM/CMSIS/5.4.0/CMSIS/RTOS2/RTX/Source/rtx_mutex.c ****         mutex0 = mutex0->owner_next;
 762              		.loc 1 401 0
 763 0058 5B69     		ldr	r3, [r3, #20]
 764              	.LVL95:
 765              	.L69:
 395:/usr/local/lib/ARM/CMSIS/5.4.0/CMSIS/RTOS2/RTX/Source/rtx_mutex.c ****         // Mutexes owned by running Thread
 766              		.loc 1 395 0
 767 005a 002B     		cmp	r3, #0
 768 005c F5D1     		bne	.L71
 402:/usr/local/lib/ARM/CMSIS/5.4.0/CMSIS/RTOS2/RTX/Source/rtx_mutex.c ****       }
 403:/usr/local/lib/ARM/CMSIS/5.4.0/CMSIS/RTOS2/RTX/Source/rtx_mutex.c ****       if (thread->priority != priority) {
 769              		.loc 1 403 0
 770 005e 90F92030 		ldrsb	r3, [r0, #32]
 771              	.LVL96:
 772 0062 9942     		cmp	r1, r3
 773 0064 03D0     		beq	.L68
 404:/usr/local/lib/ARM/CMSIS/5.4.0/CMSIS/RTOS2/RTX/Source/rtx_mutex.c ****         thread->priority = priority;
 774              		.loc 1 404 0
 775 0066 80F82010 		strb	r1, [r0, #32]
 405:/usr/local/lib/ARM/CMSIS/5.4.0/CMSIS/RTOS2/RTX/Source/rtx_mutex.c ****         osRtxThreadListSort(thread);
 776              		.loc 1 405 0
 777 006a FFF7FEFF 		bl	osRtxThreadListSort
 778              	.LVL97:
 779              	.L68:
 406:/usr/local/lib/ARM/CMSIS/5.4.0/CMSIS/RTOS2/RTX/Source/rtx_mutex.c ****       }
 407:/usr/local/lib/ARM/CMSIS/5.4.0/CMSIS/RTOS2/RTX/Source/rtx_mutex.c ****     }
 408:/usr/local/lib/ARM/CMSIS/5.4.0/CMSIS/RTOS2/RTX/Source/rtx_mutex.c **** 
 409:/usr/local/lib/ARM/CMSIS/5.4.0/CMSIS/RTOS2/RTX/Source/rtx_mutex.c ****     // Unblock waiting threads
 410:/usr/local/lib/ARM/CMSIS/5.4.0/CMSIS/RTOS2/RTX/Source/rtx_mutex.c ****     if (mutex->thread_list != NULL) {
 780              		.loc 1 410 0
 781 006e A368     		ldr	r3, [r4, #8]
 782 0070 53B1     		cbz	r3, .L72
 783              	.L73:
 411:/usr/local/lib/ARM/CMSIS/5.4.0/CMSIS/RTOS2/RTX/Source/rtx_mutex.c ****       do {
 412:/usr/local/lib/ARM/CMSIS/5.4.0/CMSIS/RTOS2/RTX/Source/rtx_mutex.c ****         thread = osRtxThreadListGet(osRtxObject(mutex));
 784              		.loc 1 412 0 discriminator 1
 785 0072 2046     		mov	r0, r4
 786 0074 FFF7FEFF 		bl	osRtxThreadListGet
 787              	.LVL98:
 413:/usr/local/lib/ARM/CMSIS/5.4.0/CMSIS/RTOS2/RTX/Source/rtx_mutex.c ****         osRtxThreadWaitExit(thread, (uint32_t)osErrorResource, FALSE);
 788              		.loc 1 413 0 discriminator 1
 789 0078 0022     		movs	r2, #0
 790 007a 6FF00201 		mvn	r1, #2
 791 007e FFF7FEFF 		bl	osRtxThreadWaitExit
 792              	.LVL99:
 414:/usr/local/lib/ARM/CMSIS/5.4.0/CMSIS/RTOS2/RTX/Source/rtx_mutex.c ****       } while (mutex->thread_list != NULL);
 793              		.loc 1 414 0 discriminator 1
ARM GAS  /tmp/cc1jQKzY.s 			page 25


 794 0082 A368     		ldr	r3, [r4, #8]
 795 0084 002B     		cmp	r3, #0
 796 0086 F4D1     		bne	.L73
 797              	.L72:
 415:/usr/local/lib/ARM/CMSIS/5.4.0/CMSIS/RTOS2/RTX/Source/rtx_mutex.c ****     }
 416:/usr/local/lib/ARM/CMSIS/5.4.0/CMSIS/RTOS2/RTX/Source/rtx_mutex.c **** 
 417:/usr/local/lib/ARM/CMSIS/5.4.0/CMSIS/RTOS2/RTX/Source/rtx_mutex.c ****     osRtxThreadDispatch(NULL);
 798              		.loc 1 417 0
 799 0088 0020     		movs	r0, #0
 800 008a FFF7FEFF 		bl	osRtxThreadDispatch
 801              	.LVL100:
 802              	.L64:
 418:/usr/local/lib/ARM/CMSIS/5.4.0/CMSIS/RTOS2/RTX/Source/rtx_mutex.c ****   }
 419:/usr/local/lib/ARM/CMSIS/5.4.0/CMSIS/RTOS2/RTX/Source/rtx_mutex.c **** 
 420:/usr/local/lib/ARM/CMSIS/5.4.0/CMSIS/RTOS2/RTX/Source/rtx_mutex.c ****   // Mark object as invalid
 421:/usr/local/lib/ARM/CMSIS/5.4.0/CMSIS/RTOS2/RTX/Source/rtx_mutex.c ****   mutex->id = osRtxIdInvalid;
 803              		.loc 1 421 0
 804 008e 0023     		movs	r3, #0
 805 0090 2370     		strb	r3, [r4]
 422:/usr/local/lib/ARM/CMSIS/5.4.0/CMSIS/RTOS2/RTX/Source/rtx_mutex.c **** 
 423:/usr/local/lib/ARM/CMSIS/5.4.0/CMSIS/RTOS2/RTX/Source/rtx_mutex.c ****   // Free object memory
 424:/usr/local/lib/ARM/CMSIS/5.4.0/CMSIS/RTOS2/RTX/Source/rtx_mutex.c ****   if ((mutex->flags & osRtxFlagSystemObject) != 0U) {
 806              		.loc 1 424 0
 807 0092 A378     		ldrb	r3, [r4, #2]	@ zero_extendqisi2
 808 0094 13F0010F 		tst	r3, #1
 809 0098 0DD0     		beq	.L74
 425:/usr/local/lib/ARM/CMSIS/5.4.0/CMSIS/RTOS2/RTX/Source/rtx_mutex.c ****     if (osRtxInfo.mpi.mutex != NULL) {
 810              		.loc 1 425 0
 811 009a 094B     		ldr	r3, .L78
 812 009c D3F89400 		ldr	r0, [r3, #148]
 813 00a0 18B1     		cbz	r0, .L75
 426:/usr/local/lib/ARM/CMSIS/5.4.0/CMSIS/RTOS2/RTX/Source/rtx_mutex.c ****       (void)osRtxMemoryPoolFree(osRtxInfo.mpi.mutex, mutex);
 814              		.loc 1 426 0
 815 00a2 2146     		mov	r1, r4
 816 00a4 FFF7FEFF 		bl	osRtxMemoryPoolFree
 817              	.LVL101:
 818 00a8 05E0     		b	.L74
 819              	.L75:
 427:/usr/local/lib/ARM/CMSIS/5.4.0/CMSIS/RTOS2/RTX/Source/rtx_mutex.c ****     } else {
 428:/usr/local/lib/ARM/CMSIS/5.4.0/CMSIS/RTOS2/RTX/Source/rtx_mutex.c ****       (void)osRtxMemoryFree(osRtxInfo.mem.common, mutex);
 820              		.loc 1 428 0
 821 00aa 2146     		mov	r1, r4
 822 00ac 044B     		ldr	r3, .L78
 823 00ae D3F88000 		ldr	r0, [r3, #128]
 824 00b2 FFF7FEFF 		bl	osRtxMemoryFree
 825              	.LVL102:
 826              	.L74:
 429:/usr/local/lib/ARM/CMSIS/5.4.0/CMSIS/RTOS2/RTX/Source/rtx_mutex.c ****     }
 430:/usr/local/lib/ARM/CMSIS/5.4.0/CMSIS/RTOS2/RTX/Source/rtx_mutex.c **** #if (defined(OS_OBJ_MEM_USAGE) && (OS_OBJ_MEM_USAGE != 0))
 431:/usr/local/lib/ARM/CMSIS/5.4.0/CMSIS/RTOS2/RTX/Source/rtx_mutex.c ****     osRtxMutexMemUsage.cnt_free++;
 432:/usr/local/lib/ARM/CMSIS/5.4.0/CMSIS/RTOS2/RTX/Source/rtx_mutex.c **** #endif
 433:/usr/local/lib/ARM/CMSIS/5.4.0/CMSIS/RTOS2/RTX/Source/rtx_mutex.c ****   }
 434:/usr/local/lib/ARM/CMSIS/5.4.0/CMSIS/RTOS2/RTX/Source/rtx_mutex.c **** 
 435:/usr/local/lib/ARM/CMSIS/5.4.0/CMSIS/RTOS2/RTX/Source/rtx_mutex.c ****   EvrRtxMutexDestroyed(mutex);
 827              		.loc 1 435 0
 828 00b6 2046     		mov	r0, r4
 829 00b8 FFF7FEFF 		bl	EvrRtxMutexDestroyed
ARM GAS  /tmp/cc1jQKzY.s 			page 26


 830              	.LVL103:
 436:/usr/local/lib/ARM/CMSIS/5.4.0/CMSIS/RTOS2/RTX/Source/rtx_mutex.c **** 
 437:/usr/local/lib/ARM/CMSIS/5.4.0/CMSIS/RTOS2/RTX/Source/rtx_mutex.c ****   return osOK;
 831              		.loc 1 437 0
 832 00bc 0020     		movs	r0, #0
 438:/usr/local/lib/ARM/CMSIS/5.4.0/CMSIS/RTOS2/RTX/Source/rtx_mutex.c **** }
 833              		.loc 1 438 0
 834 00be 10BD     		pop	{r4, pc}
 835              	.LVL104:
 836              	.L79:
 837              		.align	2
 838              	.L78:
 839 00c0 00000000 		.word	osRtxInfo
 840              		.cfi_endproc
 841              	.LFE180:
 843              		.section	.text.osRtxMutexOwnerRelease,"ax",%progbits
 844              		.align	2
 845              		.global	osRtxMutexOwnerRelease
 846              		.thumb
 847              		.thumb_func
 849              	osRtxMutexOwnerRelease:
 850              	.LFB174:
  42:/usr/local/lib/ARM/CMSIS/5.4.0/CMSIS/RTOS2/RTX/Source/rtx_mutex.c ****   os_mutex_t  *mutex;
 851              		.loc 1 42 0
 852              		.cfi_startproc
 853              		@ args = 0, pretend = 0, frame = 0
 854              		@ frame_needed = 0, uses_anonymous_args = 0
 855              	.LVL105:
 856 0000 70B5     		push	{r4, r5, r6, lr}
 857              	.LCFI6:
 858              		.cfi_def_cfa_offset 16
 859              		.cfi_offset 4, -16
 860              		.cfi_offset 5, -12
 861              		.cfi_offset 6, -8
 862              		.cfi_offset 14, -4
 863 0002 0446     		mov	r4, r0
 864              	.LVL106:
  48:/usr/local/lib/ARM/CMSIS/5.4.0/CMSIS/RTOS2/RTX/Source/rtx_mutex.c ****     mutex_next = mutex->owner_next;
 865              		.loc 1 48 0
 866 0004 1FE0     		b	.L81
 867              	.LVL107:
 868              	.L83:
  49:/usr/local/lib/ARM/CMSIS/5.4.0/CMSIS/RTOS2/RTX/Source/rtx_mutex.c ****     // Check if Mutex is Robust
 869              		.loc 1 49 0
 870 0006 6569     		ldr	r5, [r4, #20]
 871              	.LVL108:
  51:/usr/local/lib/ARM/CMSIS/5.4.0/CMSIS/RTOS2/RTX/Source/rtx_mutex.c ****       // Clear Lock counter
 872              		.loc 1 51 0
 873 0008 E378     		ldrb	r3, [r4, #3]	@ zero_extendqisi2
 874 000a 13F0080F 		tst	r3, #8
 875 000e 19D0     		beq	.L82
  53:/usr/local/lib/ARM/CMSIS/5.4.0/CMSIS/RTOS2/RTX/Source/rtx_mutex.c ****       EvrRtxMutexReleased(mutex, 0U);
 876              		.loc 1 53 0
 877 0010 0021     		movs	r1, #0
 878 0012 2176     		strb	r1, [r4, #24]
  54:/usr/local/lib/ARM/CMSIS/5.4.0/CMSIS/RTOS2/RTX/Source/rtx_mutex.c ****       // Check if Thread is waiting for a Mutex
 879              		.loc 1 54 0
ARM GAS  /tmp/cc1jQKzY.s 			page 27


 880 0014 2046     		mov	r0, r4
 881 0016 FFF7FEFF 		bl	EvrRtxMutexReleased
 882              	.LVL109:
  56:/usr/local/lib/ARM/CMSIS/5.4.0/CMSIS/RTOS2/RTX/Source/rtx_mutex.c ****         // Wakeup waiting Thread with highest Priority
 883              		.loc 1 56 0
 884 001a A368     		ldr	r3, [r4, #8]
 885 001c 93B1     		cbz	r3, .L82
  58:/usr/local/lib/ARM/CMSIS/5.4.0/CMSIS/RTOS2/RTX/Source/rtx_mutex.c ****         osRtxThreadWaitExit(thread, (uint32_t)osOK, FALSE);
 886              		.loc 1 58 0
 887 001e 2046     		mov	r0, r4
 888 0020 FFF7FEFF 		bl	osRtxThreadListGet
 889              	.LVL110:
 890 0024 0646     		mov	r6, r0
 891              	.LVL111:
  59:/usr/local/lib/ARM/CMSIS/5.4.0/CMSIS/RTOS2/RTX/Source/rtx_mutex.c ****         // Thread is the new Mutex owner
 892              		.loc 1 59 0
 893 0026 0022     		movs	r2, #0
 894 0028 1146     		mov	r1, r2
 895 002a FFF7FEFF 		bl	osRtxThreadWaitExit
 896              	.LVL112:
  61:/usr/local/lib/ARM/CMSIS/5.4.0/CMSIS/RTOS2/RTX/Source/rtx_mutex.c ****         mutex->owner_next   = thread->mutex_list;
 897              		.loc 1 61 0
 898 002e E660     		str	r6, [r4, #12]
  62:/usr/local/lib/ARM/CMSIS/5.4.0/CMSIS/RTOS2/RTX/Source/rtx_mutex.c ****         mutex->owner_prev   = NULL;
 899              		.loc 1 62 0
 900 0030 F36A     		ldr	r3, [r6, #44]
 901 0032 6361     		str	r3, [r4, #20]
  63:/usr/local/lib/ARM/CMSIS/5.4.0/CMSIS/RTOS2/RTX/Source/rtx_mutex.c ****         thread->mutex_list  = mutex;
 902              		.loc 1 63 0
 903 0034 0023     		movs	r3, #0
 904 0036 2361     		str	r3, [r4, #16]
  64:/usr/local/lib/ARM/CMSIS/5.4.0/CMSIS/RTOS2/RTX/Source/rtx_mutex.c ****         mutex->lock = 1U;
 905              		.loc 1 64 0
 906 0038 F462     		str	r4, [r6, #44]
  65:/usr/local/lib/ARM/CMSIS/5.4.0/CMSIS/RTOS2/RTX/Source/rtx_mutex.c ****         EvrRtxMutexAcquired(mutex, 1U);
 907              		.loc 1 65 0
 908 003a 0121     		movs	r1, #1
 909 003c 2176     		strb	r1, [r4, #24]
  66:/usr/local/lib/ARM/CMSIS/5.4.0/CMSIS/RTOS2/RTX/Source/rtx_mutex.c ****       }
 910              		.loc 1 66 0
 911 003e 2046     		mov	r0, r4
 912 0040 FFF7FEFF 		bl	EvrRtxMutexAcquired
 913              	.LVL113:
 914              	.L82:
  42:/usr/local/lib/ARM/CMSIS/5.4.0/CMSIS/RTOS2/RTX/Source/rtx_mutex.c ****   os_mutex_t  *mutex;
 915              		.loc 1 42 0
 916 0044 2C46     		mov	r4, r5
 917              	.LVL114:
 918              	.L81:
  48:/usr/local/lib/ARM/CMSIS/5.4.0/CMSIS/RTOS2/RTX/Source/rtx_mutex.c ****     mutex_next = mutex->owner_next;
 919              		.loc 1 48 0
 920 0046 002C     		cmp	r4, #0
 921 0048 DDD1     		bne	.L83
  71:/usr/local/lib/ARM/CMSIS/5.4.0/CMSIS/RTOS2/RTX/Source/rtx_mutex.c **** 
 922              		.loc 1 71 0
 923 004a 70BD     		pop	{r4, r5, r6, pc}
 924              		.cfi_endproc
ARM GAS  /tmp/cc1jQKzY.s 			page 28


 925              	.LFE174:
 927              		.section	.text.osMutexNew,"ax",%progbits
 928              		.align	2
 929              		.global	osMutexNew
 930              		.thumb
 931              		.thumb_func
 933              	osMutexNew:
 934              	.LFB187:
 439:/usr/local/lib/ARM/CMSIS/5.4.0/CMSIS/RTOS2/RTX/Source/rtx_mutex.c **** 
 440:/usr/local/lib/ARM/CMSIS/5.4.0/CMSIS/RTOS2/RTX/Source/rtx_mutex.c **** //  Service Calls definitions
 441:/usr/local/lib/ARM/CMSIS/5.4.0/CMSIS/RTOS2/RTX/Source/rtx_mutex.c **** //lint ++flb "Library Begin" [MISRA Note 11]
 442:/usr/local/lib/ARM/CMSIS/5.4.0/CMSIS/RTOS2/RTX/Source/rtx_mutex.c **** SVC0_1(MutexNew,      osMutexId_t,  const osMutexAttr_t *)
 443:/usr/local/lib/ARM/CMSIS/5.4.0/CMSIS/RTOS2/RTX/Source/rtx_mutex.c **** SVC0_1(MutexGetName,  const char *, osMutexId_t)
 444:/usr/local/lib/ARM/CMSIS/5.4.0/CMSIS/RTOS2/RTX/Source/rtx_mutex.c **** SVC0_2(MutexAcquire,  osStatus_t,   osMutexId_t, uint32_t)
 445:/usr/local/lib/ARM/CMSIS/5.4.0/CMSIS/RTOS2/RTX/Source/rtx_mutex.c **** SVC0_1(MutexRelease,  osStatus_t,   osMutexId_t)
 446:/usr/local/lib/ARM/CMSIS/5.4.0/CMSIS/RTOS2/RTX/Source/rtx_mutex.c **** SVC0_1(MutexGetOwner, osThreadId_t, osMutexId_t)
 447:/usr/local/lib/ARM/CMSIS/5.4.0/CMSIS/RTOS2/RTX/Source/rtx_mutex.c **** SVC0_1(MutexDelete,   osStatus_t,   osMutexId_t)
 448:/usr/local/lib/ARM/CMSIS/5.4.0/CMSIS/RTOS2/RTX/Source/rtx_mutex.c **** //lint --flb "Library End"
 449:/usr/local/lib/ARM/CMSIS/5.4.0/CMSIS/RTOS2/RTX/Source/rtx_mutex.c **** 
 450:/usr/local/lib/ARM/CMSIS/5.4.0/CMSIS/RTOS2/RTX/Source/rtx_mutex.c **** 
 451:/usr/local/lib/ARM/CMSIS/5.4.0/CMSIS/RTOS2/RTX/Source/rtx_mutex.c **** //  ==== Public API ====
 452:/usr/local/lib/ARM/CMSIS/5.4.0/CMSIS/RTOS2/RTX/Source/rtx_mutex.c **** 
 453:/usr/local/lib/ARM/CMSIS/5.4.0/CMSIS/RTOS2/RTX/Source/rtx_mutex.c **** /// Create and Initialize a Mutex object.
 454:/usr/local/lib/ARM/CMSIS/5.4.0/CMSIS/RTOS2/RTX/Source/rtx_mutex.c **** osMutexId_t osMutexNew (const osMutexAttr_t *attr) {
 935              		.loc 1 454 0
 936              		.cfi_startproc
 937              		@ args = 0, pretend = 0, frame = 0
 938              		@ frame_needed = 0, uses_anonymous_args = 0
 939              	.LVL115:
 940 0000 10B5     		push	{r4, lr}
 941              	.LCFI7:
 942              		.cfi_def_cfa_offset 8
 943              		.cfi_offset 4, -8
 944              		.cfi_offset 14, -4
 945 0002 0446     		mov	r4, r0
 455:/usr/local/lib/ARM/CMSIS/5.4.0/CMSIS/RTOS2/RTX/Source/rtx_mutex.c ****   osMutexId_t mutex_id;
 456:/usr/local/lib/ARM/CMSIS/5.4.0/CMSIS/RTOS2/RTX/Source/rtx_mutex.c **** 
 457:/usr/local/lib/ARM/CMSIS/5.4.0/CMSIS/RTOS2/RTX/Source/rtx_mutex.c ****   EvrRtxMutexNew(attr);
 946              		.loc 1 457 0
 947 0004 FFF7FEFF 		bl	EvrRtxMutexNew
 948              	.LVL116:
 949              	.LBB118:
 950              	.LBB119:
 951              	.LBB120:
 952              		.file 3 "/usr/local/lib/ARM/CMSIS/5.4.0/CMSIS/Core/Include/cmsis_gcc.h"
   1:/usr/local/lib/ARM/CMSIS/5.4.0/CMSIS/Core/Include/cmsis_gcc.h **** /**************************************************************************//**
   2:/usr/local/lib/ARM/CMSIS/5.4.0/CMSIS/Core/Include/cmsis_gcc.h ****  * @file     cmsis_gcc.h
   3:/usr/local/lib/ARM/CMSIS/5.4.0/CMSIS/Core/Include/cmsis_gcc.h ****  * @brief    CMSIS compiler GCC header file
   4:/usr/local/lib/ARM/CMSIS/5.4.0/CMSIS/Core/Include/cmsis_gcc.h ****  * @version  V5.0.4
   5:/usr/local/lib/ARM/CMSIS/5.4.0/CMSIS/Core/Include/cmsis_gcc.h ****  * @date     09. April 2018
   6:/usr/local/lib/ARM/CMSIS/5.4.0/CMSIS/Core/Include/cmsis_gcc.h ****  ******************************************************************************/
   7:/usr/local/lib/ARM/CMSIS/5.4.0/CMSIS/Core/Include/cmsis_gcc.h **** /*
   8:/usr/local/lib/ARM/CMSIS/5.4.0/CMSIS/Core/Include/cmsis_gcc.h ****  * Copyright (c) 2009-2018 Arm Limited. All rights reserved.
   9:/usr/local/lib/ARM/CMSIS/5.4.0/CMSIS/Core/Include/cmsis_gcc.h ****  *
  10:/usr/local/lib/ARM/CMSIS/5.4.0/CMSIS/Core/Include/cmsis_gcc.h ****  * SPDX-License-Identifier: Apache-2.0
  11:/usr/local/lib/ARM/CMSIS/5.4.0/CMSIS/Core/Include/cmsis_gcc.h ****  *
  12:/usr/local/lib/ARM/CMSIS/5.4.0/CMSIS/Core/Include/cmsis_gcc.h ****  * Licensed under the Apache License, Version 2.0 (the License); you may
ARM GAS  /tmp/cc1jQKzY.s 			page 29


  13:/usr/local/lib/ARM/CMSIS/5.4.0/CMSIS/Core/Include/cmsis_gcc.h ****  * not use this file except in compliance with the License.
  14:/usr/local/lib/ARM/CMSIS/5.4.0/CMSIS/Core/Include/cmsis_gcc.h ****  * You may obtain a copy of the License at
  15:/usr/local/lib/ARM/CMSIS/5.4.0/CMSIS/Core/Include/cmsis_gcc.h ****  *
  16:/usr/local/lib/ARM/CMSIS/5.4.0/CMSIS/Core/Include/cmsis_gcc.h ****  * www.apache.org/licenses/LICENSE-2.0
  17:/usr/local/lib/ARM/CMSIS/5.4.0/CMSIS/Core/Include/cmsis_gcc.h ****  *
  18:/usr/local/lib/ARM/CMSIS/5.4.0/CMSIS/Core/Include/cmsis_gcc.h ****  * Unless required by applicable law or agreed to in writing, software
  19:/usr/local/lib/ARM/CMSIS/5.4.0/CMSIS/Core/Include/cmsis_gcc.h ****  * distributed under the License is distributed on an AS IS BASIS, WITHOUT
  20:/usr/local/lib/ARM/CMSIS/5.4.0/CMSIS/Core/Include/cmsis_gcc.h ****  * WARRANTIES OR CONDITIONS OF ANY KIND, either express or implied.
  21:/usr/local/lib/ARM/CMSIS/5.4.0/CMSIS/Core/Include/cmsis_gcc.h ****  * See the License for the specific language governing permissions and
  22:/usr/local/lib/ARM/CMSIS/5.4.0/CMSIS/Core/Include/cmsis_gcc.h ****  * limitations under the License.
  23:/usr/local/lib/ARM/CMSIS/5.4.0/CMSIS/Core/Include/cmsis_gcc.h ****  */
  24:/usr/local/lib/ARM/CMSIS/5.4.0/CMSIS/Core/Include/cmsis_gcc.h **** 
  25:/usr/local/lib/ARM/CMSIS/5.4.0/CMSIS/Core/Include/cmsis_gcc.h **** #ifndef __CMSIS_GCC_H
  26:/usr/local/lib/ARM/CMSIS/5.4.0/CMSIS/Core/Include/cmsis_gcc.h **** #define __CMSIS_GCC_H
  27:/usr/local/lib/ARM/CMSIS/5.4.0/CMSIS/Core/Include/cmsis_gcc.h **** 
  28:/usr/local/lib/ARM/CMSIS/5.4.0/CMSIS/Core/Include/cmsis_gcc.h **** /* ignore some GCC warnings */
  29:/usr/local/lib/ARM/CMSIS/5.4.0/CMSIS/Core/Include/cmsis_gcc.h **** #pragma GCC diagnostic push
  30:/usr/local/lib/ARM/CMSIS/5.4.0/CMSIS/Core/Include/cmsis_gcc.h **** #pragma GCC diagnostic ignored "-Wsign-conversion"
  31:/usr/local/lib/ARM/CMSIS/5.4.0/CMSIS/Core/Include/cmsis_gcc.h **** #pragma GCC diagnostic ignored "-Wconversion"
  32:/usr/local/lib/ARM/CMSIS/5.4.0/CMSIS/Core/Include/cmsis_gcc.h **** #pragma GCC diagnostic ignored "-Wunused-parameter"
  33:/usr/local/lib/ARM/CMSIS/5.4.0/CMSIS/Core/Include/cmsis_gcc.h **** 
  34:/usr/local/lib/ARM/CMSIS/5.4.0/CMSIS/Core/Include/cmsis_gcc.h **** /* Fallback for __has_builtin */
  35:/usr/local/lib/ARM/CMSIS/5.4.0/CMSIS/Core/Include/cmsis_gcc.h **** #ifndef __has_builtin
  36:/usr/local/lib/ARM/CMSIS/5.4.0/CMSIS/Core/Include/cmsis_gcc.h ****   #define __has_builtin(x) (0)
  37:/usr/local/lib/ARM/CMSIS/5.4.0/CMSIS/Core/Include/cmsis_gcc.h **** #endif
  38:/usr/local/lib/ARM/CMSIS/5.4.0/CMSIS/Core/Include/cmsis_gcc.h **** 
  39:/usr/local/lib/ARM/CMSIS/5.4.0/CMSIS/Core/Include/cmsis_gcc.h **** /* CMSIS compiler specific defines */
  40:/usr/local/lib/ARM/CMSIS/5.4.0/CMSIS/Core/Include/cmsis_gcc.h **** #ifndef   __ASM
  41:/usr/local/lib/ARM/CMSIS/5.4.0/CMSIS/Core/Include/cmsis_gcc.h ****   #define __ASM                                  __asm
  42:/usr/local/lib/ARM/CMSIS/5.4.0/CMSIS/Core/Include/cmsis_gcc.h **** #endif
  43:/usr/local/lib/ARM/CMSIS/5.4.0/CMSIS/Core/Include/cmsis_gcc.h **** #ifndef   __INLINE
  44:/usr/local/lib/ARM/CMSIS/5.4.0/CMSIS/Core/Include/cmsis_gcc.h ****   #define __INLINE                               inline
  45:/usr/local/lib/ARM/CMSIS/5.4.0/CMSIS/Core/Include/cmsis_gcc.h **** #endif
  46:/usr/local/lib/ARM/CMSIS/5.4.0/CMSIS/Core/Include/cmsis_gcc.h **** #ifndef   __STATIC_INLINE
  47:/usr/local/lib/ARM/CMSIS/5.4.0/CMSIS/Core/Include/cmsis_gcc.h ****   #define __STATIC_INLINE                        static inline
  48:/usr/local/lib/ARM/CMSIS/5.4.0/CMSIS/Core/Include/cmsis_gcc.h **** #endif
  49:/usr/local/lib/ARM/CMSIS/5.4.0/CMSIS/Core/Include/cmsis_gcc.h **** #ifndef   __STATIC_FORCEINLINE                 
  50:/usr/local/lib/ARM/CMSIS/5.4.0/CMSIS/Core/Include/cmsis_gcc.h ****   #define __STATIC_FORCEINLINE                   __attribute__((always_inline)) static inline
  51:/usr/local/lib/ARM/CMSIS/5.4.0/CMSIS/Core/Include/cmsis_gcc.h **** #endif                                           
  52:/usr/local/lib/ARM/CMSIS/5.4.0/CMSIS/Core/Include/cmsis_gcc.h **** #ifndef   __NO_RETURN
  53:/usr/local/lib/ARM/CMSIS/5.4.0/CMSIS/Core/Include/cmsis_gcc.h ****   #define __NO_RETURN                            __attribute__((__noreturn__))
  54:/usr/local/lib/ARM/CMSIS/5.4.0/CMSIS/Core/Include/cmsis_gcc.h **** #endif
  55:/usr/local/lib/ARM/CMSIS/5.4.0/CMSIS/Core/Include/cmsis_gcc.h **** #ifndef   __USED
  56:/usr/local/lib/ARM/CMSIS/5.4.0/CMSIS/Core/Include/cmsis_gcc.h ****   #define __USED                                 __attribute__((used))
  57:/usr/local/lib/ARM/CMSIS/5.4.0/CMSIS/Core/Include/cmsis_gcc.h **** #endif
  58:/usr/local/lib/ARM/CMSIS/5.4.0/CMSIS/Core/Include/cmsis_gcc.h **** #ifndef   __WEAK
  59:/usr/local/lib/ARM/CMSIS/5.4.0/CMSIS/Core/Include/cmsis_gcc.h ****   #define __WEAK                                 __attribute__((weak))
  60:/usr/local/lib/ARM/CMSIS/5.4.0/CMSIS/Core/Include/cmsis_gcc.h **** #endif
  61:/usr/local/lib/ARM/CMSIS/5.4.0/CMSIS/Core/Include/cmsis_gcc.h **** #ifndef   __PACKED
  62:/usr/local/lib/ARM/CMSIS/5.4.0/CMSIS/Core/Include/cmsis_gcc.h ****   #define __PACKED                               __attribute__((packed, aligned(1)))
  63:/usr/local/lib/ARM/CMSIS/5.4.0/CMSIS/Core/Include/cmsis_gcc.h **** #endif
  64:/usr/local/lib/ARM/CMSIS/5.4.0/CMSIS/Core/Include/cmsis_gcc.h **** #ifndef   __PACKED_STRUCT
  65:/usr/local/lib/ARM/CMSIS/5.4.0/CMSIS/Core/Include/cmsis_gcc.h ****   #define __PACKED_STRUCT                        struct __attribute__((packed, aligned(1)))
  66:/usr/local/lib/ARM/CMSIS/5.4.0/CMSIS/Core/Include/cmsis_gcc.h **** #endif
  67:/usr/local/lib/ARM/CMSIS/5.4.0/CMSIS/Core/Include/cmsis_gcc.h **** #ifndef   __PACKED_UNION
  68:/usr/local/lib/ARM/CMSIS/5.4.0/CMSIS/Core/Include/cmsis_gcc.h ****   #define __PACKED_UNION                         union __attribute__((packed, aligned(1)))
  69:/usr/local/lib/ARM/CMSIS/5.4.0/CMSIS/Core/Include/cmsis_gcc.h **** #endif
ARM GAS  /tmp/cc1jQKzY.s 			page 30


  70:/usr/local/lib/ARM/CMSIS/5.4.0/CMSIS/Core/Include/cmsis_gcc.h **** #ifndef   __UNALIGNED_UINT32        /* deprecated */
  71:/usr/local/lib/ARM/CMSIS/5.4.0/CMSIS/Core/Include/cmsis_gcc.h ****   #pragma GCC diagnostic push
  72:/usr/local/lib/ARM/CMSIS/5.4.0/CMSIS/Core/Include/cmsis_gcc.h ****   #pragma GCC diagnostic ignored "-Wpacked"
  73:/usr/local/lib/ARM/CMSIS/5.4.0/CMSIS/Core/Include/cmsis_gcc.h ****   #pragma GCC diagnostic ignored "-Wattributes"
  74:/usr/local/lib/ARM/CMSIS/5.4.0/CMSIS/Core/Include/cmsis_gcc.h ****   struct __attribute__((packed)) T_UINT32 { uint32_t v; };
  75:/usr/local/lib/ARM/CMSIS/5.4.0/CMSIS/Core/Include/cmsis_gcc.h ****   #pragma GCC diagnostic pop
  76:/usr/local/lib/ARM/CMSIS/5.4.0/CMSIS/Core/Include/cmsis_gcc.h ****   #define __UNALIGNED_UINT32(x)                  (((struct T_UINT32 *)(x))->v)
  77:/usr/local/lib/ARM/CMSIS/5.4.0/CMSIS/Core/Include/cmsis_gcc.h **** #endif
  78:/usr/local/lib/ARM/CMSIS/5.4.0/CMSIS/Core/Include/cmsis_gcc.h **** #ifndef   __UNALIGNED_UINT16_WRITE
  79:/usr/local/lib/ARM/CMSIS/5.4.0/CMSIS/Core/Include/cmsis_gcc.h ****   #pragma GCC diagnostic push
  80:/usr/local/lib/ARM/CMSIS/5.4.0/CMSIS/Core/Include/cmsis_gcc.h ****   #pragma GCC diagnostic ignored "-Wpacked"
  81:/usr/local/lib/ARM/CMSIS/5.4.0/CMSIS/Core/Include/cmsis_gcc.h ****   #pragma GCC diagnostic ignored "-Wattributes"
  82:/usr/local/lib/ARM/CMSIS/5.4.0/CMSIS/Core/Include/cmsis_gcc.h ****   __PACKED_STRUCT T_UINT16_WRITE { uint16_t v; };
  83:/usr/local/lib/ARM/CMSIS/5.4.0/CMSIS/Core/Include/cmsis_gcc.h ****   #pragma GCC diagnostic pop
  84:/usr/local/lib/ARM/CMSIS/5.4.0/CMSIS/Core/Include/cmsis_gcc.h ****   #define __UNALIGNED_UINT16_WRITE(addr, val)    (void)((((struct T_UINT16_WRITE *)(void *)(addr))-
  85:/usr/local/lib/ARM/CMSIS/5.4.0/CMSIS/Core/Include/cmsis_gcc.h **** #endif
  86:/usr/local/lib/ARM/CMSIS/5.4.0/CMSIS/Core/Include/cmsis_gcc.h **** #ifndef   __UNALIGNED_UINT16_READ
  87:/usr/local/lib/ARM/CMSIS/5.4.0/CMSIS/Core/Include/cmsis_gcc.h ****   #pragma GCC diagnostic push
  88:/usr/local/lib/ARM/CMSIS/5.4.0/CMSIS/Core/Include/cmsis_gcc.h ****   #pragma GCC diagnostic ignored "-Wpacked"
  89:/usr/local/lib/ARM/CMSIS/5.4.0/CMSIS/Core/Include/cmsis_gcc.h ****   #pragma GCC diagnostic ignored "-Wattributes"
  90:/usr/local/lib/ARM/CMSIS/5.4.0/CMSIS/Core/Include/cmsis_gcc.h ****   __PACKED_STRUCT T_UINT16_READ { uint16_t v; };
  91:/usr/local/lib/ARM/CMSIS/5.4.0/CMSIS/Core/Include/cmsis_gcc.h ****   #pragma GCC diagnostic pop
  92:/usr/local/lib/ARM/CMSIS/5.4.0/CMSIS/Core/Include/cmsis_gcc.h ****   #define __UNALIGNED_UINT16_READ(addr)          (((const struct T_UINT16_READ *)(const void *)(add
  93:/usr/local/lib/ARM/CMSIS/5.4.0/CMSIS/Core/Include/cmsis_gcc.h **** #endif
  94:/usr/local/lib/ARM/CMSIS/5.4.0/CMSIS/Core/Include/cmsis_gcc.h **** #ifndef   __UNALIGNED_UINT32_WRITE
  95:/usr/local/lib/ARM/CMSIS/5.4.0/CMSIS/Core/Include/cmsis_gcc.h ****   #pragma GCC diagnostic push
  96:/usr/local/lib/ARM/CMSIS/5.4.0/CMSIS/Core/Include/cmsis_gcc.h ****   #pragma GCC diagnostic ignored "-Wpacked"
  97:/usr/local/lib/ARM/CMSIS/5.4.0/CMSIS/Core/Include/cmsis_gcc.h ****   #pragma GCC diagnostic ignored "-Wattributes"
  98:/usr/local/lib/ARM/CMSIS/5.4.0/CMSIS/Core/Include/cmsis_gcc.h ****   __PACKED_STRUCT T_UINT32_WRITE { uint32_t v; };
  99:/usr/local/lib/ARM/CMSIS/5.4.0/CMSIS/Core/Include/cmsis_gcc.h ****   #pragma GCC diagnostic pop
 100:/usr/local/lib/ARM/CMSIS/5.4.0/CMSIS/Core/Include/cmsis_gcc.h ****   #define __UNALIGNED_UINT32_WRITE(addr, val)    (void)((((struct T_UINT32_WRITE *)(void *)(addr))-
 101:/usr/local/lib/ARM/CMSIS/5.4.0/CMSIS/Core/Include/cmsis_gcc.h **** #endif
 102:/usr/local/lib/ARM/CMSIS/5.4.0/CMSIS/Core/Include/cmsis_gcc.h **** #ifndef   __UNALIGNED_UINT32_READ
 103:/usr/local/lib/ARM/CMSIS/5.4.0/CMSIS/Core/Include/cmsis_gcc.h ****   #pragma GCC diagnostic push
 104:/usr/local/lib/ARM/CMSIS/5.4.0/CMSIS/Core/Include/cmsis_gcc.h ****   #pragma GCC diagnostic ignored "-Wpacked"
 105:/usr/local/lib/ARM/CMSIS/5.4.0/CMSIS/Core/Include/cmsis_gcc.h ****   #pragma GCC diagnostic ignored "-Wattributes"
 106:/usr/local/lib/ARM/CMSIS/5.4.0/CMSIS/Core/Include/cmsis_gcc.h ****   __PACKED_STRUCT T_UINT32_READ { uint32_t v; };
 107:/usr/local/lib/ARM/CMSIS/5.4.0/CMSIS/Core/Include/cmsis_gcc.h ****   #pragma GCC diagnostic pop
 108:/usr/local/lib/ARM/CMSIS/5.4.0/CMSIS/Core/Include/cmsis_gcc.h ****   #define __UNALIGNED_UINT32_READ(addr)          (((const struct T_UINT32_READ *)(const void *)(add
 109:/usr/local/lib/ARM/CMSIS/5.4.0/CMSIS/Core/Include/cmsis_gcc.h **** #endif
 110:/usr/local/lib/ARM/CMSIS/5.4.0/CMSIS/Core/Include/cmsis_gcc.h **** #ifndef   __ALIGNED
 111:/usr/local/lib/ARM/CMSIS/5.4.0/CMSIS/Core/Include/cmsis_gcc.h ****   #define __ALIGNED(x)                           __attribute__((aligned(x)))
 112:/usr/local/lib/ARM/CMSIS/5.4.0/CMSIS/Core/Include/cmsis_gcc.h **** #endif
 113:/usr/local/lib/ARM/CMSIS/5.4.0/CMSIS/Core/Include/cmsis_gcc.h **** #ifndef   __RESTRICT
 114:/usr/local/lib/ARM/CMSIS/5.4.0/CMSIS/Core/Include/cmsis_gcc.h ****   #define __RESTRICT                             __restrict
 115:/usr/local/lib/ARM/CMSIS/5.4.0/CMSIS/Core/Include/cmsis_gcc.h **** #endif
 116:/usr/local/lib/ARM/CMSIS/5.4.0/CMSIS/Core/Include/cmsis_gcc.h **** 
 117:/usr/local/lib/ARM/CMSIS/5.4.0/CMSIS/Core/Include/cmsis_gcc.h **** 
 118:/usr/local/lib/ARM/CMSIS/5.4.0/CMSIS/Core/Include/cmsis_gcc.h **** /* ###########################  Core Function Access  ########################### */
 119:/usr/local/lib/ARM/CMSIS/5.4.0/CMSIS/Core/Include/cmsis_gcc.h **** /** \ingroup  CMSIS_Core_FunctionInterface
 120:/usr/local/lib/ARM/CMSIS/5.4.0/CMSIS/Core/Include/cmsis_gcc.h ****     \defgroup CMSIS_Core_RegAccFunctions CMSIS Core Register Access Functions
 121:/usr/local/lib/ARM/CMSIS/5.4.0/CMSIS/Core/Include/cmsis_gcc.h ****   @{
 122:/usr/local/lib/ARM/CMSIS/5.4.0/CMSIS/Core/Include/cmsis_gcc.h ****  */
 123:/usr/local/lib/ARM/CMSIS/5.4.0/CMSIS/Core/Include/cmsis_gcc.h **** 
 124:/usr/local/lib/ARM/CMSIS/5.4.0/CMSIS/Core/Include/cmsis_gcc.h **** /**
 125:/usr/local/lib/ARM/CMSIS/5.4.0/CMSIS/Core/Include/cmsis_gcc.h ****   \brief   Enable IRQ Interrupts
 126:/usr/local/lib/ARM/CMSIS/5.4.0/CMSIS/Core/Include/cmsis_gcc.h ****   \details Enables IRQ interrupts by clearing the I-bit in the CPSR.
ARM GAS  /tmp/cc1jQKzY.s 			page 31


 127:/usr/local/lib/ARM/CMSIS/5.4.0/CMSIS/Core/Include/cmsis_gcc.h ****            Can only be executed in Privileged modes.
 128:/usr/local/lib/ARM/CMSIS/5.4.0/CMSIS/Core/Include/cmsis_gcc.h ****  */
 129:/usr/local/lib/ARM/CMSIS/5.4.0/CMSIS/Core/Include/cmsis_gcc.h **** __STATIC_FORCEINLINE void __enable_irq(void)
 130:/usr/local/lib/ARM/CMSIS/5.4.0/CMSIS/Core/Include/cmsis_gcc.h **** {
 131:/usr/local/lib/ARM/CMSIS/5.4.0/CMSIS/Core/Include/cmsis_gcc.h ****   __ASM volatile ("cpsie i" : : : "memory");
 132:/usr/local/lib/ARM/CMSIS/5.4.0/CMSIS/Core/Include/cmsis_gcc.h **** }
 133:/usr/local/lib/ARM/CMSIS/5.4.0/CMSIS/Core/Include/cmsis_gcc.h **** 
 134:/usr/local/lib/ARM/CMSIS/5.4.0/CMSIS/Core/Include/cmsis_gcc.h **** 
 135:/usr/local/lib/ARM/CMSIS/5.4.0/CMSIS/Core/Include/cmsis_gcc.h **** /**
 136:/usr/local/lib/ARM/CMSIS/5.4.0/CMSIS/Core/Include/cmsis_gcc.h ****   \brief   Disable IRQ Interrupts
 137:/usr/local/lib/ARM/CMSIS/5.4.0/CMSIS/Core/Include/cmsis_gcc.h ****   \details Disables IRQ interrupts by setting the I-bit in the CPSR.
 138:/usr/local/lib/ARM/CMSIS/5.4.0/CMSIS/Core/Include/cmsis_gcc.h ****            Can only be executed in Privileged modes.
 139:/usr/local/lib/ARM/CMSIS/5.4.0/CMSIS/Core/Include/cmsis_gcc.h ****  */
 140:/usr/local/lib/ARM/CMSIS/5.4.0/CMSIS/Core/Include/cmsis_gcc.h **** __STATIC_FORCEINLINE void __disable_irq(void)
 141:/usr/local/lib/ARM/CMSIS/5.4.0/CMSIS/Core/Include/cmsis_gcc.h **** {
 142:/usr/local/lib/ARM/CMSIS/5.4.0/CMSIS/Core/Include/cmsis_gcc.h ****   __ASM volatile ("cpsid i" : : : "memory");
 143:/usr/local/lib/ARM/CMSIS/5.4.0/CMSIS/Core/Include/cmsis_gcc.h **** }
 144:/usr/local/lib/ARM/CMSIS/5.4.0/CMSIS/Core/Include/cmsis_gcc.h **** 
 145:/usr/local/lib/ARM/CMSIS/5.4.0/CMSIS/Core/Include/cmsis_gcc.h **** 
 146:/usr/local/lib/ARM/CMSIS/5.4.0/CMSIS/Core/Include/cmsis_gcc.h **** /**
 147:/usr/local/lib/ARM/CMSIS/5.4.0/CMSIS/Core/Include/cmsis_gcc.h ****   \brief   Get Control Register
 148:/usr/local/lib/ARM/CMSIS/5.4.0/CMSIS/Core/Include/cmsis_gcc.h ****   \details Returns the content of the Control Register.
 149:/usr/local/lib/ARM/CMSIS/5.4.0/CMSIS/Core/Include/cmsis_gcc.h ****   \return               Control Register value
 150:/usr/local/lib/ARM/CMSIS/5.4.0/CMSIS/Core/Include/cmsis_gcc.h ****  */
 151:/usr/local/lib/ARM/CMSIS/5.4.0/CMSIS/Core/Include/cmsis_gcc.h **** __STATIC_FORCEINLINE uint32_t __get_CONTROL(void)
 152:/usr/local/lib/ARM/CMSIS/5.4.0/CMSIS/Core/Include/cmsis_gcc.h **** {
 153:/usr/local/lib/ARM/CMSIS/5.4.0/CMSIS/Core/Include/cmsis_gcc.h ****   uint32_t result;
 154:/usr/local/lib/ARM/CMSIS/5.4.0/CMSIS/Core/Include/cmsis_gcc.h **** 
 155:/usr/local/lib/ARM/CMSIS/5.4.0/CMSIS/Core/Include/cmsis_gcc.h ****   __ASM volatile ("MRS %0, control" : "=r" (result) );
 156:/usr/local/lib/ARM/CMSIS/5.4.0/CMSIS/Core/Include/cmsis_gcc.h ****   return(result);
 157:/usr/local/lib/ARM/CMSIS/5.4.0/CMSIS/Core/Include/cmsis_gcc.h **** }
 158:/usr/local/lib/ARM/CMSIS/5.4.0/CMSIS/Core/Include/cmsis_gcc.h **** 
 159:/usr/local/lib/ARM/CMSIS/5.4.0/CMSIS/Core/Include/cmsis_gcc.h **** 
 160:/usr/local/lib/ARM/CMSIS/5.4.0/CMSIS/Core/Include/cmsis_gcc.h **** #if (defined (__ARM_FEATURE_CMSE ) && (__ARM_FEATURE_CMSE == 3))
 161:/usr/local/lib/ARM/CMSIS/5.4.0/CMSIS/Core/Include/cmsis_gcc.h **** /**
 162:/usr/local/lib/ARM/CMSIS/5.4.0/CMSIS/Core/Include/cmsis_gcc.h ****   \brief   Get Control Register (non-secure)
 163:/usr/local/lib/ARM/CMSIS/5.4.0/CMSIS/Core/Include/cmsis_gcc.h ****   \details Returns the content of the non-secure Control Register when in secure mode.
 164:/usr/local/lib/ARM/CMSIS/5.4.0/CMSIS/Core/Include/cmsis_gcc.h ****   \return               non-secure Control Register value
 165:/usr/local/lib/ARM/CMSIS/5.4.0/CMSIS/Core/Include/cmsis_gcc.h ****  */
 166:/usr/local/lib/ARM/CMSIS/5.4.0/CMSIS/Core/Include/cmsis_gcc.h **** __STATIC_FORCEINLINE uint32_t __TZ_get_CONTROL_NS(void)
 167:/usr/local/lib/ARM/CMSIS/5.4.0/CMSIS/Core/Include/cmsis_gcc.h **** {
 168:/usr/local/lib/ARM/CMSIS/5.4.0/CMSIS/Core/Include/cmsis_gcc.h ****   uint32_t result;
 169:/usr/local/lib/ARM/CMSIS/5.4.0/CMSIS/Core/Include/cmsis_gcc.h **** 
 170:/usr/local/lib/ARM/CMSIS/5.4.0/CMSIS/Core/Include/cmsis_gcc.h ****   __ASM volatile ("MRS %0, control_ns" : "=r" (result) );
 171:/usr/local/lib/ARM/CMSIS/5.4.0/CMSIS/Core/Include/cmsis_gcc.h ****   return(result);
 172:/usr/local/lib/ARM/CMSIS/5.4.0/CMSIS/Core/Include/cmsis_gcc.h **** }
 173:/usr/local/lib/ARM/CMSIS/5.4.0/CMSIS/Core/Include/cmsis_gcc.h **** #endif
 174:/usr/local/lib/ARM/CMSIS/5.4.0/CMSIS/Core/Include/cmsis_gcc.h **** 
 175:/usr/local/lib/ARM/CMSIS/5.4.0/CMSIS/Core/Include/cmsis_gcc.h **** 
 176:/usr/local/lib/ARM/CMSIS/5.4.0/CMSIS/Core/Include/cmsis_gcc.h **** /**
 177:/usr/local/lib/ARM/CMSIS/5.4.0/CMSIS/Core/Include/cmsis_gcc.h ****   \brief   Set Control Register
 178:/usr/local/lib/ARM/CMSIS/5.4.0/CMSIS/Core/Include/cmsis_gcc.h ****   \details Writes the given value to the Control Register.
 179:/usr/local/lib/ARM/CMSIS/5.4.0/CMSIS/Core/Include/cmsis_gcc.h ****   \param [in]    control  Control Register value to set
 180:/usr/local/lib/ARM/CMSIS/5.4.0/CMSIS/Core/Include/cmsis_gcc.h ****  */
 181:/usr/local/lib/ARM/CMSIS/5.4.0/CMSIS/Core/Include/cmsis_gcc.h **** __STATIC_FORCEINLINE void __set_CONTROL(uint32_t control)
 182:/usr/local/lib/ARM/CMSIS/5.4.0/CMSIS/Core/Include/cmsis_gcc.h **** {
 183:/usr/local/lib/ARM/CMSIS/5.4.0/CMSIS/Core/Include/cmsis_gcc.h ****   __ASM volatile ("MSR control, %0" : : "r" (control) : "memory");
ARM GAS  /tmp/cc1jQKzY.s 			page 32


 184:/usr/local/lib/ARM/CMSIS/5.4.0/CMSIS/Core/Include/cmsis_gcc.h **** }
 185:/usr/local/lib/ARM/CMSIS/5.4.0/CMSIS/Core/Include/cmsis_gcc.h **** 
 186:/usr/local/lib/ARM/CMSIS/5.4.0/CMSIS/Core/Include/cmsis_gcc.h **** 
 187:/usr/local/lib/ARM/CMSIS/5.4.0/CMSIS/Core/Include/cmsis_gcc.h **** #if (defined (__ARM_FEATURE_CMSE ) && (__ARM_FEATURE_CMSE == 3))
 188:/usr/local/lib/ARM/CMSIS/5.4.0/CMSIS/Core/Include/cmsis_gcc.h **** /**
 189:/usr/local/lib/ARM/CMSIS/5.4.0/CMSIS/Core/Include/cmsis_gcc.h ****   \brief   Set Control Register (non-secure)
 190:/usr/local/lib/ARM/CMSIS/5.4.0/CMSIS/Core/Include/cmsis_gcc.h ****   \details Writes the given value to the non-secure Control Register when in secure state.
 191:/usr/local/lib/ARM/CMSIS/5.4.0/CMSIS/Core/Include/cmsis_gcc.h ****   \param [in]    control  Control Register value to set
 192:/usr/local/lib/ARM/CMSIS/5.4.0/CMSIS/Core/Include/cmsis_gcc.h ****  */
 193:/usr/local/lib/ARM/CMSIS/5.4.0/CMSIS/Core/Include/cmsis_gcc.h **** __STATIC_FORCEINLINE void __TZ_set_CONTROL_NS(uint32_t control)
 194:/usr/local/lib/ARM/CMSIS/5.4.0/CMSIS/Core/Include/cmsis_gcc.h **** {
 195:/usr/local/lib/ARM/CMSIS/5.4.0/CMSIS/Core/Include/cmsis_gcc.h ****   __ASM volatile ("MSR control_ns, %0" : : "r" (control) : "memory");
 196:/usr/local/lib/ARM/CMSIS/5.4.0/CMSIS/Core/Include/cmsis_gcc.h **** }
 197:/usr/local/lib/ARM/CMSIS/5.4.0/CMSIS/Core/Include/cmsis_gcc.h **** #endif
 198:/usr/local/lib/ARM/CMSIS/5.4.0/CMSIS/Core/Include/cmsis_gcc.h **** 
 199:/usr/local/lib/ARM/CMSIS/5.4.0/CMSIS/Core/Include/cmsis_gcc.h **** 
 200:/usr/local/lib/ARM/CMSIS/5.4.0/CMSIS/Core/Include/cmsis_gcc.h **** /**
 201:/usr/local/lib/ARM/CMSIS/5.4.0/CMSIS/Core/Include/cmsis_gcc.h ****   \brief   Get IPSR Register
 202:/usr/local/lib/ARM/CMSIS/5.4.0/CMSIS/Core/Include/cmsis_gcc.h ****   \details Returns the content of the IPSR Register.
 203:/usr/local/lib/ARM/CMSIS/5.4.0/CMSIS/Core/Include/cmsis_gcc.h ****   \return               IPSR Register value
 204:/usr/local/lib/ARM/CMSIS/5.4.0/CMSIS/Core/Include/cmsis_gcc.h ****  */
 205:/usr/local/lib/ARM/CMSIS/5.4.0/CMSIS/Core/Include/cmsis_gcc.h **** __STATIC_FORCEINLINE uint32_t __get_IPSR(void)
 206:/usr/local/lib/ARM/CMSIS/5.4.0/CMSIS/Core/Include/cmsis_gcc.h **** {
 207:/usr/local/lib/ARM/CMSIS/5.4.0/CMSIS/Core/Include/cmsis_gcc.h ****   uint32_t result;
 208:/usr/local/lib/ARM/CMSIS/5.4.0/CMSIS/Core/Include/cmsis_gcc.h **** 
 209:/usr/local/lib/ARM/CMSIS/5.4.0/CMSIS/Core/Include/cmsis_gcc.h ****   __ASM volatile ("MRS %0, ipsr" : "=r" (result) );
 953              		.loc 3 209 0
 954              		.syntax unified
 955              	@ 209 "/usr/local/lib/ARM/CMSIS/5.4.0/CMSIS/Core/Include/cmsis_gcc.h" 1
 956 0008 EFF30583 		MRS r3, ipsr
 957              	@ 0 "" 2
 958              		.thumb
 959              		.syntax unified
 960              	.LBE120:
 961              	.LBE119:
 962              	.LBE118:
 458:/usr/local/lib/ARM/CMSIS/5.4.0/CMSIS/RTOS2/RTX/Source/rtx_mutex.c ****   if (IsIrqMode() || IsIrqMasked()) {
 963              		.loc 1 458 0
 964 000c 53B9     		cbnz	r3, .L86
 965              	.LBB121:
 966              	.LBB122:
 967              	.LBB123:
 968              	.LBB124:
 210:/usr/local/lib/ARM/CMSIS/5.4.0/CMSIS/Core/Include/cmsis_gcc.h ****   return(result);
 211:/usr/local/lib/ARM/CMSIS/5.4.0/CMSIS/Core/Include/cmsis_gcc.h **** }
 212:/usr/local/lib/ARM/CMSIS/5.4.0/CMSIS/Core/Include/cmsis_gcc.h **** 
 213:/usr/local/lib/ARM/CMSIS/5.4.0/CMSIS/Core/Include/cmsis_gcc.h **** 
 214:/usr/local/lib/ARM/CMSIS/5.4.0/CMSIS/Core/Include/cmsis_gcc.h **** /**
 215:/usr/local/lib/ARM/CMSIS/5.4.0/CMSIS/Core/Include/cmsis_gcc.h ****   \brief   Get APSR Register
 216:/usr/local/lib/ARM/CMSIS/5.4.0/CMSIS/Core/Include/cmsis_gcc.h ****   \details Returns the content of the APSR Register.
 217:/usr/local/lib/ARM/CMSIS/5.4.0/CMSIS/Core/Include/cmsis_gcc.h ****   \return               APSR Register value
 218:/usr/local/lib/ARM/CMSIS/5.4.0/CMSIS/Core/Include/cmsis_gcc.h ****  */
 219:/usr/local/lib/ARM/CMSIS/5.4.0/CMSIS/Core/Include/cmsis_gcc.h **** __STATIC_FORCEINLINE uint32_t __get_APSR(void)
 220:/usr/local/lib/ARM/CMSIS/5.4.0/CMSIS/Core/Include/cmsis_gcc.h **** {
 221:/usr/local/lib/ARM/CMSIS/5.4.0/CMSIS/Core/Include/cmsis_gcc.h ****   uint32_t result;
 222:/usr/local/lib/ARM/CMSIS/5.4.0/CMSIS/Core/Include/cmsis_gcc.h **** 
 223:/usr/local/lib/ARM/CMSIS/5.4.0/CMSIS/Core/Include/cmsis_gcc.h ****   __ASM volatile ("MRS %0, apsr" : "=r" (result) );
ARM GAS  /tmp/cc1jQKzY.s 			page 33


 224:/usr/local/lib/ARM/CMSIS/5.4.0/CMSIS/Core/Include/cmsis_gcc.h ****   return(result);
 225:/usr/local/lib/ARM/CMSIS/5.4.0/CMSIS/Core/Include/cmsis_gcc.h **** }
 226:/usr/local/lib/ARM/CMSIS/5.4.0/CMSIS/Core/Include/cmsis_gcc.h **** 
 227:/usr/local/lib/ARM/CMSIS/5.4.0/CMSIS/Core/Include/cmsis_gcc.h **** 
 228:/usr/local/lib/ARM/CMSIS/5.4.0/CMSIS/Core/Include/cmsis_gcc.h **** /**
 229:/usr/local/lib/ARM/CMSIS/5.4.0/CMSIS/Core/Include/cmsis_gcc.h ****   \brief   Get xPSR Register
 230:/usr/local/lib/ARM/CMSIS/5.4.0/CMSIS/Core/Include/cmsis_gcc.h ****   \details Returns the content of the xPSR Register.
 231:/usr/local/lib/ARM/CMSIS/5.4.0/CMSIS/Core/Include/cmsis_gcc.h ****   \return               xPSR Register value
 232:/usr/local/lib/ARM/CMSIS/5.4.0/CMSIS/Core/Include/cmsis_gcc.h ****  */
 233:/usr/local/lib/ARM/CMSIS/5.4.0/CMSIS/Core/Include/cmsis_gcc.h **** __STATIC_FORCEINLINE uint32_t __get_xPSR(void)
 234:/usr/local/lib/ARM/CMSIS/5.4.0/CMSIS/Core/Include/cmsis_gcc.h **** {
 235:/usr/local/lib/ARM/CMSIS/5.4.0/CMSIS/Core/Include/cmsis_gcc.h ****   uint32_t result;
 236:/usr/local/lib/ARM/CMSIS/5.4.0/CMSIS/Core/Include/cmsis_gcc.h **** 
 237:/usr/local/lib/ARM/CMSIS/5.4.0/CMSIS/Core/Include/cmsis_gcc.h ****   __ASM volatile ("MRS %0, xpsr" : "=r" (result) );
 238:/usr/local/lib/ARM/CMSIS/5.4.0/CMSIS/Core/Include/cmsis_gcc.h ****   return(result);
 239:/usr/local/lib/ARM/CMSIS/5.4.0/CMSIS/Core/Include/cmsis_gcc.h **** }
 240:/usr/local/lib/ARM/CMSIS/5.4.0/CMSIS/Core/Include/cmsis_gcc.h **** 
 241:/usr/local/lib/ARM/CMSIS/5.4.0/CMSIS/Core/Include/cmsis_gcc.h **** 
 242:/usr/local/lib/ARM/CMSIS/5.4.0/CMSIS/Core/Include/cmsis_gcc.h **** /**
 243:/usr/local/lib/ARM/CMSIS/5.4.0/CMSIS/Core/Include/cmsis_gcc.h ****   \brief   Get Process Stack Pointer
 244:/usr/local/lib/ARM/CMSIS/5.4.0/CMSIS/Core/Include/cmsis_gcc.h ****   \details Returns the current value of the Process Stack Pointer (PSP).
 245:/usr/local/lib/ARM/CMSIS/5.4.0/CMSIS/Core/Include/cmsis_gcc.h ****   \return               PSP Register value
 246:/usr/local/lib/ARM/CMSIS/5.4.0/CMSIS/Core/Include/cmsis_gcc.h ****  */
 247:/usr/local/lib/ARM/CMSIS/5.4.0/CMSIS/Core/Include/cmsis_gcc.h **** __STATIC_FORCEINLINE uint32_t __get_PSP(void)
 248:/usr/local/lib/ARM/CMSIS/5.4.0/CMSIS/Core/Include/cmsis_gcc.h **** {
 249:/usr/local/lib/ARM/CMSIS/5.4.0/CMSIS/Core/Include/cmsis_gcc.h ****   uint32_t result;
 250:/usr/local/lib/ARM/CMSIS/5.4.0/CMSIS/Core/Include/cmsis_gcc.h **** 
 251:/usr/local/lib/ARM/CMSIS/5.4.0/CMSIS/Core/Include/cmsis_gcc.h ****   __ASM volatile ("MRS %0, psp"  : "=r" (result) );
 252:/usr/local/lib/ARM/CMSIS/5.4.0/CMSIS/Core/Include/cmsis_gcc.h ****   return(result);
 253:/usr/local/lib/ARM/CMSIS/5.4.0/CMSIS/Core/Include/cmsis_gcc.h **** }
 254:/usr/local/lib/ARM/CMSIS/5.4.0/CMSIS/Core/Include/cmsis_gcc.h **** 
 255:/usr/local/lib/ARM/CMSIS/5.4.0/CMSIS/Core/Include/cmsis_gcc.h **** 
 256:/usr/local/lib/ARM/CMSIS/5.4.0/CMSIS/Core/Include/cmsis_gcc.h **** #if (defined (__ARM_FEATURE_CMSE ) && (__ARM_FEATURE_CMSE == 3))
 257:/usr/local/lib/ARM/CMSIS/5.4.0/CMSIS/Core/Include/cmsis_gcc.h **** /**
 258:/usr/local/lib/ARM/CMSIS/5.4.0/CMSIS/Core/Include/cmsis_gcc.h ****   \brief   Get Process Stack Pointer (non-secure)
 259:/usr/local/lib/ARM/CMSIS/5.4.0/CMSIS/Core/Include/cmsis_gcc.h ****   \details Returns the current value of the non-secure Process Stack Pointer (PSP) when in secure s
 260:/usr/local/lib/ARM/CMSIS/5.4.0/CMSIS/Core/Include/cmsis_gcc.h ****   \return               PSP Register value
 261:/usr/local/lib/ARM/CMSIS/5.4.0/CMSIS/Core/Include/cmsis_gcc.h ****  */
 262:/usr/local/lib/ARM/CMSIS/5.4.0/CMSIS/Core/Include/cmsis_gcc.h **** __STATIC_FORCEINLINE uint32_t __TZ_get_PSP_NS(void)
 263:/usr/local/lib/ARM/CMSIS/5.4.0/CMSIS/Core/Include/cmsis_gcc.h **** {
 264:/usr/local/lib/ARM/CMSIS/5.4.0/CMSIS/Core/Include/cmsis_gcc.h ****   uint32_t result;
 265:/usr/local/lib/ARM/CMSIS/5.4.0/CMSIS/Core/Include/cmsis_gcc.h **** 
 266:/usr/local/lib/ARM/CMSIS/5.4.0/CMSIS/Core/Include/cmsis_gcc.h ****   __ASM volatile ("MRS %0, psp_ns"  : "=r" (result) );
 267:/usr/local/lib/ARM/CMSIS/5.4.0/CMSIS/Core/Include/cmsis_gcc.h ****   return(result);
 268:/usr/local/lib/ARM/CMSIS/5.4.0/CMSIS/Core/Include/cmsis_gcc.h **** }
 269:/usr/local/lib/ARM/CMSIS/5.4.0/CMSIS/Core/Include/cmsis_gcc.h **** #endif
 270:/usr/local/lib/ARM/CMSIS/5.4.0/CMSIS/Core/Include/cmsis_gcc.h **** 
 271:/usr/local/lib/ARM/CMSIS/5.4.0/CMSIS/Core/Include/cmsis_gcc.h **** 
 272:/usr/local/lib/ARM/CMSIS/5.4.0/CMSIS/Core/Include/cmsis_gcc.h **** /**
 273:/usr/local/lib/ARM/CMSIS/5.4.0/CMSIS/Core/Include/cmsis_gcc.h ****   \brief   Set Process Stack Pointer
 274:/usr/local/lib/ARM/CMSIS/5.4.0/CMSIS/Core/Include/cmsis_gcc.h ****   \details Assigns the given value to the Process Stack Pointer (PSP).
 275:/usr/local/lib/ARM/CMSIS/5.4.0/CMSIS/Core/Include/cmsis_gcc.h ****   \param [in]    topOfProcStack  Process Stack Pointer value to set
 276:/usr/local/lib/ARM/CMSIS/5.4.0/CMSIS/Core/Include/cmsis_gcc.h ****  */
 277:/usr/local/lib/ARM/CMSIS/5.4.0/CMSIS/Core/Include/cmsis_gcc.h **** __STATIC_FORCEINLINE void __set_PSP(uint32_t topOfProcStack)
 278:/usr/local/lib/ARM/CMSIS/5.4.0/CMSIS/Core/Include/cmsis_gcc.h **** {
 279:/usr/local/lib/ARM/CMSIS/5.4.0/CMSIS/Core/Include/cmsis_gcc.h ****   __ASM volatile ("MSR psp, %0" : : "r" (topOfProcStack) : );
 280:/usr/local/lib/ARM/CMSIS/5.4.0/CMSIS/Core/Include/cmsis_gcc.h **** }
ARM GAS  /tmp/cc1jQKzY.s 			page 34


 281:/usr/local/lib/ARM/CMSIS/5.4.0/CMSIS/Core/Include/cmsis_gcc.h **** 
 282:/usr/local/lib/ARM/CMSIS/5.4.0/CMSIS/Core/Include/cmsis_gcc.h **** 
 283:/usr/local/lib/ARM/CMSIS/5.4.0/CMSIS/Core/Include/cmsis_gcc.h **** #if (defined (__ARM_FEATURE_CMSE ) && (__ARM_FEATURE_CMSE == 3))
 284:/usr/local/lib/ARM/CMSIS/5.4.0/CMSIS/Core/Include/cmsis_gcc.h **** /**
 285:/usr/local/lib/ARM/CMSIS/5.4.0/CMSIS/Core/Include/cmsis_gcc.h ****   \brief   Set Process Stack Pointer (non-secure)
 286:/usr/local/lib/ARM/CMSIS/5.4.0/CMSIS/Core/Include/cmsis_gcc.h ****   \details Assigns the given value to the non-secure Process Stack Pointer (PSP) when in secure sta
 287:/usr/local/lib/ARM/CMSIS/5.4.0/CMSIS/Core/Include/cmsis_gcc.h ****   \param [in]    topOfProcStack  Process Stack Pointer value to set
 288:/usr/local/lib/ARM/CMSIS/5.4.0/CMSIS/Core/Include/cmsis_gcc.h ****  */
 289:/usr/local/lib/ARM/CMSIS/5.4.0/CMSIS/Core/Include/cmsis_gcc.h **** __STATIC_FORCEINLINE void __TZ_set_PSP_NS(uint32_t topOfProcStack)
 290:/usr/local/lib/ARM/CMSIS/5.4.0/CMSIS/Core/Include/cmsis_gcc.h **** {
 291:/usr/local/lib/ARM/CMSIS/5.4.0/CMSIS/Core/Include/cmsis_gcc.h ****   __ASM volatile ("MSR psp_ns, %0" : : "r" (topOfProcStack) : );
 292:/usr/local/lib/ARM/CMSIS/5.4.0/CMSIS/Core/Include/cmsis_gcc.h **** }
 293:/usr/local/lib/ARM/CMSIS/5.4.0/CMSIS/Core/Include/cmsis_gcc.h **** #endif
 294:/usr/local/lib/ARM/CMSIS/5.4.0/CMSIS/Core/Include/cmsis_gcc.h **** 
 295:/usr/local/lib/ARM/CMSIS/5.4.0/CMSIS/Core/Include/cmsis_gcc.h **** 
 296:/usr/local/lib/ARM/CMSIS/5.4.0/CMSIS/Core/Include/cmsis_gcc.h **** /**
 297:/usr/local/lib/ARM/CMSIS/5.4.0/CMSIS/Core/Include/cmsis_gcc.h ****   \brief   Get Main Stack Pointer
 298:/usr/local/lib/ARM/CMSIS/5.4.0/CMSIS/Core/Include/cmsis_gcc.h ****   \details Returns the current value of the Main Stack Pointer (MSP).
 299:/usr/local/lib/ARM/CMSIS/5.4.0/CMSIS/Core/Include/cmsis_gcc.h ****   \return               MSP Register value
 300:/usr/local/lib/ARM/CMSIS/5.4.0/CMSIS/Core/Include/cmsis_gcc.h ****  */
 301:/usr/local/lib/ARM/CMSIS/5.4.0/CMSIS/Core/Include/cmsis_gcc.h **** __STATIC_FORCEINLINE uint32_t __get_MSP(void)
 302:/usr/local/lib/ARM/CMSIS/5.4.0/CMSIS/Core/Include/cmsis_gcc.h **** {
 303:/usr/local/lib/ARM/CMSIS/5.4.0/CMSIS/Core/Include/cmsis_gcc.h ****   uint32_t result;
 304:/usr/local/lib/ARM/CMSIS/5.4.0/CMSIS/Core/Include/cmsis_gcc.h **** 
 305:/usr/local/lib/ARM/CMSIS/5.4.0/CMSIS/Core/Include/cmsis_gcc.h ****   __ASM volatile ("MRS %0, msp" : "=r" (result) );
 306:/usr/local/lib/ARM/CMSIS/5.4.0/CMSIS/Core/Include/cmsis_gcc.h ****   return(result);
 307:/usr/local/lib/ARM/CMSIS/5.4.0/CMSIS/Core/Include/cmsis_gcc.h **** }
 308:/usr/local/lib/ARM/CMSIS/5.4.0/CMSIS/Core/Include/cmsis_gcc.h **** 
 309:/usr/local/lib/ARM/CMSIS/5.4.0/CMSIS/Core/Include/cmsis_gcc.h **** 
 310:/usr/local/lib/ARM/CMSIS/5.4.0/CMSIS/Core/Include/cmsis_gcc.h **** #if (defined (__ARM_FEATURE_CMSE ) && (__ARM_FEATURE_CMSE == 3))
 311:/usr/local/lib/ARM/CMSIS/5.4.0/CMSIS/Core/Include/cmsis_gcc.h **** /**
 312:/usr/local/lib/ARM/CMSIS/5.4.0/CMSIS/Core/Include/cmsis_gcc.h ****   \brief   Get Main Stack Pointer (non-secure)
 313:/usr/local/lib/ARM/CMSIS/5.4.0/CMSIS/Core/Include/cmsis_gcc.h ****   \details Returns the current value of the non-secure Main Stack Pointer (MSP) when in secure stat
 314:/usr/local/lib/ARM/CMSIS/5.4.0/CMSIS/Core/Include/cmsis_gcc.h ****   \return               MSP Register value
 315:/usr/local/lib/ARM/CMSIS/5.4.0/CMSIS/Core/Include/cmsis_gcc.h ****  */
 316:/usr/local/lib/ARM/CMSIS/5.4.0/CMSIS/Core/Include/cmsis_gcc.h **** __STATIC_FORCEINLINE uint32_t __TZ_get_MSP_NS(void)
 317:/usr/local/lib/ARM/CMSIS/5.4.0/CMSIS/Core/Include/cmsis_gcc.h **** {
 318:/usr/local/lib/ARM/CMSIS/5.4.0/CMSIS/Core/Include/cmsis_gcc.h ****   uint32_t result;
 319:/usr/local/lib/ARM/CMSIS/5.4.0/CMSIS/Core/Include/cmsis_gcc.h **** 
 320:/usr/local/lib/ARM/CMSIS/5.4.0/CMSIS/Core/Include/cmsis_gcc.h ****   __ASM volatile ("MRS %0, msp_ns" : "=r" (result) );
 321:/usr/local/lib/ARM/CMSIS/5.4.0/CMSIS/Core/Include/cmsis_gcc.h ****   return(result);
 322:/usr/local/lib/ARM/CMSIS/5.4.0/CMSIS/Core/Include/cmsis_gcc.h **** }
 323:/usr/local/lib/ARM/CMSIS/5.4.0/CMSIS/Core/Include/cmsis_gcc.h **** #endif
 324:/usr/local/lib/ARM/CMSIS/5.4.0/CMSIS/Core/Include/cmsis_gcc.h **** 
 325:/usr/local/lib/ARM/CMSIS/5.4.0/CMSIS/Core/Include/cmsis_gcc.h **** 
 326:/usr/local/lib/ARM/CMSIS/5.4.0/CMSIS/Core/Include/cmsis_gcc.h **** /**
 327:/usr/local/lib/ARM/CMSIS/5.4.0/CMSIS/Core/Include/cmsis_gcc.h ****   \brief   Set Main Stack Pointer
 328:/usr/local/lib/ARM/CMSIS/5.4.0/CMSIS/Core/Include/cmsis_gcc.h ****   \details Assigns the given value to the Main Stack Pointer (MSP).
 329:/usr/local/lib/ARM/CMSIS/5.4.0/CMSIS/Core/Include/cmsis_gcc.h ****   \param [in]    topOfMainStack  Main Stack Pointer value to set
 330:/usr/local/lib/ARM/CMSIS/5.4.0/CMSIS/Core/Include/cmsis_gcc.h ****  */
 331:/usr/local/lib/ARM/CMSIS/5.4.0/CMSIS/Core/Include/cmsis_gcc.h **** __STATIC_FORCEINLINE void __set_MSP(uint32_t topOfMainStack)
 332:/usr/local/lib/ARM/CMSIS/5.4.0/CMSIS/Core/Include/cmsis_gcc.h **** {
 333:/usr/local/lib/ARM/CMSIS/5.4.0/CMSIS/Core/Include/cmsis_gcc.h ****   __ASM volatile ("MSR msp, %0" : : "r" (topOfMainStack) : );
 334:/usr/local/lib/ARM/CMSIS/5.4.0/CMSIS/Core/Include/cmsis_gcc.h **** }
 335:/usr/local/lib/ARM/CMSIS/5.4.0/CMSIS/Core/Include/cmsis_gcc.h **** 
 336:/usr/local/lib/ARM/CMSIS/5.4.0/CMSIS/Core/Include/cmsis_gcc.h **** 
 337:/usr/local/lib/ARM/CMSIS/5.4.0/CMSIS/Core/Include/cmsis_gcc.h **** #if (defined (__ARM_FEATURE_CMSE ) && (__ARM_FEATURE_CMSE == 3))
ARM GAS  /tmp/cc1jQKzY.s 			page 35


 338:/usr/local/lib/ARM/CMSIS/5.4.0/CMSIS/Core/Include/cmsis_gcc.h **** /**
 339:/usr/local/lib/ARM/CMSIS/5.4.0/CMSIS/Core/Include/cmsis_gcc.h ****   \brief   Set Main Stack Pointer (non-secure)
 340:/usr/local/lib/ARM/CMSIS/5.4.0/CMSIS/Core/Include/cmsis_gcc.h ****   \details Assigns the given value to the non-secure Main Stack Pointer (MSP) when in secure state.
 341:/usr/local/lib/ARM/CMSIS/5.4.0/CMSIS/Core/Include/cmsis_gcc.h ****   \param [in]    topOfMainStack  Main Stack Pointer value to set
 342:/usr/local/lib/ARM/CMSIS/5.4.0/CMSIS/Core/Include/cmsis_gcc.h ****  */
 343:/usr/local/lib/ARM/CMSIS/5.4.0/CMSIS/Core/Include/cmsis_gcc.h **** __STATIC_FORCEINLINE void __TZ_set_MSP_NS(uint32_t topOfMainStack)
 344:/usr/local/lib/ARM/CMSIS/5.4.0/CMSIS/Core/Include/cmsis_gcc.h **** {
 345:/usr/local/lib/ARM/CMSIS/5.4.0/CMSIS/Core/Include/cmsis_gcc.h ****   __ASM volatile ("MSR msp_ns, %0" : : "r" (topOfMainStack) : );
 346:/usr/local/lib/ARM/CMSIS/5.4.0/CMSIS/Core/Include/cmsis_gcc.h **** }
 347:/usr/local/lib/ARM/CMSIS/5.4.0/CMSIS/Core/Include/cmsis_gcc.h **** #endif
 348:/usr/local/lib/ARM/CMSIS/5.4.0/CMSIS/Core/Include/cmsis_gcc.h **** 
 349:/usr/local/lib/ARM/CMSIS/5.4.0/CMSIS/Core/Include/cmsis_gcc.h **** 
 350:/usr/local/lib/ARM/CMSIS/5.4.0/CMSIS/Core/Include/cmsis_gcc.h **** #if (defined (__ARM_FEATURE_CMSE ) && (__ARM_FEATURE_CMSE == 3))
 351:/usr/local/lib/ARM/CMSIS/5.4.0/CMSIS/Core/Include/cmsis_gcc.h **** /**
 352:/usr/local/lib/ARM/CMSIS/5.4.0/CMSIS/Core/Include/cmsis_gcc.h ****   \brief   Get Stack Pointer (non-secure)
 353:/usr/local/lib/ARM/CMSIS/5.4.0/CMSIS/Core/Include/cmsis_gcc.h ****   \details Returns the current value of the non-secure Stack Pointer (SP) when in secure state.
 354:/usr/local/lib/ARM/CMSIS/5.4.0/CMSIS/Core/Include/cmsis_gcc.h ****   \return               SP Register value
 355:/usr/local/lib/ARM/CMSIS/5.4.0/CMSIS/Core/Include/cmsis_gcc.h ****  */
 356:/usr/local/lib/ARM/CMSIS/5.4.0/CMSIS/Core/Include/cmsis_gcc.h **** __STATIC_FORCEINLINE uint32_t __TZ_get_SP_NS(void)
 357:/usr/local/lib/ARM/CMSIS/5.4.0/CMSIS/Core/Include/cmsis_gcc.h **** {
 358:/usr/local/lib/ARM/CMSIS/5.4.0/CMSIS/Core/Include/cmsis_gcc.h ****   uint32_t result;
 359:/usr/local/lib/ARM/CMSIS/5.4.0/CMSIS/Core/Include/cmsis_gcc.h **** 
 360:/usr/local/lib/ARM/CMSIS/5.4.0/CMSIS/Core/Include/cmsis_gcc.h ****   __ASM volatile ("MRS %0, sp_ns" : "=r" (result) );
 361:/usr/local/lib/ARM/CMSIS/5.4.0/CMSIS/Core/Include/cmsis_gcc.h ****   return(result);
 362:/usr/local/lib/ARM/CMSIS/5.4.0/CMSIS/Core/Include/cmsis_gcc.h **** }
 363:/usr/local/lib/ARM/CMSIS/5.4.0/CMSIS/Core/Include/cmsis_gcc.h **** 
 364:/usr/local/lib/ARM/CMSIS/5.4.0/CMSIS/Core/Include/cmsis_gcc.h **** 
 365:/usr/local/lib/ARM/CMSIS/5.4.0/CMSIS/Core/Include/cmsis_gcc.h **** /**
 366:/usr/local/lib/ARM/CMSIS/5.4.0/CMSIS/Core/Include/cmsis_gcc.h ****   \brief   Set Stack Pointer (non-secure)
 367:/usr/local/lib/ARM/CMSIS/5.4.0/CMSIS/Core/Include/cmsis_gcc.h ****   \details Assigns the given value to the non-secure Stack Pointer (SP) when in secure state.
 368:/usr/local/lib/ARM/CMSIS/5.4.0/CMSIS/Core/Include/cmsis_gcc.h ****   \param [in]    topOfStack  Stack Pointer value to set
 369:/usr/local/lib/ARM/CMSIS/5.4.0/CMSIS/Core/Include/cmsis_gcc.h ****  */
 370:/usr/local/lib/ARM/CMSIS/5.4.0/CMSIS/Core/Include/cmsis_gcc.h **** __STATIC_FORCEINLINE void __TZ_set_SP_NS(uint32_t topOfStack)
 371:/usr/local/lib/ARM/CMSIS/5.4.0/CMSIS/Core/Include/cmsis_gcc.h **** {
 372:/usr/local/lib/ARM/CMSIS/5.4.0/CMSIS/Core/Include/cmsis_gcc.h ****   __ASM volatile ("MSR sp_ns, %0" : : "r" (topOfStack) : );
 373:/usr/local/lib/ARM/CMSIS/5.4.0/CMSIS/Core/Include/cmsis_gcc.h **** }
 374:/usr/local/lib/ARM/CMSIS/5.4.0/CMSIS/Core/Include/cmsis_gcc.h **** #endif
 375:/usr/local/lib/ARM/CMSIS/5.4.0/CMSIS/Core/Include/cmsis_gcc.h **** 
 376:/usr/local/lib/ARM/CMSIS/5.4.0/CMSIS/Core/Include/cmsis_gcc.h **** 
 377:/usr/local/lib/ARM/CMSIS/5.4.0/CMSIS/Core/Include/cmsis_gcc.h **** /**
 378:/usr/local/lib/ARM/CMSIS/5.4.0/CMSIS/Core/Include/cmsis_gcc.h ****   \brief   Get Priority Mask
 379:/usr/local/lib/ARM/CMSIS/5.4.0/CMSIS/Core/Include/cmsis_gcc.h ****   \details Returns the current state of the priority mask bit from the Priority Mask Register.
 380:/usr/local/lib/ARM/CMSIS/5.4.0/CMSIS/Core/Include/cmsis_gcc.h ****   \return               Priority Mask value
 381:/usr/local/lib/ARM/CMSIS/5.4.0/CMSIS/Core/Include/cmsis_gcc.h ****  */
 382:/usr/local/lib/ARM/CMSIS/5.4.0/CMSIS/Core/Include/cmsis_gcc.h **** __STATIC_FORCEINLINE uint32_t __get_PRIMASK(void)
 383:/usr/local/lib/ARM/CMSIS/5.4.0/CMSIS/Core/Include/cmsis_gcc.h **** {
 384:/usr/local/lib/ARM/CMSIS/5.4.0/CMSIS/Core/Include/cmsis_gcc.h ****   uint32_t result;
 385:/usr/local/lib/ARM/CMSIS/5.4.0/CMSIS/Core/Include/cmsis_gcc.h **** 
 386:/usr/local/lib/ARM/CMSIS/5.4.0/CMSIS/Core/Include/cmsis_gcc.h ****   __ASM volatile ("MRS %0, primask" : "=r" (result) :: "memory");
 969              		.loc 3 386 0
 970              		.syntax unified
 971              	@ 386 "/usr/local/lib/ARM/CMSIS/5.4.0/CMSIS/Core/Include/cmsis_gcc.h" 1
 972 000e EFF31083 		MRS r3, primask
 973              	@ 0 "" 2
 974              		.thumb
 975              		.syntax unified
 976              	.LBE124:
ARM GAS  /tmp/cc1jQKzY.s 			page 36


 977              	.LBE123:
 978              		.file 4 "/usr/local/lib/ARM/CMSIS/5.4.0/CMSIS/RTOS2/RTX/Source/rtx_core_cm.h"
   1:/usr/local/lib/ARM/CMSIS/5.4.0/CMSIS/RTOS2/RTX/Source/rtx_core_cm.h **** /*
   2:/usr/local/lib/ARM/CMSIS/5.4.0/CMSIS/RTOS2/RTX/Source/rtx_core_cm.h ****  * Copyright (c) 2013-2018 Arm Limited. All rights reserved.
   3:/usr/local/lib/ARM/CMSIS/5.4.0/CMSIS/RTOS2/RTX/Source/rtx_core_cm.h ****  *
   4:/usr/local/lib/ARM/CMSIS/5.4.0/CMSIS/RTOS2/RTX/Source/rtx_core_cm.h ****  * SPDX-License-Identifier: Apache-2.0
   5:/usr/local/lib/ARM/CMSIS/5.4.0/CMSIS/RTOS2/RTX/Source/rtx_core_cm.h ****  *
   6:/usr/local/lib/ARM/CMSIS/5.4.0/CMSIS/RTOS2/RTX/Source/rtx_core_cm.h ****  * Licensed under the Apache License, Version 2.0 (the License); you may
   7:/usr/local/lib/ARM/CMSIS/5.4.0/CMSIS/RTOS2/RTX/Source/rtx_core_cm.h ****  * not use this file except in compliance with the License.
   8:/usr/local/lib/ARM/CMSIS/5.4.0/CMSIS/RTOS2/RTX/Source/rtx_core_cm.h ****  * You may obtain a copy of the License at
   9:/usr/local/lib/ARM/CMSIS/5.4.0/CMSIS/RTOS2/RTX/Source/rtx_core_cm.h ****  *
  10:/usr/local/lib/ARM/CMSIS/5.4.0/CMSIS/RTOS2/RTX/Source/rtx_core_cm.h ****  * www.apache.org/licenses/LICENSE-2.0
  11:/usr/local/lib/ARM/CMSIS/5.4.0/CMSIS/RTOS2/RTX/Source/rtx_core_cm.h ****  *
  12:/usr/local/lib/ARM/CMSIS/5.4.0/CMSIS/RTOS2/RTX/Source/rtx_core_cm.h ****  * Unless required by applicable law or agreed to in writing, software
  13:/usr/local/lib/ARM/CMSIS/5.4.0/CMSIS/RTOS2/RTX/Source/rtx_core_cm.h ****  * distributed under the License is distributed on an AS IS BASIS, WITHOUT
  14:/usr/local/lib/ARM/CMSIS/5.4.0/CMSIS/RTOS2/RTX/Source/rtx_core_cm.h ****  * WARRANTIES OR CONDITIONS OF ANY KIND, either express or implied.
  15:/usr/local/lib/ARM/CMSIS/5.4.0/CMSIS/RTOS2/RTX/Source/rtx_core_cm.h ****  * See the License for the specific language governing permissions and
  16:/usr/local/lib/ARM/CMSIS/5.4.0/CMSIS/RTOS2/RTX/Source/rtx_core_cm.h ****  * limitations under the License.
  17:/usr/local/lib/ARM/CMSIS/5.4.0/CMSIS/RTOS2/RTX/Source/rtx_core_cm.h ****  *
  18:/usr/local/lib/ARM/CMSIS/5.4.0/CMSIS/RTOS2/RTX/Source/rtx_core_cm.h ****  * -----------------------------------------------------------------------------
  19:/usr/local/lib/ARM/CMSIS/5.4.0/CMSIS/RTOS2/RTX/Source/rtx_core_cm.h ****  *
  20:/usr/local/lib/ARM/CMSIS/5.4.0/CMSIS/RTOS2/RTX/Source/rtx_core_cm.h ****  * Project:     CMSIS-RTOS RTX
  21:/usr/local/lib/ARM/CMSIS/5.4.0/CMSIS/RTOS2/RTX/Source/rtx_core_cm.h ****  * Title:       Cortex-M Core definitions
  22:/usr/local/lib/ARM/CMSIS/5.4.0/CMSIS/RTOS2/RTX/Source/rtx_core_cm.h ****  *
  23:/usr/local/lib/ARM/CMSIS/5.4.0/CMSIS/RTOS2/RTX/Source/rtx_core_cm.h ****  * -----------------------------------------------------------------------------
  24:/usr/local/lib/ARM/CMSIS/5.4.0/CMSIS/RTOS2/RTX/Source/rtx_core_cm.h ****  */
  25:/usr/local/lib/ARM/CMSIS/5.4.0/CMSIS/RTOS2/RTX/Source/rtx_core_cm.h **** 
  26:/usr/local/lib/ARM/CMSIS/5.4.0/CMSIS/RTOS2/RTX/Source/rtx_core_cm.h **** #ifndef RTX_CORE_CM_H_
  27:/usr/local/lib/ARM/CMSIS/5.4.0/CMSIS/RTOS2/RTX/Source/rtx_core_cm.h **** #define RTX_CORE_CM_H_
  28:/usr/local/lib/ARM/CMSIS/5.4.0/CMSIS/RTOS2/RTX/Source/rtx_core_cm.h **** 
  29:/usr/local/lib/ARM/CMSIS/5.4.0/CMSIS/RTOS2/RTX/Source/rtx_core_cm.h **** #ifndef RTX_CORE_C_H_
  30:/usr/local/lib/ARM/CMSIS/5.4.0/CMSIS/RTOS2/RTX/Source/rtx_core_cm.h **** #include "RTE_Components.h"
  31:/usr/local/lib/ARM/CMSIS/5.4.0/CMSIS/RTOS2/RTX/Source/rtx_core_cm.h **** #include CMSIS_device_header
  32:/usr/local/lib/ARM/CMSIS/5.4.0/CMSIS/RTOS2/RTX/Source/rtx_core_cm.h **** #endif
  33:/usr/local/lib/ARM/CMSIS/5.4.0/CMSIS/RTOS2/RTX/Source/rtx_core_cm.h **** 
  34:/usr/local/lib/ARM/CMSIS/5.4.0/CMSIS/RTOS2/RTX/Source/rtx_core_cm.h **** #include <stdbool.h>
  35:/usr/local/lib/ARM/CMSIS/5.4.0/CMSIS/RTOS2/RTX/Source/rtx_core_cm.h **** typedef bool bool_t;
  36:/usr/local/lib/ARM/CMSIS/5.4.0/CMSIS/RTOS2/RTX/Source/rtx_core_cm.h **** #define FALSE                   ((bool_t)0)
  37:/usr/local/lib/ARM/CMSIS/5.4.0/CMSIS/RTOS2/RTX/Source/rtx_core_cm.h **** #define TRUE                    ((bool_t)1)
  38:/usr/local/lib/ARM/CMSIS/5.4.0/CMSIS/RTOS2/RTX/Source/rtx_core_cm.h **** 
  39:/usr/local/lib/ARM/CMSIS/5.4.0/CMSIS/RTOS2/RTX/Source/rtx_core_cm.h **** #ifdef  RTE_CMSIS_RTOS2_RTX5_ARMV8M_NS
  40:/usr/local/lib/ARM/CMSIS/5.4.0/CMSIS/RTOS2/RTX/Source/rtx_core_cm.h **** #define DOMAIN_NS               1
  41:/usr/local/lib/ARM/CMSIS/5.4.0/CMSIS/RTOS2/RTX/Source/rtx_core_cm.h **** #endif
  42:/usr/local/lib/ARM/CMSIS/5.4.0/CMSIS/RTOS2/RTX/Source/rtx_core_cm.h **** 
  43:/usr/local/lib/ARM/CMSIS/5.4.0/CMSIS/RTOS2/RTX/Source/rtx_core_cm.h **** #ifndef DOMAIN_NS
  44:/usr/local/lib/ARM/CMSIS/5.4.0/CMSIS/RTOS2/RTX/Source/rtx_core_cm.h **** #define DOMAIN_NS               0
  45:/usr/local/lib/ARM/CMSIS/5.4.0/CMSIS/RTOS2/RTX/Source/rtx_core_cm.h **** #endif
  46:/usr/local/lib/ARM/CMSIS/5.4.0/CMSIS/RTOS2/RTX/Source/rtx_core_cm.h **** 
  47:/usr/local/lib/ARM/CMSIS/5.4.0/CMSIS/RTOS2/RTX/Source/rtx_core_cm.h **** #if    (DOMAIN_NS == 1)
  48:/usr/local/lib/ARM/CMSIS/5.4.0/CMSIS/RTOS2/RTX/Source/rtx_core_cm.h **** #if   ((!defined(__ARM_ARCH_8M_BASE__) || (__ARM_ARCH_8M_BASE__ == 0)) && \
  49:/usr/local/lib/ARM/CMSIS/5.4.0/CMSIS/RTOS2/RTX/Source/rtx_core_cm.h ****        (!defined(__ARM_ARCH_8M_MAIN__) || (__ARM_ARCH_8M_MAIN__ == 0)))
  50:/usr/local/lib/ARM/CMSIS/5.4.0/CMSIS/RTOS2/RTX/Source/rtx_core_cm.h **** #error "Non-secure domain requires ARMv8-M Architecture!"
  51:/usr/local/lib/ARM/CMSIS/5.4.0/CMSIS/RTOS2/RTX/Source/rtx_core_cm.h **** #endif
  52:/usr/local/lib/ARM/CMSIS/5.4.0/CMSIS/RTOS2/RTX/Source/rtx_core_cm.h **** #endif
  53:/usr/local/lib/ARM/CMSIS/5.4.0/CMSIS/RTOS2/RTX/Source/rtx_core_cm.h **** 
  54:/usr/local/lib/ARM/CMSIS/5.4.0/CMSIS/RTOS2/RTX/Source/rtx_core_cm.h **** #ifndef EXCLUSIVE_ACCESS
  55:/usr/local/lib/ARM/CMSIS/5.4.0/CMSIS/RTOS2/RTX/Source/rtx_core_cm.h **** #if    ((defined(__ARM_ARCH_7M__)      && (__ARM_ARCH_7M__      != 0)) || \
ARM GAS  /tmp/cc1jQKzY.s 			page 37


  56:/usr/local/lib/ARM/CMSIS/5.4.0/CMSIS/RTOS2/RTX/Source/rtx_core_cm.h ****         (defined(__ARM_ARCH_7EM__)     && (__ARM_ARCH_7EM__     != 0)) || \
  57:/usr/local/lib/ARM/CMSIS/5.4.0/CMSIS/RTOS2/RTX/Source/rtx_core_cm.h ****         (defined(__ARM_ARCH_8M_BASE__) && (__ARM_ARCH_8M_BASE__ != 0)) || \
  58:/usr/local/lib/ARM/CMSIS/5.4.0/CMSIS/RTOS2/RTX/Source/rtx_core_cm.h ****         (defined(__ARM_ARCH_8M_MAIN__) && (__ARM_ARCH_8M_MAIN__ != 0)))
  59:/usr/local/lib/ARM/CMSIS/5.4.0/CMSIS/RTOS2/RTX/Source/rtx_core_cm.h **** #define EXCLUSIVE_ACCESS        1
  60:/usr/local/lib/ARM/CMSIS/5.4.0/CMSIS/RTOS2/RTX/Source/rtx_core_cm.h **** #else
  61:/usr/local/lib/ARM/CMSIS/5.4.0/CMSIS/RTOS2/RTX/Source/rtx_core_cm.h **** #define EXCLUSIVE_ACCESS        0
  62:/usr/local/lib/ARM/CMSIS/5.4.0/CMSIS/RTOS2/RTX/Source/rtx_core_cm.h **** #endif
  63:/usr/local/lib/ARM/CMSIS/5.4.0/CMSIS/RTOS2/RTX/Source/rtx_core_cm.h **** #endif
  64:/usr/local/lib/ARM/CMSIS/5.4.0/CMSIS/RTOS2/RTX/Source/rtx_core_cm.h **** 
  65:/usr/local/lib/ARM/CMSIS/5.4.0/CMSIS/RTOS2/RTX/Source/rtx_core_cm.h **** #define OS_TICK_HANDLER         SysTick_Handler
  66:/usr/local/lib/ARM/CMSIS/5.4.0/CMSIS/RTOS2/RTX/Source/rtx_core_cm.h **** 
  67:/usr/local/lib/ARM/CMSIS/5.4.0/CMSIS/RTOS2/RTX/Source/rtx_core_cm.h **** /// xPSR_Initialization Value
  68:/usr/local/lib/ARM/CMSIS/5.4.0/CMSIS/RTOS2/RTX/Source/rtx_core_cm.h **** /// \param[in]  privileged      true=privileged, false=unprivileged
  69:/usr/local/lib/ARM/CMSIS/5.4.0/CMSIS/RTOS2/RTX/Source/rtx_core_cm.h **** /// \param[in]  thumb           true=Thumb, false=ARM
  70:/usr/local/lib/ARM/CMSIS/5.4.0/CMSIS/RTOS2/RTX/Source/rtx_core_cm.h **** /// \return                     xPSR Init Value
  71:/usr/local/lib/ARM/CMSIS/5.4.0/CMSIS/RTOS2/RTX/Source/rtx_core_cm.h **** __STATIC_INLINE uint32_t xPSR_InitVal (bool_t privileged, bool_t thumb) {
  72:/usr/local/lib/ARM/CMSIS/5.4.0/CMSIS/RTOS2/RTX/Source/rtx_core_cm.h ****   (void)privileged;
  73:/usr/local/lib/ARM/CMSIS/5.4.0/CMSIS/RTOS2/RTX/Source/rtx_core_cm.h ****   (void)thumb;
  74:/usr/local/lib/ARM/CMSIS/5.4.0/CMSIS/RTOS2/RTX/Source/rtx_core_cm.h ****   return (0x01000000U);
  75:/usr/local/lib/ARM/CMSIS/5.4.0/CMSIS/RTOS2/RTX/Source/rtx_core_cm.h **** }
  76:/usr/local/lib/ARM/CMSIS/5.4.0/CMSIS/RTOS2/RTX/Source/rtx_core_cm.h **** 
  77:/usr/local/lib/ARM/CMSIS/5.4.0/CMSIS/RTOS2/RTX/Source/rtx_core_cm.h **** // Stack Frame:
  78:/usr/local/lib/ARM/CMSIS/5.4.0/CMSIS/RTOS2/RTX/Source/rtx_core_cm.h **** //  - Extended: S16-S31, R4-R11, R0-R3, R12, LR, PC, xPSR, S0-S15, FPSCR
  79:/usr/local/lib/ARM/CMSIS/5.4.0/CMSIS/RTOS2/RTX/Source/rtx_core_cm.h **** //  - Basic:             R4-R11, R0-R3, R12, LR, PC, xPSR
  80:/usr/local/lib/ARM/CMSIS/5.4.0/CMSIS/RTOS2/RTX/Source/rtx_core_cm.h **** 
  81:/usr/local/lib/ARM/CMSIS/5.4.0/CMSIS/RTOS2/RTX/Source/rtx_core_cm.h **** /// Stack Frame Initialization Value (EXC_RETURN[7..0])
  82:/usr/local/lib/ARM/CMSIS/5.4.0/CMSIS/RTOS2/RTX/Source/rtx_core_cm.h **** #if (DOMAIN_NS == 1)
  83:/usr/local/lib/ARM/CMSIS/5.4.0/CMSIS/RTOS2/RTX/Source/rtx_core_cm.h **** #define STACK_FRAME_INIT_VAL    0xBCU
  84:/usr/local/lib/ARM/CMSIS/5.4.0/CMSIS/RTOS2/RTX/Source/rtx_core_cm.h **** #else
  85:/usr/local/lib/ARM/CMSIS/5.4.0/CMSIS/RTOS2/RTX/Source/rtx_core_cm.h **** #define STACK_FRAME_INIT_VAL    0xFDU
  86:/usr/local/lib/ARM/CMSIS/5.4.0/CMSIS/RTOS2/RTX/Source/rtx_core_cm.h **** #endif
  87:/usr/local/lib/ARM/CMSIS/5.4.0/CMSIS/RTOS2/RTX/Source/rtx_core_cm.h **** 
  88:/usr/local/lib/ARM/CMSIS/5.4.0/CMSIS/RTOS2/RTX/Source/rtx_core_cm.h **** /// Stack Offset of Register R0
  89:/usr/local/lib/ARM/CMSIS/5.4.0/CMSIS/RTOS2/RTX/Source/rtx_core_cm.h **** /// \param[in]  stack_frame     Stack Frame (EXC_RETURN[7..0])
  90:/usr/local/lib/ARM/CMSIS/5.4.0/CMSIS/RTOS2/RTX/Source/rtx_core_cm.h **** /// \return                     R0 Offset
  91:/usr/local/lib/ARM/CMSIS/5.4.0/CMSIS/RTOS2/RTX/Source/rtx_core_cm.h **** __STATIC_INLINE uint32_t StackOffsetR0 (uint8_t stack_frame) {
  92:/usr/local/lib/ARM/CMSIS/5.4.0/CMSIS/RTOS2/RTX/Source/rtx_core_cm.h **** #if (__FPU_USED == 1U)
  93:/usr/local/lib/ARM/CMSIS/5.4.0/CMSIS/RTOS2/RTX/Source/rtx_core_cm.h ****   return (((stack_frame & 0x10U) == 0U) ? ((16U+8U)*4U) : (8U*4U));
  94:/usr/local/lib/ARM/CMSIS/5.4.0/CMSIS/RTOS2/RTX/Source/rtx_core_cm.h **** #else
  95:/usr/local/lib/ARM/CMSIS/5.4.0/CMSIS/RTOS2/RTX/Source/rtx_core_cm.h ****   (void)stack_frame;
  96:/usr/local/lib/ARM/CMSIS/5.4.0/CMSIS/RTOS2/RTX/Source/rtx_core_cm.h ****   return (8U*4U);
  97:/usr/local/lib/ARM/CMSIS/5.4.0/CMSIS/RTOS2/RTX/Source/rtx_core_cm.h **** #endif
  98:/usr/local/lib/ARM/CMSIS/5.4.0/CMSIS/RTOS2/RTX/Source/rtx_core_cm.h **** }
  99:/usr/local/lib/ARM/CMSIS/5.4.0/CMSIS/RTOS2/RTX/Source/rtx_core_cm.h **** 
 100:/usr/local/lib/ARM/CMSIS/5.4.0/CMSIS/RTOS2/RTX/Source/rtx_core_cm.h **** 
 101:/usr/local/lib/ARM/CMSIS/5.4.0/CMSIS/RTOS2/RTX/Source/rtx_core_cm.h **** //  ==== Core functions ====
 102:/usr/local/lib/ARM/CMSIS/5.4.0/CMSIS/RTOS2/RTX/Source/rtx_core_cm.h **** 
 103:/usr/local/lib/ARM/CMSIS/5.4.0/CMSIS/RTOS2/RTX/Source/rtx_core_cm.h **** //lint -sem(__get_CONTROL, pure)
 104:/usr/local/lib/ARM/CMSIS/5.4.0/CMSIS/RTOS2/RTX/Source/rtx_core_cm.h **** //lint -sem(__get_IPSR,    pure)
 105:/usr/local/lib/ARM/CMSIS/5.4.0/CMSIS/RTOS2/RTX/Source/rtx_core_cm.h **** //lint -sem(__get_PRIMASK, pure)
 106:/usr/local/lib/ARM/CMSIS/5.4.0/CMSIS/RTOS2/RTX/Source/rtx_core_cm.h **** //lint -sem(__get_BASEPRI, pure)
 107:/usr/local/lib/ARM/CMSIS/5.4.0/CMSIS/RTOS2/RTX/Source/rtx_core_cm.h **** 
 108:/usr/local/lib/ARM/CMSIS/5.4.0/CMSIS/RTOS2/RTX/Source/rtx_core_cm.h **** /// Check if running Privileged
 109:/usr/local/lib/ARM/CMSIS/5.4.0/CMSIS/RTOS2/RTX/Source/rtx_core_cm.h **** /// \return     true=privileged, false=unprivileged
 110:/usr/local/lib/ARM/CMSIS/5.4.0/CMSIS/RTOS2/RTX/Source/rtx_core_cm.h **** __STATIC_INLINE bool_t IsPrivileged (void) {
 111:/usr/local/lib/ARM/CMSIS/5.4.0/CMSIS/RTOS2/RTX/Source/rtx_core_cm.h ****   return ((__get_CONTROL() & 1U) == 0U);
 112:/usr/local/lib/ARM/CMSIS/5.4.0/CMSIS/RTOS2/RTX/Source/rtx_core_cm.h **** }
ARM GAS  /tmp/cc1jQKzY.s 			page 38


 113:/usr/local/lib/ARM/CMSIS/5.4.0/CMSIS/RTOS2/RTX/Source/rtx_core_cm.h **** 
 114:/usr/local/lib/ARM/CMSIS/5.4.0/CMSIS/RTOS2/RTX/Source/rtx_core_cm.h **** /// Check if in IRQ Mode
 115:/usr/local/lib/ARM/CMSIS/5.4.0/CMSIS/RTOS2/RTX/Source/rtx_core_cm.h **** /// \return     true=IRQ, false=thread
 116:/usr/local/lib/ARM/CMSIS/5.4.0/CMSIS/RTOS2/RTX/Source/rtx_core_cm.h **** __STATIC_INLINE bool_t IsIrqMode (void) {
 117:/usr/local/lib/ARM/CMSIS/5.4.0/CMSIS/RTOS2/RTX/Source/rtx_core_cm.h ****   return (__get_IPSR() != 0U);
 118:/usr/local/lib/ARM/CMSIS/5.4.0/CMSIS/RTOS2/RTX/Source/rtx_core_cm.h **** }
 119:/usr/local/lib/ARM/CMSIS/5.4.0/CMSIS/RTOS2/RTX/Source/rtx_core_cm.h **** 
 120:/usr/local/lib/ARM/CMSIS/5.4.0/CMSIS/RTOS2/RTX/Source/rtx_core_cm.h **** /// Check if IRQ is Masked
 121:/usr/local/lib/ARM/CMSIS/5.4.0/CMSIS/RTOS2/RTX/Source/rtx_core_cm.h **** /// \return     true=masked, false=not masked
 122:/usr/local/lib/ARM/CMSIS/5.4.0/CMSIS/RTOS2/RTX/Source/rtx_core_cm.h **** __STATIC_INLINE bool_t IsIrqMasked (void) {
 123:/usr/local/lib/ARM/CMSIS/5.4.0/CMSIS/RTOS2/RTX/Source/rtx_core_cm.h **** #if   ((defined(__ARM_ARCH_7M__)      && (__ARM_ARCH_7M__      != 0)) || \
 124:/usr/local/lib/ARM/CMSIS/5.4.0/CMSIS/RTOS2/RTX/Source/rtx_core_cm.h ****        (defined(__ARM_ARCH_7EM__)     && (__ARM_ARCH_7EM__     != 0)) || \
 125:/usr/local/lib/ARM/CMSIS/5.4.0/CMSIS/RTOS2/RTX/Source/rtx_core_cm.h ****        (defined(__ARM_ARCH_8M_MAIN__) && (__ARM_ARCH_8M_MAIN__ != 0)))
 126:/usr/local/lib/ARM/CMSIS/5.4.0/CMSIS/RTOS2/RTX/Source/rtx_core_cm.h ****   return ((__get_PRIMASK() != 0U) || (__get_BASEPRI() != 0U));
 979              		.loc 4 126 0
 980 0012 1BB9     		cbnz	r3, .L90
 981              	.LBB125:
 982              	.LBB126:
 387:/usr/local/lib/ARM/CMSIS/5.4.0/CMSIS/Core/Include/cmsis_gcc.h ****   return(result);
 388:/usr/local/lib/ARM/CMSIS/5.4.0/CMSIS/Core/Include/cmsis_gcc.h **** }
 389:/usr/local/lib/ARM/CMSIS/5.4.0/CMSIS/Core/Include/cmsis_gcc.h **** 
 390:/usr/local/lib/ARM/CMSIS/5.4.0/CMSIS/Core/Include/cmsis_gcc.h **** 
 391:/usr/local/lib/ARM/CMSIS/5.4.0/CMSIS/Core/Include/cmsis_gcc.h **** #if (defined (__ARM_FEATURE_CMSE ) && (__ARM_FEATURE_CMSE == 3))
 392:/usr/local/lib/ARM/CMSIS/5.4.0/CMSIS/Core/Include/cmsis_gcc.h **** /**
 393:/usr/local/lib/ARM/CMSIS/5.4.0/CMSIS/Core/Include/cmsis_gcc.h ****   \brief   Get Priority Mask (non-secure)
 394:/usr/local/lib/ARM/CMSIS/5.4.0/CMSIS/Core/Include/cmsis_gcc.h ****   \details Returns the current state of the non-secure priority mask bit from the Priority Mask Reg
 395:/usr/local/lib/ARM/CMSIS/5.4.0/CMSIS/Core/Include/cmsis_gcc.h ****   \return               Priority Mask value
 396:/usr/local/lib/ARM/CMSIS/5.4.0/CMSIS/Core/Include/cmsis_gcc.h ****  */
 397:/usr/local/lib/ARM/CMSIS/5.4.0/CMSIS/Core/Include/cmsis_gcc.h **** __STATIC_FORCEINLINE uint32_t __TZ_get_PRIMASK_NS(void)
 398:/usr/local/lib/ARM/CMSIS/5.4.0/CMSIS/Core/Include/cmsis_gcc.h **** {
 399:/usr/local/lib/ARM/CMSIS/5.4.0/CMSIS/Core/Include/cmsis_gcc.h ****   uint32_t result;
 400:/usr/local/lib/ARM/CMSIS/5.4.0/CMSIS/Core/Include/cmsis_gcc.h **** 
 401:/usr/local/lib/ARM/CMSIS/5.4.0/CMSIS/Core/Include/cmsis_gcc.h ****   __ASM volatile ("MRS %0, primask_ns" : "=r" (result) :: "memory");
 402:/usr/local/lib/ARM/CMSIS/5.4.0/CMSIS/Core/Include/cmsis_gcc.h ****   return(result);
 403:/usr/local/lib/ARM/CMSIS/5.4.0/CMSIS/Core/Include/cmsis_gcc.h **** }
 404:/usr/local/lib/ARM/CMSIS/5.4.0/CMSIS/Core/Include/cmsis_gcc.h **** #endif
 405:/usr/local/lib/ARM/CMSIS/5.4.0/CMSIS/Core/Include/cmsis_gcc.h **** 
 406:/usr/local/lib/ARM/CMSIS/5.4.0/CMSIS/Core/Include/cmsis_gcc.h **** 
 407:/usr/local/lib/ARM/CMSIS/5.4.0/CMSIS/Core/Include/cmsis_gcc.h **** /**
 408:/usr/local/lib/ARM/CMSIS/5.4.0/CMSIS/Core/Include/cmsis_gcc.h ****   \brief   Set Priority Mask
 409:/usr/local/lib/ARM/CMSIS/5.4.0/CMSIS/Core/Include/cmsis_gcc.h ****   \details Assigns the given value to the Priority Mask Register.
 410:/usr/local/lib/ARM/CMSIS/5.4.0/CMSIS/Core/Include/cmsis_gcc.h ****   \param [in]    priMask  Priority Mask
 411:/usr/local/lib/ARM/CMSIS/5.4.0/CMSIS/Core/Include/cmsis_gcc.h ****  */
 412:/usr/local/lib/ARM/CMSIS/5.4.0/CMSIS/Core/Include/cmsis_gcc.h **** __STATIC_FORCEINLINE void __set_PRIMASK(uint32_t priMask)
 413:/usr/local/lib/ARM/CMSIS/5.4.0/CMSIS/Core/Include/cmsis_gcc.h **** {
 414:/usr/local/lib/ARM/CMSIS/5.4.0/CMSIS/Core/Include/cmsis_gcc.h ****   __ASM volatile ("MSR primask, %0" : : "r" (priMask) : "memory");
 415:/usr/local/lib/ARM/CMSIS/5.4.0/CMSIS/Core/Include/cmsis_gcc.h **** }
 416:/usr/local/lib/ARM/CMSIS/5.4.0/CMSIS/Core/Include/cmsis_gcc.h **** 
 417:/usr/local/lib/ARM/CMSIS/5.4.0/CMSIS/Core/Include/cmsis_gcc.h **** 
 418:/usr/local/lib/ARM/CMSIS/5.4.0/CMSIS/Core/Include/cmsis_gcc.h **** #if (defined (__ARM_FEATURE_CMSE ) && (__ARM_FEATURE_CMSE == 3))
 419:/usr/local/lib/ARM/CMSIS/5.4.0/CMSIS/Core/Include/cmsis_gcc.h **** /**
 420:/usr/local/lib/ARM/CMSIS/5.4.0/CMSIS/Core/Include/cmsis_gcc.h ****   \brief   Set Priority Mask (non-secure)
 421:/usr/local/lib/ARM/CMSIS/5.4.0/CMSIS/Core/Include/cmsis_gcc.h ****   \details Assigns the given value to the non-secure Priority Mask Register when in secure state.
 422:/usr/local/lib/ARM/CMSIS/5.4.0/CMSIS/Core/Include/cmsis_gcc.h ****   \param [in]    priMask  Priority Mask
 423:/usr/local/lib/ARM/CMSIS/5.4.0/CMSIS/Core/Include/cmsis_gcc.h ****  */
 424:/usr/local/lib/ARM/CMSIS/5.4.0/CMSIS/Core/Include/cmsis_gcc.h **** __STATIC_FORCEINLINE void __TZ_set_PRIMASK_NS(uint32_t priMask)
 425:/usr/local/lib/ARM/CMSIS/5.4.0/CMSIS/Core/Include/cmsis_gcc.h **** {
ARM GAS  /tmp/cc1jQKzY.s 			page 39


 426:/usr/local/lib/ARM/CMSIS/5.4.0/CMSIS/Core/Include/cmsis_gcc.h ****   __ASM volatile ("MSR primask_ns, %0" : : "r" (priMask) : "memory");
 427:/usr/local/lib/ARM/CMSIS/5.4.0/CMSIS/Core/Include/cmsis_gcc.h **** }
 428:/usr/local/lib/ARM/CMSIS/5.4.0/CMSIS/Core/Include/cmsis_gcc.h **** #endif
 429:/usr/local/lib/ARM/CMSIS/5.4.0/CMSIS/Core/Include/cmsis_gcc.h **** 
 430:/usr/local/lib/ARM/CMSIS/5.4.0/CMSIS/Core/Include/cmsis_gcc.h **** 
 431:/usr/local/lib/ARM/CMSIS/5.4.0/CMSIS/Core/Include/cmsis_gcc.h **** #if ((defined (__ARM_ARCH_7M__      ) && (__ARM_ARCH_7M__      == 1)) || \
 432:/usr/local/lib/ARM/CMSIS/5.4.0/CMSIS/Core/Include/cmsis_gcc.h ****      (defined (__ARM_ARCH_7EM__     ) && (__ARM_ARCH_7EM__     == 1)) || \
 433:/usr/local/lib/ARM/CMSIS/5.4.0/CMSIS/Core/Include/cmsis_gcc.h ****      (defined (__ARM_ARCH_8M_MAIN__ ) && (__ARM_ARCH_8M_MAIN__ == 1))    )
 434:/usr/local/lib/ARM/CMSIS/5.4.0/CMSIS/Core/Include/cmsis_gcc.h **** /**
 435:/usr/local/lib/ARM/CMSIS/5.4.0/CMSIS/Core/Include/cmsis_gcc.h ****   \brief   Enable FIQ
 436:/usr/local/lib/ARM/CMSIS/5.4.0/CMSIS/Core/Include/cmsis_gcc.h ****   \details Enables FIQ interrupts by clearing the F-bit in the CPSR.
 437:/usr/local/lib/ARM/CMSIS/5.4.0/CMSIS/Core/Include/cmsis_gcc.h ****            Can only be executed in Privileged modes.
 438:/usr/local/lib/ARM/CMSIS/5.4.0/CMSIS/Core/Include/cmsis_gcc.h ****  */
 439:/usr/local/lib/ARM/CMSIS/5.4.0/CMSIS/Core/Include/cmsis_gcc.h **** __STATIC_FORCEINLINE void __enable_fault_irq(void)
 440:/usr/local/lib/ARM/CMSIS/5.4.0/CMSIS/Core/Include/cmsis_gcc.h **** {
 441:/usr/local/lib/ARM/CMSIS/5.4.0/CMSIS/Core/Include/cmsis_gcc.h ****   __ASM volatile ("cpsie f" : : : "memory");
 442:/usr/local/lib/ARM/CMSIS/5.4.0/CMSIS/Core/Include/cmsis_gcc.h **** }
 443:/usr/local/lib/ARM/CMSIS/5.4.0/CMSIS/Core/Include/cmsis_gcc.h **** 
 444:/usr/local/lib/ARM/CMSIS/5.4.0/CMSIS/Core/Include/cmsis_gcc.h **** 
 445:/usr/local/lib/ARM/CMSIS/5.4.0/CMSIS/Core/Include/cmsis_gcc.h **** /**
 446:/usr/local/lib/ARM/CMSIS/5.4.0/CMSIS/Core/Include/cmsis_gcc.h ****   \brief   Disable FIQ
 447:/usr/local/lib/ARM/CMSIS/5.4.0/CMSIS/Core/Include/cmsis_gcc.h ****   \details Disables FIQ interrupts by setting the F-bit in the CPSR.
 448:/usr/local/lib/ARM/CMSIS/5.4.0/CMSIS/Core/Include/cmsis_gcc.h ****            Can only be executed in Privileged modes.
 449:/usr/local/lib/ARM/CMSIS/5.4.0/CMSIS/Core/Include/cmsis_gcc.h ****  */
 450:/usr/local/lib/ARM/CMSIS/5.4.0/CMSIS/Core/Include/cmsis_gcc.h **** __STATIC_FORCEINLINE void __disable_fault_irq(void)
 451:/usr/local/lib/ARM/CMSIS/5.4.0/CMSIS/Core/Include/cmsis_gcc.h **** {
 452:/usr/local/lib/ARM/CMSIS/5.4.0/CMSIS/Core/Include/cmsis_gcc.h ****   __ASM volatile ("cpsid f" : : : "memory");
 453:/usr/local/lib/ARM/CMSIS/5.4.0/CMSIS/Core/Include/cmsis_gcc.h **** }
 454:/usr/local/lib/ARM/CMSIS/5.4.0/CMSIS/Core/Include/cmsis_gcc.h **** 
 455:/usr/local/lib/ARM/CMSIS/5.4.0/CMSIS/Core/Include/cmsis_gcc.h **** 
 456:/usr/local/lib/ARM/CMSIS/5.4.0/CMSIS/Core/Include/cmsis_gcc.h **** /**
 457:/usr/local/lib/ARM/CMSIS/5.4.0/CMSIS/Core/Include/cmsis_gcc.h ****   \brief   Get Base Priority
 458:/usr/local/lib/ARM/CMSIS/5.4.0/CMSIS/Core/Include/cmsis_gcc.h ****   \details Returns the current value of the Base Priority register.
 459:/usr/local/lib/ARM/CMSIS/5.4.0/CMSIS/Core/Include/cmsis_gcc.h ****   \return               Base Priority register value
 460:/usr/local/lib/ARM/CMSIS/5.4.0/CMSIS/Core/Include/cmsis_gcc.h ****  */
 461:/usr/local/lib/ARM/CMSIS/5.4.0/CMSIS/Core/Include/cmsis_gcc.h **** __STATIC_FORCEINLINE uint32_t __get_BASEPRI(void)
 462:/usr/local/lib/ARM/CMSIS/5.4.0/CMSIS/Core/Include/cmsis_gcc.h **** {
 463:/usr/local/lib/ARM/CMSIS/5.4.0/CMSIS/Core/Include/cmsis_gcc.h ****   uint32_t result;
 464:/usr/local/lib/ARM/CMSIS/5.4.0/CMSIS/Core/Include/cmsis_gcc.h **** 
 465:/usr/local/lib/ARM/CMSIS/5.4.0/CMSIS/Core/Include/cmsis_gcc.h ****   __ASM volatile ("MRS %0, basepri" : "=r" (result) );
 983              		.loc 3 465 0
 984              		.syntax unified
 985              	@ 465 "/usr/local/lib/ARM/CMSIS/5.4.0/CMSIS/Core/Include/cmsis_gcc.h" 1
 986 0014 EFF31183 		MRS r3, basepri
 987              	@ 0 "" 2
 988              		.thumb
 989              		.syntax unified
 990              	.LBE126:
 991              	.LBE125:
 992              		.loc 4 126 0
 993 0018 13B9     		cbnz	r3, .L91
 994 001a 02E0     		b	.L87
 995              	.L90:
 996 001c 0123     		movs	r3, #1
 997 001e 00E0     		b	.L87
 998              	.L91:
 999 0020 0123     		movs	r3, #1
ARM GAS  /tmp/cc1jQKzY.s 			page 40


 1000              	.L87:
 1001              	.LBE122:
 1002              	.LBE121:
 1003              		.loc 1 458 0
 1004 0022 33B1     		cbz	r3, .L88
 1005              	.L86:
 459:/usr/local/lib/ARM/CMSIS/5.4.0/CMSIS/RTOS2/RTX/Source/rtx_mutex.c ****     EvrRtxMutexError(NULL, (int32_t)osErrorISR);
 1006              		.loc 1 459 0
 1007 0024 6FF00501 		mvn	r1, #5
 1008 0028 0020     		movs	r0, #0
 1009 002a FFF7FEFF 		bl	EvrRtxMutexError
 1010              	.LVL117:
 460:/usr/local/lib/ARM/CMSIS/5.4.0/CMSIS/RTOS2/RTX/Source/rtx_mutex.c ****     mutex_id = NULL;
 1011              		.loc 1 460 0
 1012 002e 0020     		movs	r0, #0
 1013 0030 10BD     		pop	{r4, pc}
 1014              	.LVL118:
 1015              	.L88:
 1016              	.LBB127:
 1017              	.LBB128:
 442:/usr/local/lib/ARM/CMSIS/5.4.0/CMSIS/RTOS2/RTX/Source/rtx_mutex.c **** SVC0_1(MutexGetName,  const char *, osMutexId_t)
 1018              		.loc 1 442 0
 1019 0032 2046     		mov	r0, r4
 1020 0034 DFF804C0 		ldr	ip, .L93
 1021              		.syntax unified
 1022              	@ 442 "/usr/local/lib/ARM/CMSIS/5.4.0/CMSIS/RTOS2/RTX/Source/rtx_mutex.c" 1
 1023 0038 00DF     		svc 0
 1024              	@ 0 "" 2
 1025              	.LVL119:
 1026              		.thumb
 1027              		.syntax unified
 1028              	.LBE128:
 1029              	.LBE127:
 461:/usr/local/lib/ARM/CMSIS/5.4.0/CMSIS/RTOS2/RTX/Source/rtx_mutex.c ****   } else {
 462:/usr/local/lib/ARM/CMSIS/5.4.0/CMSIS/RTOS2/RTX/Source/rtx_mutex.c ****     mutex_id = __svcMutexNew(attr);
 463:/usr/local/lib/ARM/CMSIS/5.4.0/CMSIS/RTOS2/RTX/Source/rtx_mutex.c ****   }
 464:/usr/local/lib/ARM/CMSIS/5.4.0/CMSIS/RTOS2/RTX/Source/rtx_mutex.c ****   return mutex_id;
 465:/usr/local/lib/ARM/CMSIS/5.4.0/CMSIS/RTOS2/RTX/Source/rtx_mutex.c **** }
 1030              		.loc 1 465 0
 1031 003a 10BD     		pop	{r4, pc}
 1032              	.LVL120:
 1033              	.L94:
 1034              		.align	2
 1035              	.L93:
 1036 003c 00000000 		.word	svcRtxMutexNew
 1037              		.cfi_endproc
 1038              	.LFE187:
 1040              		.section	.text.osMutexGetName,"ax",%progbits
 1041              		.align	2
 1042              		.global	osMutexGetName
 1043              		.thumb
 1044              		.thumb_func
 1046              	osMutexGetName:
 1047              	.LFB188:
 466:/usr/local/lib/ARM/CMSIS/5.4.0/CMSIS/RTOS2/RTX/Source/rtx_mutex.c **** 
 467:/usr/local/lib/ARM/CMSIS/5.4.0/CMSIS/RTOS2/RTX/Source/rtx_mutex.c **** /// Get name of a Mutex object.
 468:/usr/local/lib/ARM/CMSIS/5.4.0/CMSIS/RTOS2/RTX/Source/rtx_mutex.c **** const char *osMutexGetName (osMutexId_t mutex_id) {
ARM GAS  /tmp/cc1jQKzY.s 			page 41


 1048              		.loc 1 468 0
 1049              		.cfi_startproc
 1050              		@ args = 0, pretend = 0, frame = 0
 1051              		@ frame_needed = 0, uses_anonymous_args = 0
 1052              	.LVL121:
 1053 0000 08B5     		push	{r3, lr}
 1054              	.LCFI8:
 1055              		.cfi_def_cfa_offset 8
 1056              		.cfi_offset 3, -8
 1057              		.cfi_offset 14, -4
 1058              	.LBB129:
 1059              	.LBB130:
 1060              	.LBB131:
 209:/usr/local/lib/ARM/CMSIS/5.4.0/CMSIS/Core/Include/cmsis_gcc.h ****   return(result);
 1061              		.loc 3 209 0
 1062              		.syntax unified
 1063              	@ 209 "/usr/local/lib/ARM/CMSIS/5.4.0/CMSIS/Core/Include/cmsis_gcc.h" 1
 1064 0002 EFF30583 		MRS r3, ipsr
 1065              	@ 0 "" 2
 1066              		.thumb
 1067              		.syntax unified
 1068              	.LBE131:
 1069              	.LBE130:
 1070              	.LBE129:
 469:/usr/local/lib/ARM/CMSIS/5.4.0/CMSIS/RTOS2/RTX/Source/rtx_mutex.c ****   const char *name;
 470:/usr/local/lib/ARM/CMSIS/5.4.0/CMSIS/RTOS2/RTX/Source/rtx_mutex.c **** 
 471:/usr/local/lib/ARM/CMSIS/5.4.0/CMSIS/RTOS2/RTX/Source/rtx_mutex.c ****   if (IsIrqMode() || IsIrqMasked()) {
 1071              		.loc 1 471 0
 1072 0006 53B9     		cbnz	r3, .L96
 1073              	.LBB132:
 1074              	.LBB133:
 1075              	.LBB134:
 1076              	.LBB135:
 386:/usr/local/lib/ARM/CMSIS/5.4.0/CMSIS/Core/Include/cmsis_gcc.h ****   return(result);
 1077              		.loc 3 386 0
 1078              		.syntax unified
 1079              	@ 386 "/usr/local/lib/ARM/CMSIS/5.4.0/CMSIS/Core/Include/cmsis_gcc.h" 1
 1080 0008 EFF31083 		MRS r3, primask
 1081              	@ 0 "" 2
 1082              		.thumb
 1083              		.syntax unified
 1084              	.LBE135:
 1085              	.LBE134:
 1086              		.loc 4 126 0
 1087 000c 1BB9     		cbnz	r3, .L100
 1088              	.LBB136:
 1089              	.LBB137:
 1090              		.loc 3 465 0
 1091              		.syntax unified
 1092              	@ 465 "/usr/local/lib/ARM/CMSIS/5.4.0/CMSIS/Core/Include/cmsis_gcc.h" 1
 1093 000e EFF31183 		MRS r3, basepri
 1094              	@ 0 "" 2
 1095              		.thumb
 1096              		.syntax unified
 1097              	.LBE137:
 1098              	.LBE136:
 1099              		.loc 4 126 0
ARM GAS  /tmp/cc1jQKzY.s 			page 42


 1100 0012 13B9     		cbnz	r3, .L101
 1101 0014 02E0     		b	.L97
 1102              	.L100:
 1103 0016 0123     		movs	r3, #1
 1104 0018 00E0     		b	.L97
 1105              	.L101:
 1106 001a 0123     		movs	r3, #1
 1107              	.L97:
 1108              	.LBE133:
 1109              	.LBE132:
 1110              		.loc 1 471 0
 1111 001c 23B1     		cbz	r3, .L98
 1112              	.L96:
 472:/usr/local/lib/ARM/CMSIS/5.4.0/CMSIS/RTOS2/RTX/Source/rtx_mutex.c ****     EvrRtxMutexGetName(mutex_id, NULL);
 1113              		.loc 1 472 0
 1114 001e 0021     		movs	r1, #0
 1115 0020 FFF7FEFF 		bl	EvrRtxMutexGetName
 1116              	.LVL122:
 473:/usr/local/lib/ARM/CMSIS/5.4.0/CMSIS/RTOS2/RTX/Source/rtx_mutex.c ****     name = NULL;
 1117              		.loc 1 473 0
 1118 0024 0020     		movs	r0, #0
 1119 0026 08BD     		pop	{r3, pc}
 1120              	.LVL123:
 1121              	.L98:
 1122              	.LBB138:
 1123              	.LBB139:
 443:/usr/local/lib/ARM/CMSIS/5.4.0/CMSIS/RTOS2/RTX/Source/rtx_mutex.c **** SVC0_2(MutexAcquire,  osStatus_t,   osMutexId_t, uint32_t)
 1124              		.loc 1 443 0
 1125 0028 DFF804C0 		ldr	ip, .L103
 1126              		.syntax unified
 1127              	@ 443 "/usr/local/lib/ARM/CMSIS/5.4.0/CMSIS/RTOS2/RTX/Source/rtx_mutex.c" 1
 1128 002c 00DF     		svc 0
 1129              	@ 0 "" 2
 1130              	.LVL124:
 1131              		.thumb
 1132              		.syntax unified
 1133              	.LBE139:
 1134              	.LBE138:
 474:/usr/local/lib/ARM/CMSIS/5.4.0/CMSIS/RTOS2/RTX/Source/rtx_mutex.c ****   } else {
 475:/usr/local/lib/ARM/CMSIS/5.4.0/CMSIS/RTOS2/RTX/Source/rtx_mutex.c ****     name = __svcMutexGetName(mutex_id);
 476:/usr/local/lib/ARM/CMSIS/5.4.0/CMSIS/RTOS2/RTX/Source/rtx_mutex.c ****   }
 477:/usr/local/lib/ARM/CMSIS/5.4.0/CMSIS/RTOS2/RTX/Source/rtx_mutex.c ****   return name;
 478:/usr/local/lib/ARM/CMSIS/5.4.0/CMSIS/RTOS2/RTX/Source/rtx_mutex.c **** }
 1135              		.loc 1 478 0
 1136 002e 08BD     		pop	{r3, pc}
 1137              	.L104:
 1138              		.align	2
 1139              	.L103:
 1140 0030 00000000 		.word	svcRtxMutexGetName
 1141              		.cfi_endproc
 1142              	.LFE188:
 1144              		.section	.text.osMutexAcquire,"ax",%progbits
 1145              		.align	2
 1146              		.global	osMutexAcquire
 1147              		.thumb
 1148              		.thumb_func
 1150              	osMutexAcquire:
ARM GAS  /tmp/cc1jQKzY.s 			page 43


 1151              	.LFB189:
 479:/usr/local/lib/ARM/CMSIS/5.4.0/CMSIS/RTOS2/RTX/Source/rtx_mutex.c **** 
 480:/usr/local/lib/ARM/CMSIS/5.4.0/CMSIS/RTOS2/RTX/Source/rtx_mutex.c **** /// Acquire a Mutex or timeout if it is locked.
 481:/usr/local/lib/ARM/CMSIS/5.4.0/CMSIS/RTOS2/RTX/Source/rtx_mutex.c **** osStatus_t osMutexAcquire (osMutexId_t mutex_id, uint32_t timeout) {
 1152              		.loc 1 481 0
 1153              		.cfi_startproc
 1154              		@ args = 0, pretend = 0, frame = 0
 1155              		@ frame_needed = 0, uses_anonymous_args = 0
 1156              	.LVL125:
 1157 0000 38B5     		push	{r3, r4, r5, lr}
 1158              	.LCFI9:
 1159              		.cfi_def_cfa_offset 16
 1160              		.cfi_offset 3, -16
 1161              		.cfi_offset 4, -12
 1162              		.cfi_offset 5, -8
 1163              		.cfi_offset 14, -4
 1164 0002 0446     		mov	r4, r0
 1165 0004 0D46     		mov	r5, r1
 482:/usr/local/lib/ARM/CMSIS/5.4.0/CMSIS/RTOS2/RTX/Source/rtx_mutex.c ****   osStatus_t status;
 483:/usr/local/lib/ARM/CMSIS/5.4.0/CMSIS/RTOS2/RTX/Source/rtx_mutex.c **** 
 484:/usr/local/lib/ARM/CMSIS/5.4.0/CMSIS/RTOS2/RTX/Source/rtx_mutex.c ****   EvrRtxMutexAcquire(mutex_id, timeout);
 1166              		.loc 1 484 0
 1167 0006 FFF7FEFF 		bl	EvrRtxMutexAcquire
 1168              	.LVL126:
 1169              	.LBB140:
 1170              	.LBB141:
 1171              	.LBB142:
 209:/usr/local/lib/ARM/CMSIS/5.4.0/CMSIS/Core/Include/cmsis_gcc.h ****   return(result);
 1172              		.loc 3 209 0
 1173              		.syntax unified
 1174              	@ 209 "/usr/local/lib/ARM/CMSIS/5.4.0/CMSIS/Core/Include/cmsis_gcc.h" 1
 1175 000a EFF30583 		MRS r3, ipsr
 1176              	@ 0 "" 2
 1177              		.thumb
 1178              		.syntax unified
 1179              	.LBE142:
 1180              	.LBE141:
 1181              	.LBE140:
 485:/usr/local/lib/ARM/CMSIS/5.4.0/CMSIS/RTOS2/RTX/Source/rtx_mutex.c ****   if (IsIrqMode() || IsIrqMasked()) {
 1182              		.loc 1 485 0
 1183 000e 53B9     		cbnz	r3, .L106
 1184              	.LBB143:
 1185              	.LBB144:
 1186              	.LBB145:
 1187              	.LBB146:
 386:/usr/local/lib/ARM/CMSIS/5.4.0/CMSIS/Core/Include/cmsis_gcc.h ****   return(result);
 1188              		.loc 3 386 0
 1189              		.syntax unified
 1190              	@ 386 "/usr/local/lib/ARM/CMSIS/5.4.0/CMSIS/Core/Include/cmsis_gcc.h" 1
 1191 0010 EFF31083 		MRS r3, primask
 1192              	@ 0 "" 2
 1193              		.thumb
 1194              		.syntax unified
 1195              	.LBE146:
 1196              	.LBE145:
 1197              		.loc 4 126 0
 1198 0014 1BB9     		cbnz	r3, .L110
ARM GAS  /tmp/cc1jQKzY.s 			page 44


 1199              	.LBB147:
 1200              	.LBB148:
 1201              		.loc 3 465 0
 1202              		.syntax unified
 1203              	@ 465 "/usr/local/lib/ARM/CMSIS/5.4.0/CMSIS/Core/Include/cmsis_gcc.h" 1
 1204 0016 EFF31183 		MRS r3, basepri
 1205              	@ 0 "" 2
 1206              		.thumb
 1207              		.syntax unified
 1208              	.LBE148:
 1209              	.LBE147:
 1210              		.loc 4 126 0
 1211 001a 13B9     		cbnz	r3, .L111
 1212 001c 02E0     		b	.L107
 1213              	.L110:
 1214 001e 0123     		movs	r3, #1
 1215 0020 00E0     		b	.L107
 1216              	.L111:
 1217 0022 0123     		movs	r3, #1
 1218              	.L107:
 1219              	.LBE144:
 1220              	.LBE143:
 1221              		.loc 1 485 0
 1222 0024 3BB1     		cbz	r3, .L108
 1223              	.L106:
 486:/usr/local/lib/ARM/CMSIS/5.4.0/CMSIS/RTOS2/RTX/Source/rtx_mutex.c ****     EvrRtxMutexError(mutex_id, (int32_t)osErrorISR);
 1224              		.loc 1 486 0
 1225 0026 6FF00501 		mvn	r1, #5
 1226 002a 2046     		mov	r0, r4
 1227 002c FFF7FEFF 		bl	EvrRtxMutexError
 1228              	.LVL127:
 487:/usr/local/lib/ARM/CMSIS/5.4.0/CMSIS/RTOS2/RTX/Source/rtx_mutex.c ****     status = osErrorISR;
 1229              		.loc 1 487 0
 1230 0030 6FF00500 		mvn	r0, #5
 1231 0034 38BD     		pop	{r3, r4, r5, pc}
 1232              	.LVL128:
 1233              	.L108:
 1234              	.LBB149:
 1235              	.LBB150:
 444:/usr/local/lib/ARM/CMSIS/5.4.0/CMSIS/RTOS2/RTX/Source/rtx_mutex.c **** SVC0_1(MutexRelease,  osStatus_t,   osMutexId_t)
 1236              		.loc 1 444 0
 1237 0036 2046     		mov	r0, r4
 1238 0038 2946     		mov	r1, r5
 1239 003a DFF808C0 		ldr	ip, .L113
 1240              		.syntax unified
 1241              	@ 444 "/usr/local/lib/ARM/CMSIS/5.4.0/CMSIS/RTOS2/RTX/Source/rtx_mutex.c" 1
 1242 003e 00DF     		svc 0
 1243              	@ 0 "" 2
 1244              	.LVL129:
 1245              		.thumb
 1246              		.syntax unified
 1247              	.LBE150:
 1248              	.LBE149:
 488:/usr/local/lib/ARM/CMSIS/5.4.0/CMSIS/RTOS2/RTX/Source/rtx_mutex.c ****   } else {
 489:/usr/local/lib/ARM/CMSIS/5.4.0/CMSIS/RTOS2/RTX/Source/rtx_mutex.c ****     status = __svcMutexAcquire(mutex_id, timeout);
 490:/usr/local/lib/ARM/CMSIS/5.4.0/CMSIS/RTOS2/RTX/Source/rtx_mutex.c ****   }
 491:/usr/local/lib/ARM/CMSIS/5.4.0/CMSIS/RTOS2/RTX/Source/rtx_mutex.c ****   return status;
ARM GAS  /tmp/cc1jQKzY.s 			page 45


 492:/usr/local/lib/ARM/CMSIS/5.4.0/CMSIS/RTOS2/RTX/Source/rtx_mutex.c **** }
 1249              		.loc 1 492 0
 1250 0040 38BD     		pop	{r3, r4, r5, pc}
 1251              	.LVL130:
 1252              	.L114:
 1253 0042 00BF     		.align	2
 1254              	.L113:
 1255 0044 00000000 		.word	svcRtxMutexAcquire
 1256              		.cfi_endproc
 1257              	.LFE189:
 1259              		.section	.text.osMutexRelease,"ax",%progbits
 1260              		.align	2
 1261              		.global	osMutexRelease
 1262              		.thumb
 1263              		.thumb_func
 1265              	osMutexRelease:
 1266              	.LFB190:
 493:/usr/local/lib/ARM/CMSIS/5.4.0/CMSIS/RTOS2/RTX/Source/rtx_mutex.c **** 
 494:/usr/local/lib/ARM/CMSIS/5.4.0/CMSIS/RTOS2/RTX/Source/rtx_mutex.c **** /// Release a Mutex that was acquired by \ref osMutexAcquire.
 495:/usr/local/lib/ARM/CMSIS/5.4.0/CMSIS/RTOS2/RTX/Source/rtx_mutex.c **** osStatus_t osMutexRelease (osMutexId_t mutex_id) {
 1267              		.loc 1 495 0
 1268              		.cfi_startproc
 1269              		@ args = 0, pretend = 0, frame = 0
 1270              		@ frame_needed = 0, uses_anonymous_args = 0
 1271              	.LVL131:
 1272 0000 10B5     		push	{r4, lr}
 1273              	.LCFI10:
 1274              		.cfi_def_cfa_offset 8
 1275              		.cfi_offset 4, -8
 1276              		.cfi_offset 14, -4
 1277 0002 0446     		mov	r4, r0
 496:/usr/local/lib/ARM/CMSIS/5.4.0/CMSIS/RTOS2/RTX/Source/rtx_mutex.c ****   osStatus_t status;
 497:/usr/local/lib/ARM/CMSIS/5.4.0/CMSIS/RTOS2/RTX/Source/rtx_mutex.c **** 
 498:/usr/local/lib/ARM/CMSIS/5.4.0/CMSIS/RTOS2/RTX/Source/rtx_mutex.c ****   EvrRtxMutexRelease(mutex_id);
 1278              		.loc 1 498 0
 1279 0004 FFF7FEFF 		bl	EvrRtxMutexRelease
 1280              	.LVL132:
 1281              	.LBB151:
 1282              	.LBB152:
 1283              	.LBB153:
 209:/usr/local/lib/ARM/CMSIS/5.4.0/CMSIS/Core/Include/cmsis_gcc.h ****   return(result);
 1284              		.loc 3 209 0
 1285              		.syntax unified
 1286              	@ 209 "/usr/local/lib/ARM/CMSIS/5.4.0/CMSIS/Core/Include/cmsis_gcc.h" 1
 1287 0008 EFF30583 		MRS r3, ipsr
 1288              	@ 0 "" 2
 1289              		.thumb
 1290              		.syntax unified
 1291              	.LBE153:
 1292              	.LBE152:
 1293              	.LBE151:
 499:/usr/local/lib/ARM/CMSIS/5.4.0/CMSIS/RTOS2/RTX/Source/rtx_mutex.c ****   if (IsIrqMode() || IsIrqMasked()) {
 1294              		.loc 1 499 0
 1295 000c 53B9     		cbnz	r3, .L116
 1296              	.LBB154:
 1297              	.LBB155:
 1298              	.LBB156:
ARM GAS  /tmp/cc1jQKzY.s 			page 46


 1299              	.LBB157:
 386:/usr/local/lib/ARM/CMSIS/5.4.0/CMSIS/Core/Include/cmsis_gcc.h ****   return(result);
 1300              		.loc 3 386 0
 1301              		.syntax unified
 1302              	@ 386 "/usr/local/lib/ARM/CMSIS/5.4.0/CMSIS/Core/Include/cmsis_gcc.h" 1
 1303 000e EFF31083 		MRS r3, primask
 1304              	@ 0 "" 2
 1305              		.thumb
 1306              		.syntax unified
 1307              	.LBE157:
 1308              	.LBE156:
 1309              		.loc 4 126 0
 1310 0012 1BB9     		cbnz	r3, .L120
 1311              	.LBB158:
 1312              	.LBB159:
 1313              		.loc 3 465 0
 1314              		.syntax unified
 1315              	@ 465 "/usr/local/lib/ARM/CMSIS/5.4.0/CMSIS/Core/Include/cmsis_gcc.h" 1
 1316 0014 EFF31183 		MRS r3, basepri
 1317              	@ 0 "" 2
 1318              		.thumb
 1319              		.syntax unified
 1320              	.LBE159:
 1321              	.LBE158:
 1322              		.loc 4 126 0
 1323 0018 13B9     		cbnz	r3, .L121
 1324 001a 02E0     		b	.L117
 1325              	.L120:
 1326 001c 0123     		movs	r3, #1
 1327 001e 00E0     		b	.L117
 1328              	.L121:
 1329 0020 0123     		movs	r3, #1
 1330              	.L117:
 1331              	.LBE155:
 1332              	.LBE154:
 1333              		.loc 1 499 0
 1334 0022 3BB1     		cbz	r3, .L118
 1335              	.L116:
 500:/usr/local/lib/ARM/CMSIS/5.4.0/CMSIS/RTOS2/RTX/Source/rtx_mutex.c ****     EvrRtxMutexError(mutex_id, (int32_t)osErrorISR);
 1336              		.loc 1 500 0
 1337 0024 6FF00501 		mvn	r1, #5
 1338 0028 2046     		mov	r0, r4
 1339 002a FFF7FEFF 		bl	EvrRtxMutexError
 1340              	.LVL133:
 501:/usr/local/lib/ARM/CMSIS/5.4.0/CMSIS/RTOS2/RTX/Source/rtx_mutex.c ****     status = osErrorISR;
 1341              		.loc 1 501 0
 1342 002e 6FF00500 		mvn	r0, #5
 1343 0032 10BD     		pop	{r4, pc}
 1344              	.LVL134:
 1345              	.L118:
 1346              	.LBB160:
 1347              	.LBB161:
 445:/usr/local/lib/ARM/CMSIS/5.4.0/CMSIS/RTOS2/RTX/Source/rtx_mutex.c **** SVC0_1(MutexGetOwner, osThreadId_t, osMutexId_t)
 1348              		.loc 1 445 0
 1349 0034 2046     		mov	r0, r4
 1350 0036 DFF808C0 		ldr	ip, .L123
 1351              		.syntax unified
ARM GAS  /tmp/cc1jQKzY.s 			page 47


 1352              	@ 445 "/usr/local/lib/ARM/CMSIS/5.4.0/CMSIS/RTOS2/RTX/Source/rtx_mutex.c" 1
 1353 003a 00DF     		svc 0
 1354              	@ 0 "" 2
 1355              	.LVL135:
 1356              		.thumb
 1357              		.syntax unified
 1358              	.LBE161:
 1359              	.LBE160:
 502:/usr/local/lib/ARM/CMSIS/5.4.0/CMSIS/RTOS2/RTX/Source/rtx_mutex.c ****   } else {
 503:/usr/local/lib/ARM/CMSIS/5.4.0/CMSIS/RTOS2/RTX/Source/rtx_mutex.c ****     status = __svcMutexRelease(mutex_id);
 504:/usr/local/lib/ARM/CMSIS/5.4.0/CMSIS/RTOS2/RTX/Source/rtx_mutex.c ****   }
 505:/usr/local/lib/ARM/CMSIS/5.4.0/CMSIS/RTOS2/RTX/Source/rtx_mutex.c ****   return status;
 506:/usr/local/lib/ARM/CMSIS/5.4.0/CMSIS/RTOS2/RTX/Source/rtx_mutex.c **** }
 1360              		.loc 1 506 0
 1361 003c 10BD     		pop	{r4, pc}
 1362              	.LVL136:
 1363              	.L124:
 1364 003e 00BF     		.align	2
 1365              	.L123:
 1366 0040 00000000 		.word	svcRtxMutexRelease
 1367              		.cfi_endproc
 1368              	.LFE190:
 1370              		.section	.text.osMutexGetOwner,"ax",%progbits
 1371              		.align	2
 1372              		.global	osMutexGetOwner
 1373              		.thumb
 1374              		.thumb_func
 1376              	osMutexGetOwner:
 1377              	.LFB191:
 507:/usr/local/lib/ARM/CMSIS/5.4.0/CMSIS/RTOS2/RTX/Source/rtx_mutex.c **** 
 508:/usr/local/lib/ARM/CMSIS/5.4.0/CMSIS/RTOS2/RTX/Source/rtx_mutex.c **** /// Get Thread which owns a Mutex object.
 509:/usr/local/lib/ARM/CMSIS/5.4.0/CMSIS/RTOS2/RTX/Source/rtx_mutex.c **** osThreadId_t osMutexGetOwner (osMutexId_t mutex_id) {
 1378              		.loc 1 509 0
 1379              		.cfi_startproc
 1380              		@ args = 0, pretend = 0, frame = 0
 1381              		@ frame_needed = 0, uses_anonymous_args = 0
 1382              	.LVL137:
 1383 0000 08B5     		push	{r3, lr}
 1384              	.LCFI11:
 1385              		.cfi_def_cfa_offset 8
 1386              		.cfi_offset 3, -8
 1387              		.cfi_offset 14, -4
 1388              	.LBB162:
 1389              	.LBB163:
 1390              	.LBB164:
 209:/usr/local/lib/ARM/CMSIS/5.4.0/CMSIS/Core/Include/cmsis_gcc.h ****   return(result);
 1391              		.loc 3 209 0
 1392              		.syntax unified
 1393              	@ 209 "/usr/local/lib/ARM/CMSIS/5.4.0/CMSIS/Core/Include/cmsis_gcc.h" 1
 1394 0002 EFF30583 		MRS r3, ipsr
 1395              	@ 0 "" 2
 1396              		.thumb
 1397              		.syntax unified
 1398              	.LBE164:
 1399              	.LBE163:
 1400              	.LBE162:
 510:/usr/local/lib/ARM/CMSIS/5.4.0/CMSIS/RTOS2/RTX/Source/rtx_mutex.c ****   osThreadId_t thread;
ARM GAS  /tmp/cc1jQKzY.s 			page 48


 511:/usr/local/lib/ARM/CMSIS/5.4.0/CMSIS/RTOS2/RTX/Source/rtx_mutex.c **** 
 512:/usr/local/lib/ARM/CMSIS/5.4.0/CMSIS/RTOS2/RTX/Source/rtx_mutex.c ****   if (IsIrqMode() || IsIrqMasked()) {
 1401              		.loc 1 512 0
 1402 0006 53B9     		cbnz	r3, .L126
 1403              	.LBB165:
 1404              	.LBB166:
 1405              	.LBB167:
 1406              	.LBB168:
 386:/usr/local/lib/ARM/CMSIS/5.4.0/CMSIS/Core/Include/cmsis_gcc.h ****   return(result);
 1407              		.loc 3 386 0
 1408              		.syntax unified
 1409              	@ 386 "/usr/local/lib/ARM/CMSIS/5.4.0/CMSIS/Core/Include/cmsis_gcc.h" 1
 1410 0008 EFF31083 		MRS r3, primask
 1411              	@ 0 "" 2
 1412              		.thumb
 1413              		.syntax unified
 1414              	.LBE168:
 1415              	.LBE167:
 1416              		.loc 4 126 0
 1417 000c 1BB9     		cbnz	r3, .L130
 1418              	.LBB169:
 1419              	.LBB170:
 1420              		.loc 3 465 0
 1421              		.syntax unified
 1422              	@ 465 "/usr/local/lib/ARM/CMSIS/5.4.0/CMSIS/Core/Include/cmsis_gcc.h" 1
 1423 000e EFF31183 		MRS r3, basepri
 1424              	@ 0 "" 2
 1425              		.thumb
 1426              		.syntax unified
 1427              	.LBE170:
 1428              	.LBE169:
 1429              		.loc 4 126 0
 1430 0012 13B9     		cbnz	r3, .L131
 1431 0014 02E0     		b	.L127
 1432              	.L130:
 1433 0016 0123     		movs	r3, #1
 1434 0018 00E0     		b	.L127
 1435              	.L131:
 1436 001a 0123     		movs	r3, #1
 1437              	.L127:
 1438              	.LBE166:
 1439              	.LBE165:
 1440              		.loc 1 512 0
 1441 001c 23B1     		cbz	r3, .L128
 1442              	.L126:
 513:/usr/local/lib/ARM/CMSIS/5.4.0/CMSIS/RTOS2/RTX/Source/rtx_mutex.c ****     EvrRtxMutexGetOwner(mutex_id, NULL);
 1443              		.loc 1 513 0
 1444 001e 0021     		movs	r1, #0
 1445 0020 FFF7FEFF 		bl	EvrRtxMutexGetOwner
 1446              	.LVL138:
 514:/usr/local/lib/ARM/CMSIS/5.4.0/CMSIS/RTOS2/RTX/Source/rtx_mutex.c ****     thread = NULL;
 1447              		.loc 1 514 0
 1448 0024 0020     		movs	r0, #0
 1449 0026 08BD     		pop	{r3, pc}
 1450              	.LVL139:
 1451              	.L128:
 1452              	.LBB171:
ARM GAS  /tmp/cc1jQKzY.s 			page 49


 1453              	.LBB172:
 446:/usr/local/lib/ARM/CMSIS/5.4.0/CMSIS/RTOS2/RTX/Source/rtx_mutex.c **** SVC0_1(MutexDelete,   osStatus_t,   osMutexId_t)
 1454              		.loc 1 446 0
 1455 0028 DFF804C0 		ldr	ip, .L133
 1456              		.syntax unified
 1457              	@ 446 "/usr/local/lib/ARM/CMSIS/5.4.0/CMSIS/RTOS2/RTX/Source/rtx_mutex.c" 1
 1458 002c 00DF     		svc 0
 1459              	@ 0 "" 2
 1460              	.LVL140:
 1461              		.thumb
 1462              		.syntax unified
 1463              	.LBE172:
 1464              	.LBE171:
 515:/usr/local/lib/ARM/CMSIS/5.4.0/CMSIS/RTOS2/RTX/Source/rtx_mutex.c ****   } else {
 516:/usr/local/lib/ARM/CMSIS/5.4.0/CMSIS/RTOS2/RTX/Source/rtx_mutex.c ****     thread = __svcMutexGetOwner(mutex_id);
 517:/usr/local/lib/ARM/CMSIS/5.4.0/CMSIS/RTOS2/RTX/Source/rtx_mutex.c ****   }
 518:/usr/local/lib/ARM/CMSIS/5.4.0/CMSIS/RTOS2/RTX/Source/rtx_mutex.c ****   return thread;
 519:/usr/local/lib/ARM/CMSIS/5.4.0/CMSIS/RTOS2/RTX/Source/rtx_mutex.c **** }
 1465              		.loc 1 519 0
 1466 002e 08BD     		pop	{r3, pc}
 1467              	.L134:
 1468              		.align	2
 1469              	.L133:
 1470 0030 00000000 		.word	svcRtxMutexGetOwner
 1471              		.cfi_endproc
 1472              	.LFE191:
 1474              		.section	.text.osMutexDelete,"ax",%progbits
 1475              		.align	2
 1476              		.global	osMutexDelete
 1477              		.thumb
 1478              		.thumb_func
 1480              	osMutexDelete:
 1481              	.LFB192:
 520:/usr/local/lib/ARM/CMSIS/5.4.0/CMSIS/RTOS2/RTX/Source/rtx_mutex.c **** 
 521:/usr/local/lib/ARM/CMSIS/5.4.0/CMSIS/RTOS2/RTX/Source/rtx_mutex.c **** /// Delete a Mutex object.
 522:/usr/local/lib/ARM/CMSIS/5.4.0/CMSIS/RTOS2/RTX/Source/rtx_mutex.c **** osStatus_t osMutexDelete (osMutexId_t mutex_id) {
 1482              		.loc 1 522 0
 1483              		.cfi_startproc
 1484              		@ args = 0, pretend = 0, frame = 0
 1485              		@ frame_needed = 0, uses_anonymous_args = 0
 1486              	.LVL141:
 1487 0000 10B5     		push	{r4, lr}
 1488              	.LCFI12:
 1489              		.cfi_def_cfa_offset 8
 1490              		.cfi_offset 4, -8
 1491              		.cfi_offset 14, -4
 1492 0002 0446     		mov	r4, r0
 523:/usr/local/lib/ARM/CMSIS/5.4.0/CMSIS/RTOS2/RTX/Source/rtx_mutex.c ****   osStatus_t status;
 524:/usr/local/lib/ARM/CMSIS/5.4.0/CMSIS/RTOS2/RTX/Source/rtx_mutex.c **** 
 525:/usr/local/lib/ARM/CMSIS/5.4.0/CMSIS/RTOS2/RTX/Source/rtx_mutex.c ****   EvrRtxMutexDelete(mutex_id);
 1493              		.loc 1 525 0
 1494 0004 FFF7FEFF 		bl	EvrRtxMutexDelete
 1495              	.LVL142:
 1496              	.LBB173:
 1497              	.LBB174:
 1498              	.LBB175:
 209:/usr/local/lib/ARM/CMSIS/5.4.0/CMSIS/Core/Include/cmsis_gcc.h ****   return(result);
ARM GAS  /tmp/cc1jQKzY.s 			page 50


 1499              		.loc 3 209 0
 1500              		.syntax unified
 1501              	@ 209 "/usr/local/lib/ARM/CMSIS/5.4.0/CMSIS/Core/Include/cmsis_gcc.h" 1
 1502 0008 EFF30583 		MRS r3, ipsr
 1503              	@ 0 "" 2
 1504              		.thumb
 1505              		.syntax unified
 1506              	.LBE175:
 1507              	.LBE174:
 1508              	.LBE173:
 526:/usr/local/lib/ARM/CMSIS/5.4.0/CMSIS/RTOS2/RTX/Source/rtx_mutex.c ****   if (IsIrqMode() || IsIrqMasked()) {
 1509              		.loc 1 526 0
 1510 000c 53B9     		cbnz	r3, .L136
 1511              	.LBB176:
 1512              	.LBB177:
 1513              	.LBB178:
 1514              	.LBB179:
 386:/usr/local/lib/ARM/CMSIS/5.4.0/CMSIS/Core/Include/cmsis_gcc.h ****   return(result);
 1515              		.loc 3 386 0
 1516              		.syntax unified
 1517              	@ 386 "/usr/local/lib/ARM/CMSIS/5.4.0/CMSIS/Core/Include/cmsis_gcc.h" 1
 1518 000e EFF31083 		MRS r3, primask
 1519              	@ 0 "" 2
 1520              		.thumb
 1521              		.syntax unified
 1522              	.LBE179:
 1523              	.LBE178:
 1524              		.loc 4 126 0
 1525 0012 1BB9     		cbnz	r3, .L140
 1526              	.LBB180:
 1527              	.LBB181:
 1528              		.loc 3 465 0
 1529              		.syntax unified
 1530              	@ 465 "/usr/local/lib/ARM/CMSIS/5.4.0/CMSIS/Core/Include/cmsis_gcc.h" 1
 1531 0014 EFF31183 		MRS r3, basepri
 1532              	@ 0 "" 2
 1533              		.thumb
 1534              		.syntax unified
 1535              	.LBE181:
 1536              	.LBE180:
 1537              		.loc 4 126 0
 1538 0018 13B9     		cbnz	r3, .L141
 1539 001a 02E0     		b	.L137
 1540              	.L140:
 1541 001c 0123     		movs	r3, #1
 1542 001e 00E0     		b	.L137
 1543              	.L141:
 1544 0020 0123     		movs	r3, #1
 1545              	.L137:
 1546              	.LBE177:
 1547              	.LBE176:
 1548              		.loc 1 526 0
 1549 0022 3BB1     		cbz	r3, .L138
 1550              	.L136:
 527:/usr/local/lib/ARM/CMSIS/5.4.0/CMSIS/RTOS2/RTX/Source/rtx_mutex.c ****     EvrRtxMutexError(mutex_id, (int32_t)osErrorISR);
 1551              		.loc 1 527 0
 1552 0024 6FF00501 		mvn	r1, #5
ARM GAS  /tmp/cc1jQKzY.s 			page 51


 1553 0028 2046     		mov	r0, r4
 1554 002a FFF7FEFF 		bl	EvrRtxMutexError
 1555              	.LVL143:
 528:/usr/local/lib/ARM/CMSIS/5.4.0/CMSIS/RTOS2/RTX/Source/rtx_mutex.c ****     status = osErrorISR;
 1556              		.loc 1 528 0
 1557 002e 6FF00500 		mvn	r0, #5
 1558 0032 10BD     		pop	{r4, pc}
 1559              	.LVL144:
 1560              	.L138:
 1561              	.LBB182:
 1562              	.LBB183:
 447:/usr/local/lib/ARM/CMSIS/5.4.0/CMSIS/RTOS2/RTX/Source/rtx_mutex.c **** //lint --flb "Library End"
 1563              		.loc 1 447 0
 1564 0034 2046     		mov	r0, r4
 1565 0036 DFF808C0 		ldr	ip, .L143
 1566              		.syntax unified
 1567              	@ 447 "/usr/local/lib/ARM/CMSIS/5.4.0/CMSIS/RTOS2/RTX/Source/rtx_mutex.c" 1
 1568 003a 00DF     		svc 0
 1569              	@ 0 "" 2
 1570              	.LVL145:
 1571              		.thumb
 1572              		.syntax unified
 1573              	.LBE183:
 1574              	.LBE182:
 529:/usr/local/lib/ARM/CMSIS/5.4.0/CMSIS/RTOS2/RTX/Source/rtx_mutex.c ****   } else {
 530:/usr/local/lib/ARM/CMSIS/5.4.0/CMSIS/RTOS2/RTX/Source/rtx_mutex.c ****     status = __svcMutexDelete(mutex_id);
 531:/usr/local/lib/ARM/CMSIS/5.4.0/CMSIS/RTOS2/RTX/Source/rtx_mutex.c ****   }
 532:/usr/local/lib/ARM/CMSIS/5.4.0/CMSIS/RTOS2/RTX/Source/rtx_mutex.c ****   return status;
 533:/usr/local/lib/ARM/CMSIS/5.4.0/CMSIS/RTOS2/RTX/Source/rtx_mutex.c **** }
 1575              		.loc 1 533 0
 1576 003c 10BD     		pop	{r4, pc}
 1577              	.LVL146:
 1578              	.L144:
 1579 003e 00BF     		.align	2
 1580              	.L143:
 1581 0040 00000000 		.word	svcRtxMutexDelete
 1582              		.cfi_endproc
 1583              	.LFE192:
 1585              		.text
 1586              	.Letext0:
 1587              		.file 5 "/usr/include/newlib/machine/_default_types.h"
 1588              		.file 6 "/usr/include/newlib/sys/_stdint.h"
 1589              		.file 7 "/usr/local/lib/ARM/CMSIS/5.4.0/CMSIS/RTOS2/Include/cmsis_os2.h"
 1590              		.file 8 "/usr/local/lib/ARM/CMSIS/5.4.0/CMSIS/RTOS2/RTX/Include/rtx_os.h"
 1591              		.file 9 "/usr/local/lib/ARM/CMSIS/5.4.0/CMSIS/Core/Include/core_cm4.h"
 1592              		.file 10 "/usr/local/lib/ARM/CMSIS/5.4.0/CMSIS/RTOS2/RTX/Include/rtx_evr.h"
ARM GAS  /tmp/cc1jQKzY.s 			page 52

