ARM GAS  /tmp/ccrysPfs.s 			page 1


   1              		.syntax unified
   2              		.cpu cortex-m4
   3              		.eabi_attribute 27, 1
   4              		.eabi_attribute 28, 1
   5              		.fpu fpv4-sp-d16
   6              		.eabi_attribute 20, 1
   7              		.eabi_attribute 21, 1
   8              		.eabi_attribute 23, 3
   9              		.eabi_attribute 24, 1
  10              		.eabi_attribute 25, 1
  11              		.eabi_attribute 26, 1
  12              		.eabi_attribute 30, 1
  13              		.eabi_attribute 34, 1
  14              		.eabi_attribute 18, 4
  15              		.thumb
  16              		.syntax unified
  17              		.file	"rtx_evr.c"
  18              		.text
  19              	.Ltext0:
  20              		.cfi_sections	.debug_frame
  21              		.section	.text.EvrRtxMemoryInit,"ax",%progbits
  22              		.align	2
  23              		.weak	EvrRtxMemoryInit
  24              		.thumb
  25              		.thumb_func
  27              	EvrRtxMemoryInit:
  28              	.LFB102:
  29              		.file 1 "/usr/local/lib/ARM/CMSIS/5.4.0/CMSIS/RTOS2/RTX/Source/rtx_evr.c"
   1:/usr/local/lib/ARM/CMSIS/5.4.0/CMSIS/RTOS2/RTX/Source/rtx_evr.c **** /*
   2:/usr/local/lib/ARM/CMSIS/5.4.0/CMSIS/RTOS2/RTX/Source/rtx_evr.c ****  * Copyright (c) 2013-2018 Arm Limited. All rights reserved.
   3:/usr/local/lib/ARM/CMSIS/5.4.0/CMSIS/RTOS2/RTX/Source/rtx_evr.c ****  *
   4:/usr/local/lib/ARM/CMSIS/5.4.0/CMSIS/RTOS2/RTX/Source/rtx_evr.c ****  * SPDX-License-Identifier: Apache-2.0
   5:/usr/local/lib/ARM/CMSIS/5.4.0/CMSIS/RTOS2/RTX/Source/rtx_evr.c ****  *
   6:/usr/local/lib/ARM/CMSIS/5.4.0/CMSIS/RTOS2/RTX/Source/rtx_evr.c ****  * Licensed under the Apache License, Version 2.0 (the License); you may
   7:/usr/local/lib/ARM/CMSIS/5.4.0/CMSIS/RTOS2/RTX/Source/rtx_evr.c ****  * not use this file except in compliance with the License.
   8:/usr/local/lib/ARM/CMSIS/5.4.0/CMSIS/RTOS2/RTX/Source/rtx_evr.c ****  * You may obtain a copy of the License at
   9:/usr/local/lib/ARM/CMSIS/5.4.0/CMSIS/RTOS2/RTX/Source/rtx_evr.c ****  *
  10:/usr/local/lib/ARM/CMSIS/5.4.0/CMSIS/RTOS2/RTX/Source/rtx_evr.c ****  * www.apache.org/licenses/LICENSE-2.0
  11:/usr/local/lib/ARM/CMSIS/5.4.0/CMSIS/RTOS2/RTX/Source/rtx_evr.c ****  *
  12:/usr/local/lib/ARM/CMSIS/5.4.0/CMSIS/RTOS2/RTX/Source/rtx_evr.c ****  * Unless required by applicable law or agreed to in writing, software
  13:/usr/local/lib/ARM/CMSIS/5.4.0/CMSIS/RTOS2/RTX/Source/rtx_evr.c ****  * distributed under the License is distributed on an AS IS BASIS, WITHOUT
  14:/usr/local/lib/ARM/CMSIS/5.4.0/CMSIS/RTOS2/RTX/Source/rtx_evr.c ****  * WARRANTIES OR CONDITIONS OF ANY KIND, either express or implied.
  15:/usr/local/lib/ARM/CMSIS/5.4.0/CMSIS/RTOS2/RTX/Source/rtx_evr.c ****  * See the License for the specific language governing permissions and
  16:/usr/local/lib/ARM/CMSIS/5.4.0/CMSIS/RTOS2/RTX/Source/rtx_evr.c ****  * limitations under the License.
  17:/usr/local/lib/ARM/CMSIS/5.4.0/CMSIS/RTOS2/RTX/Source/rtx_evr.c ****  *
  18:/usr/local/lib/ARM/CMSIS/5.4.0/CMSIS/RTOS2/RTX/Source/rtx_evr.c ****  * -----------------------------------------------------------------------------
  19:/usr/local/lib/ARM/CMSIS/5.4.0/CMSIS/RTOS2/RTX/Source/rtx_evr.c ****  *
  20:/usr/local/lib/ARM/CMSIS/5.4.0/CMSIS/RTOS2/RTX/Source/rtx_evr.c ****  * Project:     CMSIS-RTOS RTX
  21:/usr/local/lib/ARM/CMSIS/5.4.0/CMSIS/RTOS2/RTX/Source/rtx_evr.c ****  * Title:       RTX Event Recorder
  22:/usr/local/lib/ARM/CMSIS/5.4.0/CMSIS/RTOS2/RTX/Source/rtx_evr.c ****  *
  23:/usr/local/lib/ARM/CMSIS/5.4.0/CMSIS/RTOS2/RTX/Source/rtx_evr.c ****  * -----------------------------------------------------------------------------
  24:/usr/local/lib/ARM/CMSIS/5.4.0/CMSIS/RTOS2/RTX/Source/rtx_evr.c ****  */
  25:/usr/local/lib/ARM/CMSIS/5.4.0/CMSIS/RTOS2/RTX/Source/rtx_evr.c **** 
  26:/usr/local/lib/ARM/CMSIS/5.4.0/CMSIS/RTOS2/RTX/Source/rtx_evr.c **** #include <string.h>
  27:/usr/local/lib/ARM/CMSIS/5.4.0/CMSIS/RTOS2/RTX/Source/rtx_evr.c **** #include "cmsis_compiler.h"
  28:/usr/local/lib/ARM/CMSIS/5.4.0/CMSIS/RTOS2/RTX/Source/rtx_evr.c **** #include "rtx_evr.h"                    // RTX Event Recorder definitions
  29:/usr/local/lib/ARM/CMSIS/5.4.0/CMSIS/RTOS2/RTX/Source/rtx_evr.c **** 
ARM GAS  /tmp/ccrysPfs.s 			page 2


  30:/usr/local/lib/ARM/CMSIS/5.4.0/CMSIS/RTOS2/RTX/Source/rtx_evr.c **** #ifdef  RTE_Compiler_EventRecorder
  31:/usr/local/lib/ARM/CMSIS/5.4.0/CMSIS/RTOS2/RTX/Source/rtx_evr.c **** 
  32:/usr/local/lib/ARM/CMSIS/5.4.0/CMSIS/RTOS2/RTX/Source/rtx_evr.c **** //lint -e923 -e9074 -e9078 -emacro((835,845),EventID) [MISRA Note 13]
  33:/usr/local/lib/ARM/CMSIS/5.4.0/CMSIS/RTOS2/RTX/Source/rtx_evr.c **** 
  34:/usr/local/lib/ARM/CMSIS/5.4.0/CMSIS/RTOS2/RTX/Source/rtx_evr.c **** /// Event IDs for "RTX Memory Management"
  35:/usr/local/lib/ARM/CMSIS/5.4.0/CMSIS/RTOS2/RTX/Source/rtx_evr.c **** #define EvtRtxMemoryInit                    EventID(EventLevelOp,     EvtRtxMemoryNo, 0x00U)
  36:/usr/local/lib/ARM/CMSIS/5.4.0/CMSIS/RTOS2/RTX/Source/rtx_evr.c **** #define EvtRtxMemoryAlloc                   EventID(EventLevelOp,     EvtRtxMemoryNo, 0x01U)
  37:/usr/local/lib/ARM/CMSIS/5.4.0/CMSIS/RTOS2/RTX/Source/rtx_evr.c **** #define EvtRtxMemoryFree                    EventID(EventLevelOp,     EvtRtxMemoryNo, 0x02U)
  38:/usr/local/lib/ARM/CMSIS/5.4.0/CMSIS/RTOS2/RTX/Source/rtx_evr.c **** #define EvtRtxMemoryBlockInit               EventID(EventLevelOp,     EvtRtxMemoryNo, 0x03U)
  39:/usr/local/lib/ARM/CMSIS/5.4.0/CMSIS/RTOS2/RTX/Source/rtx_evr.c **** #define EvtRtxMemoryBlockAlloc              EventID(EventLevelOp,     EvtRtxMemoryNo, 0x04U)
  40:/usr/local/lib/ARM/CMSIS/5.4.0/CMSIS/RTOS2/RTX/Source/rtx_evr.c **** #define EvtRtxMemoryBlockFree               EventID(EventLevelOp,     EvtRtxMemoryNo, 0x05U)
  41:/usr/local/lib/ARM/CMSIS/5.4.0/CMSIS/RTOS2/RTX/Source/rtx_evr.c **** 
  42:/usr/local/lib/ARM/CMSIS/5.4.0/CMSIS/RTOS2/RTX/Source/rtx_evr.c **** /// Event IDs for "RTX Kernel"
  43:/usr/local/lib/ARM/CMSIS/5.4.0/CMSIS/RTOS2/RTX/Source/rtx_evr.c **** #define EvtRtxKernelError                   EventID(EventLevelError,  EvtRtxKernelNo, 0x00U)
  44:/usr/local/lib/ARM/CMSIS/5.4.0/CMSIS/RTOS2/RTX/Source/rtx_evr.c **** #define EvtRtxKernelInitialize              EventID(EventLevelAPI,    EvtRtxKernelNo, 0x01U)
  45:/usr/local/lib/ARM/CMSIS/5.4.0/CMSIS/RTOS2/RTX/Source/rtx_evr.c **** #define EvtRtxKernelInitialized             EventID(EventLevelOp,     EvtRtxKernelNo, 0x02U)
  46:/usr/local/lib/ARM/CMSIS/5.4.0/CMSIS/RTOS2/RTX/Source/rtx_evr.c **** #define EvtRtxKernelGetInfo                 EventID(EventLevelAPI,    EvtRtxKernelNo, 0x03U)
  47:/usr/local/lib/ARM/CMSIS/5.4.0/CMSIS/RTOS2/RTX/Source/rtx_evr.c **** #define EvtRtxKernelInfoRetrieved           EventID(EventLevelOp,     EvtRtxKernelNo, 0x04U)
  48:/usr/local/lib/ARM/CMSIS/5.4.0/CMSIS/RTOS2/RTX/Source/rtx_evr.c **** #define EvtRtxKernelGetState                EventID(EventLevelAPI,    EvtRtxKernelNo, 0x06U)
  49:/usr/local/lib/ARM/CMSIS/5.4.0/CMSIS/RTOS2/RTX/Source/rtx_evr.c **** #define EvtRtxKernelStart                   EventID(EventLevelAPI,    EvtRtxKernelNo, 0x07U)
  50:/usr/local/lib/ARM/CMSIS/5.4.0/CMSIS/RTOS2/RTX/Source/rtx_evr.c **** #define EvtRtxKernelStarted                 EventID(EventLevelOp,     EvtRtxKernelNo, 0x08U)
  51:/usr/local/lib/ARM/CMSIS/5.4.0/CMSIS/RTOS2/RTX/Source/rtx_evr.c **** #define EvtRtxKernelLock                    EventID(EventLevelAPI,    EvtRtxKernelNo, 0x09U)
  52:/usr/local/lib/ARM/CMSIS/5.4.0/CMSIS/RTOS2/RTX/Source/rtx_evr.c **** #define EvtRtxKernelLocked                  EventID(EventLevelOp,     EvtRtxKernelNo, 0x0AU)
  53:/usr/local/lib/ARM/CMSIS/5.4.0/CMSIS/RTOS2/RTX/Source/rtx_evr.c **** #define EvtRtxKernelUnlock                  EventID(EventLevelAPI,    EvtRtxKernelNo, 0x0BU)
  54:/usr/local/lib/ARM/CMSIS/5.4.0/CMSIS/RTOS2/RTX/Source/rtx_evr.c **** #define EvtRtxKernelUnlocked                EventID(EventLevelOp,     EvtRtxKernelNo, 0x0CU)
  55:/usr/local/lib/ARM/CMSIS/5.4.0/CMSIS/RTOS2/RTX/Source/rtx_evr.c **** #define EvtRtxKernelRestoreLock             EventID(EventLevelAPI,    EvtRtxKernelNo, 0x0DU)
  56:/usr/local/lib/ARM/CMSIS/5.4.0/CMSIS/RTOS2/RTX/Source/rtx_evr.c **** #define EvtRtxKernelLockRestored            EventID(EventLevelOp,     EvtRtxKernelNo, 0x0EU)
  57:/usr/local/lib/ARM/CMSIS/5.4.0/CMSIS/RTOS2/RTX/Source/rtx_evr.c **** #define EvtRtxKernelSuspend                 EventID(EventLevelAPI,    EvtRtxKernelNo, 0x0FU)
  58:/usr/local/lib/ARM/CMSIS/5.4.0/CMSIS/RTOS2/RTX/Source/rtx_evr.c **** #define EvtRtxKernelSuspended               EventID(EventLevelOp,     EvtRtxKernelNo, 0x10U)
  59:/usr/local/lib/ARM/CMSIS/5.4.0/CMSIS/RTOS2/RTX/Source/rtx_evr.c **** #define EvtRtxKernelResume                  EventID(EventLevelAPI,    EvtRtxKernelNo, 0x11U)
  60:/usr/local/lib/ARM/CMSIS/5.4.0/CMSIS/RTOS2/RTX/Source/rtx_evr.c **** #define EvtRtxKernelResumed                 EventID(EventLevelOp,     EvtRtxKernelNo, 0x12U)
  61:/usr/local/lib/ARM/CMSIS/5.4.0/CMSIS/RTOS2/RTX/Source/rtx_evr.c **** #define EvtRtxKernelGetTickCount            EventID(EventLevelAPI,    EvtRtxKernelNo, 0x13U)
  62:/usr/local/lib/ARM/CMSIS/5.4.0/CMSIS/RTOS2/RTX/Source/rtx_evr.c **** #define EvtRtxKernelGetTickFreq             EventID(EventLevelAPI,    EvtRtxKernelNo, 0x14U)
  63:/usr/local/lib/ARM/CMSIS/5.4.0/CMSIS/RTOS2/RTX/Source/rtx_evr.c **** #define EvtRtxKernelGetSysTimerCount        EventID(EventLevelAPI,    EvtRtxKernelNo, 0x15U)
  64:/usr/local/lib/ARM/CMSIS/5.4.0/CMSIS/RTOS2/RTX/Source/rtx_evr.c **** #define EvtRtxKernelGetSysTimerFreq         EventID(EventLevelAPI,    EvtRtxKernelNo, 0x16U)
  65:/usr/local/lib/ARM/CMSIS/5.4.0/CMSIS/RTOS2/RTX/Source/rtx_evr.c **** 
  66:/usr/local/lib/ARM/CMSIS/5.4.0/CMSIS/RTOS2/RTX/Source/rtx_evr.c **** /// Event IDs for "RTX Thread"
  67:/usr/local/lib/ARM/CMSIS/5.4.0/CMSIS/RTOS2/RTX/Source/rtx_evr.c **** #define EvtRtxThreadError                   EventID(EventLevelError,  EvtRtxThreadNo, 0x00U)
  68:/usr/local/lib/ARM/CMSIS/5.4.0/CMSIS/RTOS2/RTX/Source/rtx_evr.c **** #define EvtRtxThreadNew                     EventID(EventLevelAPI,    EvtRtxThreadNo, 0x01U)
  69:/usr/local/lib/ARM/CMSIS/5.4.0/CMSIS/RTOS2/RTX/Source/rtx_evr.c **** #define EvtRtxThreadNew_Detail              EventID(EventLevelDetail, EvtRtxThreadNo, 0x02U)
  70:/usr/local/lib/ARM/CMSIS/5.4.0/CMSIS/RTOS2/RTX/Source/rtx_evr.c **** #define EvtRtxThreadCreated_Addr            EventID(EventLevelOp,     EvtRtxThreadNo, 0x03U)
  71:/usr/local/lib/ARM/CMSIS/5.4.0/CMSIS/RTOS2/RTX/Source/rtx_evr.c **** #define EvtRtxThreadCreated_Name            EventID(EventLevelOp,     EvtRtxThreadNo, 0x2CU)
  72:/usr/local/lib/ARM/CMSIS/5.4.0/CMSIS/RTOS2/RTX/Source/rtx_evr.c **** #define EvtRtxThreadGetName                 EventID(EventLevelAPI,    EvtRtxThreadNo, 0x04U)
  73:/usr/local/lib/ARM/CMSIS/5.4.0/CMSIS/RTOS2/RTX/Source/rtx_evr.c **** #define EvtRtxThreadGetId                   EventID(EventLevelAPI,    EvtRtxThreadNo, 0x06U)
  74:/usr/local/lib/ARM/CMSIS/5.4.0/CMSIS/RTOS2/RTX/Source/rtx_evr.c **** #define EvtRtxThreadGetState                EventID(EventLevelAPI,    EvtRtxThreadNo, 0x07U)
  75:/usr/local/lib/ARM/CMSIS/5.4.0/CMSIS/RTOS2/RTX/Source/rtx_evr.c **** #define EvtRtxThreadGetStackSize            EventID(EventLevelAPI,    EvtRtxThreadNo, 0x08U)
  76:/usr/local/lib/ARM/CMSIS/5.4.0/CMSIS/RTOS2/RTX/Source/rtx_evr.c **** #define EvtRtxThreadGetStackSpace           EventID(EventLevelAPI,    EvtRtxThreadNo, 0x09U)
  77:/usr/local/lib/ARM/CMSIS/5.4.0/CMSIS/RTOS2/RTX/Source/rtx_evr.c **** #define EvtRtxThreadSetPriority             EventID(EventLevelAPI,    EvtRtxThreadNo, 0x0AU)
  78:/usr/local/lib/ARM/CMSIS/5.4.0/CMSIS/RTOS2/RTX/Source/rtx_evr.c **** #define EvtRtxThreadGetPriority             EventID(EventLevelAPI,    EvtRtxThreadNo, 0x0BU)
  79:/usr/local/lib/ARM/CMSIS/5.4.0/CMSIS/RTOS2/RTX/Source/rtx_evr.c **** #define EvtRtxThreadYield                   EventID(EventLevelAPI,    EvtRtxThreadNo, 0x0CU)
  80:/usr/local/lib/ARM/CMSIS/5.4.0/CMSIS/RTOS2/RTX/Source/rtx_evr.c **** #define EvtRtxThreadSuspend                 EventID(EventLevelAPI,    EvtRtxThreadNo, 0x0DU)
  81:/usr/local/lib/ARM/CMSIS/5.4.0/CMSIS/RTOS2/RTX/Source/rtx_evr.c **** #define EvtRtxThreadSuspended               EventID(EventLevelOp,     EvtRtxThreadNo, 0x0EU)
  82:/usr/local/lib/ARM/CMSIS/5.4.0/CMSIS/RTOS2/RTX/Source/rtx_evr.c **** #define EvtRtxThreadResume                  EventID(EventLevelAPI,    EvtRtxThreadNo, 0x0FU)
  83:/usr/local/lib/ARM/CMSIS/5.4.0/CMSIS/RTOS2/RTX/Source/rtx_evr.c **** #define EvtRtxThreadResumed                 EventID(EventLevelOp,     EvtRtxThreadNo, 0x10U)
  84:/usr/local/lib/ARM/CMSIS/5.4.0/CMSIS/RTOS2/RTX/Source/rtx_evr.c **** #define EvtRtxThreadDetach                  EventID(EventLevelAPI,    EvtRtxThreadNo, 0x11U)
  85:/usr/local/lib/ARM/CMSIS/5.4.0/CMSIS/RTOS2/RTX/Source/rtx_evr.c **** #define EvtRtxThreadDetached                EventID(EventLevelOp,     EvtRtxThreadNo, 0x12U)
  86:/usr/local/lib/ARM/CMSIS/5.4.0/CMSIS/RTOS2/RTX/Source/rtx_evr.c **** #define EvtRtxThreadJoin                    EventID(EventLevelAPI,    EvtRtxThreadNo, 0x13U)
ARM GAS  /tmp/ccrysPfs.s 			page 3


  87:/usr/local/lib/ARM/CMSIS/5.4.0/CMSIS/RTOS2/RTX/Source/rtx_evr.c **** #define EvtRtxThreadJoinPending             EventID(EventLevelOp,     EvtRtxThreadNo, 0x14U)
  88:/usr/local/lib/ARM/CMSIS/5.4.0/CMSIS/RTOS2/RTX/Source/rtx_evr.c **** #define EvtRtxThreadJoined                  EventID(EventLevelOp,     EvtRtxThreadNo, 0x15U)
  89:/usr/local/lib/ARM/CMSIS/5.4.0/CMSIS/RTOS2/RTX/Source/rtx_evr.c **** #define EvtRtxThreadBlocked                 EventID(EventLevelOp,     EvtRtxThreadNo, 0x16U)
  90:/usr/local/lib/ARM/CMSIS/5.4.0/CMSIS/RTOS2/RTX/Source/rtx_evr.c **** #define EvtRtxThreadUnblocked               EventID(EventLevelOp,     EvtRtxThreadNo, 0x17U)
  91:/usr/local/lib/ARM/CMSIS/5.4.0/CMSIS/RTOS2/RTX/Source/rtx_evr.c **** #define EvtRtxThreadPreempted               EventID(EventLevelOp,     EvtRtxThreadNo, 0x18U)
  92:/usr/local/lib/ARM/CMSIS/5.4.0/CMSIS/RTOS2/RTX/Source/rtx_evr.c **** #define EvtRtxThreadSwitched                EventID(EventLevelOp,     EvtRtxThreadNo, 0x19U)
  93:/usr/local/lib/ARM/CMSIS/5.4.0/CMSIS/RTOS2/RTX/Source/rtx_evr.c **** #define EvtRtxThreadExit                    EventID(EventLevelAPI,    EvtRtxThreadNo, 0x1AU)
  94:/usr/local/lib/ARM/CMSIS/5.4.0/CMSIS/RTOS2/RTX/Source/rtx_evr.c **** #define EvtRtxThreadTerminate               EventID(EventLevelAPI,    EvtRtxThreadNo, 0x1BU)
  95:/usr/local/lib/ARM/CMSIS/5.4.0/CMSIS/RTOS2/RTX/Source/rtx_evr.c **** #define EvtRtxThreadDestroyed               EventID(EventLevelOp,     EvtRtxThreadNo, 0x1CU)
  96:/usr/local/lib/ARM/CMSIS/5.4.0/CMSIS/RTOS2/RTX/Source/rtx_evr.c **** #define EvtRtxThreadGetCount                EventID(EventLevelAPI,    EvtRtxThreadNo, 0x1DU)
  97:/usr/local/lib/ARM/CMSIS/5.4.0/CMSIS/RTOS2/RTX/Source/rtx_evr.c **** #define EvtRtxThreadEnumerate               EventID(EventLevelAPI,    EvtRtxThreadNo, 0x1EU)
  98:/usr/local/lib/ARM/CMSIS/5.4.0/CMSIS/RTOS2/RTX/Source/rtx_evr.c **** #define EvtRtxThreadFlagsSet                EventID(EventLevelAPI,    EvtRtxThreadNo, 0x1FU)
  99:/usr/local/lib/ARM/CMSIS/5.4.0/CMSIS/RTOS2/RTX/Source/rtx_evr.c **** #define EvtRtxThreadFlagsSetDone            EventID(EventLevelOp,     EvtRtxThreadNo, 0x20U)
 100:/usr/local/lib/ARM/CMSIS/5.4.0/CMSIS/RTOS2/RTX/Source/rtx_evr.c **** #define EvtRtxThreadFlagsClear              EventID(EventLevelAPI,    EvtRtxThreadNo, 0x21U)
 101:/usr/local/lib/ARM/CMSIS/5.4.0/CMSIS/RTOS2/RTX/Source/rtx_evr.c **** #define EvtRtxThreadFlagsClearDone          EventID(EventLevelOp,     EvtRtxThreadNo, 0x22U)
 102:/usr/local/lib/ARM/CMSIS/5.4.0/CMSIS/RTOS2/RTX/Source/rtx_evr.c **** #define EvtRtxThreadFlagsGet                EventID(EventLevelAPI,    EvtRtxThreadNo, 0x23U)
 103:/usr/local/lib/ARM/CMSIS/5.4.0/CMSIS/RTOS2/RTX/Source/rtx_evr.c **** #define EvtRtxThreadFlagsWait               EventID(EventLevelAPI,    EvtRtxThreadNo, 0x24U)
 104:/usr/local/lib/ARM/CMSIS/5.4.0/CMSIS/RTOS2/RTX/Source/rtx_evr.c **** #define EvtRtxThreadFlagsWaitPending        EventID(EventLevelOp,     EvtRtxThreadNo, 0x25U)
 105:/usr/local/lib/ARM/CMSIS/5.4.0/CMSIS/RTOS2/RTX/Source/rtx_evr.c **** #define EvtRtxThreadFlagsWaitTimeout        EventID(EventLevelOp,     EvtRtxThreadNo, 0x26U)
 106:/usr/local/lib/ARM/CMSIS/5.4.0/CMSIS/RTOS2/RTX/Source/rtx_evr.c **** #define EvtRtxThreadFlagsWaitCompleted      EventID(EventLevelOp,     EvtRtxThreadNo, 0x27U)
 107:/usr/local/lib/ARM/CMSIS/5.4.0/CMSIS/RTOS2/RTX/Source/rtx_evr.c **** #define EvtRtxThreadFlagsWaitNotCompleted   EventID(EventLevelOp,     EvtRtxThreadNo, 0x28U)
 108:/usr/local/lib/ARM/CMSIS/5.4.0/CMSIS/RTOS2/RTX/Source/rtx_evr.c **** #define EvtRtxThreadDelay                   EventID(EventLevelAPI,    EvtRtxThreadNo, 0x29U)
 109:/usr/local/lib/ARM/CMSIS/5.4.0/CMSIS/RTOS2/RTX/Source/rtx_evr.c **** #define EvtRtxThreadDelayUntil              EventID(EventLevelAPI,    EvtRtxThreadNo, 0x2AU)
 110:/usr/local/lib/ARM/CMSIS/5.4.0/CMSIS/RTOS2/RTX/Source/rtx_evr.c **** #define EvtRtxThreadDelayCompleted          EventID(EventLevelOp,     EvtRtxThreadNo, 0x2BU)
 111:/usr/local/lib/ARM/CMSIS/5.4.0/CMSIS/RTOS2/RTX/Source/rtx_evr.c **** 
 112:/usr/local/lib/ARM/CMSIS/5.4.0/CMSIS/RTOS2/RTX/Source/rtx_evr.c **** /// Event IDs for "RTX Timer"
 113:/usr/local/lib/ARM/CMSIS/5.4.0/CMSIS/RTOS2/RTX/Source/rtx_evr.c **** #define EvtRtxTimerError                    EventID(EventLevelError,  EvtRtxTimerNo, 0x00U)
 114:/usr/local/lib/ARM/CMSIS/5.4.0/CMSIS/RTOS2/RTX/Source/rtx_evr.c **** #define EvtRtxTimerCallback                 EventID(EventLevelOp,     EvtRtxTimerNo, 0x01U)
 115:/usr/local/lib/ARM/CMSIS/5.4.0/CMSIS/RTOS2/RTX/Source/rtx_evr.c **** #define EvtRtxTimerNew                      EventID(EventLevelAPI,    EvtRtxTimerNo, 0x02U)
 116:/usr/local/lib/ARM/CMSIS/5.4.0/CMSIS/RTOS2/RTX/Source/rtx_evr.c **** #define EvtRtxTimerNew_Detail               EventID(EventLevelDetail, EvtRtxTimerNo, 0x03U)
 117:/usr/local/lib/ARM/CMSIS/5.4.0/CMSIS/RTOS2/RTX/Source/rtx_evr.c **** #define EvtRtxTimerCreated                  EventID(EventLevelOp,     EvtRtxTimerNo, 0x04U)
 118:/usr/local/lib/ARM/CMSIS/5.4.0/CMSIS/RTOS2/RTX/Source/rtx_evr.c **** #define EvtRtxTimerGetName                  EventID(EventLevelAPI,    EvtRtxTimerNo, 0x05U)
 119:/usr/local/lib/ARM/CMSIS/5.4.0/CMSIS/RTOS2/RTX/Source/rtx_evr.c **** #define EvtRtxTimerStart                    EventID(EventLevelAPI,    EvtRtxTimerNo, 0x07U)
 120:/usr/local/lib/ARM/CMSIS/5.4.0/CMSIS/RTOS2/RTX/Source/rtx_evr.c **** #define EvtRtxTimerStarted                  EventID(EventLevelOp,     EvtRtxTimerNo, 0x08U)
 121:/usr/local/lib/ARM/CMSIS/5.4.0/CMSIS/RTOS2/RTX/Source/rtx_evr.c **** #define EvtRtxTimerStop                     EventID(EventLevelAPI,    EvtRtxTimerNo, 0x09U)
 122:/usr/local/lib/ARM/CMSIS/5.4.0/CMSIS/RTOS2/RTX/Source/rtx_evr.c **** #define EvtRtxTimerStopped                  EventID(EventLevelOp,     EvtRtxTimerNo, 0x0AU)
 123:/usr/local/lib/ARM/CMSIS/5.4.0/CMSIS/RTOS2/RTX/Source/rtx_evr.c **** #define EvtRtxTimerIsRunning                EventID(EventLevelAPI,    EvtRtxTimerNo, 0x0BU)
 124:/usr/local/lib/ARM/CMSIS/5.4.0/CMSIS/RTOS2/RTX/Source/rtx_evr.c **** #define EvtRtxTimerDelete                   EventID(EventLevelAPI,    EvtRtxTimerNo, 0x0CU)
 125:/usr/local/lib/ARM/CMSIS/5.4.0/CMSIS/RTOS2/RTX/Source/rtx_evr.c **** #define EvtRtxTimerDestroyed                EventID(EventLevelOp,     EvtRtxTimerNo, 0x0DU)
 126:/usr/local/lib/ARM/CMSIS/5.4.0/CMSIS/RTOS2/RTX/Source/rtx_evr.c **** 
 127:/usr/local/lib/ARM/CMSIS/5.4.0/CMSIS/RTOS2/RTX/Source/rtx_evr.c **** /// Event IDs for "RTX Event Flags"
 128:/usr/local/lib/ARM/CMSIS/5.4.0/CMSIS/RTOS2/RTX/Source/rtx_evr.c **** #define EvtRtxEventFlagsError               EventID(EventLevelError,  EvtRtxEventFlagsNo, 0x00U)
 129:/usr/local/lib/ARM/CMSIS/5.4.0/CMSIS/RTOS2/RTX/Source/rtx_evr.c **** #define EvtRtxEventFlagsNew                 EventID(EventLevelAPI,    EvtRtxEventFlagsNo, 0x01U)
 130:/usr/local/lib/ARM/CMSIS/5.4.0/CMSIS/RTOS2/RTX/Source/rtx_evr.c **** #define EvtRtxEventFlagsNew_Detail          EventID(EventLevelDetail, EvtRtxEventFlagsNo, 0x02U)
 131:/usr/local/lib/ARM/CMSIS/5.4.0/CMSIS/RTOS2/RTX/Source/rtx_evr.c **** #define EvtRtxEventFlagsCreated             EventID(EventLevelOp,     EvtRtxEventFlagsNo, 0x03U)
 132:/usr/local/lib/ARM/CMSIS/5.4.0/CMSIS/RTOS2/RTX/Source/rtx_evr.c **** #define EvtRtxEventFlagsGetName             EventID(EventLevelAPI,    EvtRtxEventFlagsNo, 0x04U)
 133:/usr/local/lib/ARM/CMSIS/5.4.0/CMSIS/RTOS2/RTX/Source/rtx_evr.c **** #define EvtRtxEventFlagsSet                 EventID(EventLevelAPI,    EvtRtxEventFlagsNo, 0x06U)
 134:/usr/local/lib/ARM/CMSIS/5.4.0/CMSIS/RTOS2/RTX/Source/rtx_evr.c **** #define EvtRtxEventFlagsSetDone             EventID(EventLevelOp,     EvtRtxEventFlagsNo, 0x07U)
 135:/usr/local/lib/ARM/CMSIS/5.4.0/CMSIS/RTOS2/RTX/Source/rtx_evr.c **** #define EvtRtxEventFlagsClear               EventID(EventLevelAPI,    EvtRtxEventFlagsNo, 0x08U)
 136:/usr/local/lib/ARM/CMSIS/5.4.0/CMSIS/RTOS2/RTX/Source/rtx_evr.c **** #define EvtRtxEventFlagsClearDone           EventID(EventLevelOp,     EvtRtxEventFlagsNo, 0x09U)
 137:/usr/local/lib/ARM/CMSIS/5.4.0/CMSIS/RTOS2/RTX/Source/rtx_evr.c **** #define EvtRtxEventFlagsGet                 EventID(EventLevelAPI,    EvtRtxEventFlagsNo, 0x0AU)
 138:/usr/local/lib/ARM/CMSIS/5.4.0/CMSIS/RTOS2/RTX/Source/rtx_evr.c **** #define EvtRtxEventFlagsWait                EventID(EventLevelAPI,    EvtRtxEventFlagsNo, 0x0BU)
 139:/usr/local/lib/ARM/CMSIS/5.4.0/CMSIS/RTOS2/RTX/Source/rtx_evr.c **** #define EvtRtxEventFlagsWaitPending         EventID(EventLevelOp,     EvtRtxEventFlagsNo, 0x0CU)
 140:/usr/local/lib/ARM/CMSIS/5.4.0/CMSIS/RTOS2/RTX/Source/rtx_evr.c **** #define EvtRtxEventFlagsWaitTimeout         EventID(EventLevelOp,     EvtRtxEventFlagsNo, 0x0DU)
 141:/usr/local/lib/ARM/CMSIS/5.4.0/CMSIS/RTOS2/RTX/Source/rtx_evr.c **** #define EvtRtxEventFlagsWaitCompleted       EventID(EventLevelOp,     EvtRtxEventFlagsNo, 0x0EU)
 142:/usr/local/lib/ARM/CMSIS/5.4.0/CMSIS/RTOS2/RTX/Source/rtx_evr.c **** #define EvtRtxEventFlagsWaitNotCompleted    EventID(EventLevelOp,     EvtRtxEventFlagsNo, 0x0FU)
 143:/usr/local/lib/ARM/CMSIS/5.4.0/CMSIS/RTOS2/RTX/Source/rtx_evr.c **** #define EvtRtxEventFlagsDelete              EventID(EventLevelAPI,    EvtRtxEventFlagsNo, 0x10U)
ARM GAS  /tmp/ccrysPfs.s 			page 4


 144:/usr/local/lib/ARM/CMSIS/5.4.0/CMSIS/RTOS2/RTX/Source/rtx_evr.c **** #define EvtRtxEventFlagsDestroyed           EventID(EventLevelOp,     EvtRtxEventFlagsNo, 0x11U)
 145:/usr/local/lib/ARM/CMSIS/5.4.0/CMSIS/RTOS2/RTX/Source/rtx_evr.c **** 
 146:/usr/local/lib/ARM/CMSIS/5.4.0/CMSIS/RTOS2/RTX/Source/rtx_evr.c **** /// Event IDs for "RTX Mutex"
 147:/usr/local/lib/ARM/CMSIS/5.4.0/CMSIS/RTOS2/RTX/Source/rtx_evr.c **** #define EvtRtxMutexError                    EventID(EventLevelError,  EvtRtxMutexNo, 0x00U)
 148:/usr/local/lib/ARM/CMSIS/5.4.0/CMSIS/RTOS2/RTX/Source/rtx_evr.c **** #define EvtRtxMutexNew                      EventID(EventLevelAPI,    EvtRtxMutexNo, 0x01U)
 149:/usr/local/lib/ARM/CMSIS/5.4.0/CMSIS/RTOS2/RTX/Source/rtx_evr.c **** #define EvtRtxMutexNew_Detail               EventID(EventLevelDetail, EvtRtxMutexNo, 0x02U)
 150:/usr/local/lib/ARM/CMSIS/5.4.0/CMSIS/RTOS2/RTX/Source/rtx_evr.c **** #define EvtRtxMutexCreated                  EventID(EventLevelOp,     EvtRtxMutexNo, 0x03U)
 151:/usr/local/lib/ARM/CMSIS/5.4.0/CMSIS/RTOS2/RTX/Source/rtx_evr.c **** #define EvtRtxMutexGetName                  EventID(EventLevelAPI,    EvtRtxMutexNo, 0x04U)
 152:/usr/local/lib/ARM/CMSIS/5.4.0/CMSIS/RTOS2/RTX/Source/rtx_evr.c **** #define EvtRtxMutexAcquire                  EventID(EventLevelAPI,    EvtRtxMutexNo, 0x06U)
 153:/usr/local/lib/ARM/CMSIS/5.4.0/CMSIS/RTOS2/RTX/Source/rtx_evr.c **** #define EvtRtxMutexAcquirePending           EventID(EventLevelOp,     EvtRtxMutexNo, 0x07U)
 154:/usr/local/lib/ARM/CMSIS/5.4.0/CMSIS/RTOS2/RTX/Source/rtx_evr.c **** #define EvtRtxMutexAcquireTimeout           EventID(EventLevelOp,     EvtRtxMutexNo, 0x08U)
 155:/usr/local/lib/ARM/CMSIS/5.4.0/CMSIS/RTOS2/RTX/Source/rtx_evr.c **** #define EvtRtxMutexAcquired                 EventID(EventLevelOp,     EvtRtxMutexNo, 0x09U)
 156:/usr/local/lib/ARM/CMSIS/5.4.0/CMSIS/RTOS2/RTX/Source/rtx_evr.c **** #define EvtRtxMutexNotAcquired              EventID(EventLevelOp,     EvtRtxMutexNo, 0x0AU)
 157:/usr/local/lib/ARM/CMSIS/5.4.0/CMSIS/RTOS2/RTX/Source/rtx_evr.c **** #define EvtRtxMutexRelease                  EventID(EventLevelAPI,    EvtRtxMutexNo, 0x0BU)
 158:/usr/local/lib/ARM/CMSIS/5.4.0/CMSIS/RTOS2/RTX/Source/rtx_evr.c **** #define EvtRtxMutexReleased                 EventID(EventLevelOp,     EvtRtxMutexNo, 0x0CU)
 159:/usr/local/lib/ARM/CMSIS/5.4.0/CMSIS/RTOS2/RTX/Source/rtx_evr.c **** #define EvtRtxMutexGetOwner                 EventID(EventLevelAPI,    EvtRtxMutexNo, 0x0DU)
 160:/usr/local/lib/ARM/CMSIS/5.4.0/CMSIS/RTOS2/RTX/Source/rtx_evr.c **** #define EvtRtxMutexDelete                   EventID(EventLevelAPI,    EvtRtxMutexNo, 0x0EU)
 161:/usr/local/lib/ARM/CMSIS/5.4.0/CMSIS/RTOS2/RTX/Source/rtx_evr.c **** #define EvtRtxMutexDestroyed                EventID(EventLevelOp,     EvtRtxMutexNo, 0x0FU)
 162:/usr/local/lib/ARM/CMSIS/5.4.0/CMSIS/RTOS2/RTX/Source/rtx_evr.c **** 
 163:/usr/local/lib/ARM/CMSIS/5.4.0/CMSIS/RTOS2/RTX/Source/rtx_evr.c **** /// Event IDs for "RTX Semaphore"
 164:/usr/local/lib/ARM/CMSIS/5.4.0/CMSIS/RTOS2/RTX/Source/rtx_evr.c **** #define EvtRtxSemaphoreError                EventID(EventLevelError,  EvtRtxSemaphoreNo, 0x00U)
 165:/usr/local/lib/ARM/CMSIS/5.4.0/CMSIS/RTOS2/RTX/Source/rtx_evr.c **** #define EvtRtxSemaphoreNew                  EventID(EventLevelAPI,    EvtRtxSemaphoreNo, 0x01U)
 166:/usr/local/lib/ARM/CMSIS/5.4.0/CMSIS/RTOS2/RTX/Source/rtx_evr.c **** #define EvtRtxSemaphoreNew_Detail           EventID(EventLevelDetail, EvtRtxSemaphoreNo, 0x02U)
 167:/usr/local/lib/ARM/CMSIS/5.4.0/CMSIS/RTOS2/RTX/Source/rtx_evr.c **** #define EvtRtxSemaphoreCreated              EventID(EventLevelOp,     EvtRtxSemaphoreNo, 0x03U)
 168:/usr/local/lib/ARM/CMSIS/5.4.0/CMSIS/RTOS2/RTX/Source/rtx_evr.c **** #define EvtRtxSemaphoreGetName              EventID(EventLevelAPI,    EvtRtxSemaphoreNo, 0x04U)
 169:/usr/local/lib/ARM/CMSIS/5.4.0/CMSIS/RTOS2/RTX/Source/rtx_evr.c **** #define EvtRtxSemaphoreAcquire              EventID(EventLevelAPI,    EvtRtxSemaphoreNo, 0x06U)
 170:/usr/local/lib/ARM/CMSIS/5.4.0/CMSIS/RTOS2/RTX/Source/rtx_evr.c **** #define EvtRtxSemaphoreAcquirePending       EventID(EventLevelOp,     EvtRtxSemaphoreNo, 0x07U)
 171:/usr/local/lib/ARM/CMSIS/5.4.0/CMSIS/RTOS2/RTX/Source/rtx_evr.c **** #define EvtRtxSemaphoreAcquireTimeout       EventID(EventLevelOp,     EvtRtxSemaphoreNo, 0x08U)
 172:/usr/local/lib/ARM/CMSIS/5.4.0/CMSIS/RTOS2/RTX/Source/rtx_evr.c **** #define EvtRtxSemaphoreAcquired             EventID(EventLevelOp,     EvtRtxSemaphoreNo, 0x09U)
 173:/usr/local/lib/ARM/CMSIS/5.4.0/CMSIS/RTOS2/RTX/Source/rtx_evr.c **** #define EvtRtxSemaphoreNotAcquired          EventID(EventLevelOp,     EvtRtxSemaphoreNo, 0x0AU)
 174:/usr/local/lib/ARM/CMSIS/5.4.0/CMSIS/RTOS2/RTX/Source/rtx_evr.c **** #define EvtRtxSemaphoreRelease              EventID(EventLevelAPI,    EvtRtxSemaphoreNo, 0x0BU)
 175:/usr/local/lib/ARM/CMSIS/5.4.0/CMSIS/RTOS2/RTX/Source/rtx_evr.c **** #define EvtRtxSemaphoreReleased             EventID(EventLevelOp,     EvtRtxSemaphoreNo, 0x0CU)
 176:/usr/local/lib/ARM/CMSIS/5.4.0/CMSIS/RTOS2/RTX/Source/rtx_evr.c **** #define EvtRtxSemaphoreGetCount             EventID(EventLevelAPI,    EvtRtxSemaphoreNo, 0x0DU)
 177:/usr/local/lib/ARM/CMSIS/5.4.0/CMSIS/RTOS2/RTX/Source/rtx_evr.c **** #define EvtRtxSemaphoreDelete               EventID(EventLevelAPI,    EvtRtxSemaphoreNo, 0x0EU)
 178:/usr/local/lib/ARM/CMSIS/5.4.0/CMSIS/RTOS2/RTX/Source/rtx_evr.c **** #define EvtRtxSemaphoreDestroyed            EventID(EventLevelOp,     EvtRtxSemaphoreNo, 0x0FU)
 179:/usr/local/lib/ARM/CMSIS/5.4.0/CMSIS/RTOS2/RTX/Source/rtx_evr.c **** 
 180:/usr/local/lib/ARM/CMSIS/5.4.0/CMSIS/RTOS2/RTX/Source/rtx_evr.c **** /// Event IDs for "RTX Memory Pool"
 181:/usr/local/lib/ARM/CMSIS/5.4.0/CMSIS/RTOS2/RTX/Source/rtx_evr.c **** #define EvtRtxMemoryPoolError               EventID(EventLevelError,  EvtRtxMemoryPoolNo, 0x00U)
 182:/usr/local/lib/ARM/CMSIS/5.4.0/CMSIS/RTOS2/RTX/Source/rtx_evr.c **** #define EvtRtxMemoryPoolNew                 EventID(EventLevelAPI,    EvtRtxMemoryPoolNo, 0x01U)
 183:/usr/local/lib/ARM/CMSIS/5.4.0/CMSIS/RTOS2/RTX/Source/rtx_evr.c **** #define EvtRtxMemoryPoolNew_Detail          EventID(EventLevelDetail, EvtRtxMemoryPoolNo, 0x02U)
 184:/usr/local/lib/ARM/CMSIS/5.4.0/CMSIS/RTOS2/RTX/Source/rtx_evr.c **** #define EvtRtxMemoryPoolCreated             EventID(EventLevelOp,     EvtRtxMemoryPoolNo, 0x03U)
 185:/usr/local/lib/ARM/CMSIS/5.4.0/CMSIS/RTOS2/RTX/Source/rtx_evr.c **** #define EvtRtxMemoryPoolGetName             EventID(EventLevelAPI,    EvtRtxMemoryPoolNo, 0x04U)
 186:/usr/local/lib/ARM/CMSIS/5.4.0/CMSIS/RTOS2/RTX/Source/rtx_evr.c **** #define EvtRtxMemoryPoolAlloc               EventID(EventLevelAPI,    EvtRtxMemoryPoolNo, 0x06U)
 187:/usr/local/lib/ARM/CMSIS/5.4.0/CMSIS/RTOS2/RTX/Source/rtx_evr.c **** #define EvtRtxMemoryPoolAllocPending        EventID(EventLevelOp,     EvtRtxMemoryPoolNo, 0x07U)
 188:/usr/local/lib/ARM/CMSIS/5.4.0/CMSIS/RTOS2/RTX/Source/rtx_evr.c **** #define EvtRtxMemoryPoolAllocTimeout        EventID(EventLevelOp,     EvtRtxMemoryPoolNo, 0x08U)
 189:/usr/local/lib/ARM/CMSIS/5.4.0/CMSIS/RTOS2/RTX/Source/rtx_evr.c **** #define EvtRtxMemoryPoolAllocated           EventID(EventLevelOp,     EvtRtxMemoryPoolNo, 0x09U)
 190:/usr/local/lib/ARM/CMSIS/5.4.0/CMSIS/RTOS2/RTX/Source/rtx_evr.c **** #define EvtRtxMemoryPoolAllocFailed         EventID(EventLevelOp,     EvtRtxMemoryPoolNo, 0x0AU)
 191:/usr/local/lib/ARM/CMSIS/5.4.0/CMSIS/RTOS2/RTX/Source/rtx_evr.c **** #define EvtRtxMemoryPoolFree                EventID(EventLevelAPI,    EvtRtxMemoryPoolNo, 0x0BU)
 192:/usr/local/lib/ARM/CMSIS/5.4.0/CMSIS/RTOS2/RTX/Source/rtx_evr.c **** #define EvtRtxMemoryPoolDeallocated         EventID(EventLevelOp,     EvtRtxMemoryPoolNo, 0x0CU)
 193:/usr/local/lib/ARM/CMSIS/5.4.0/CMSIS/RTOS2/RTX/Source/rtx_evr.c **** #define EvtRtxMemoryPoolFreeFailed          EventID(EventLevelOp,     EvtRtxMemoryPoolNo, 0x0DU)
 194:/usr/local/lib/ARM/CMSIS/5.4.0/CMSIS/RTOS2/RTX/Source/rtx_evr.c **** #define EvtRtxMemoryPoolGetCapacity         EventID(EventLevelAPI,    EvtRtxMemoryPoolNo, 0x0EU)
 195:/usr/local/lib/ARM/CMSIS/5.4.0/CMSIS/RTOS2/RTX/Source/rtx_evr.c **** #define EvtRtxMemoryPoolGetBlockSize        EventID(EventLevelAPI,    EvtRtxMemoryPoolNo, 0x0FU)
 196:/usr/local/lib/ARM/CMSIS/5.4.0/CMSIS/RTOS2/RTX/Source/rtx_evr.c **** #define EvtRtxMemoryPoolGetCount            EventID(EventLevelAPI,    EvtRtxMemoryPoolNo, 0x10U)
 197:/usr/local/lib/ARM/CMSIS/5.4.0/CMSIS/RTOS2/RTX/Source/rtx_evr.c **** #define EvtRtxMemoryPoolGetSpace            EventID(EventLevelAPI,    EvtRtxMemoryPoolNo, 0x11U)
 198:/usr/local/lib/ARM/CMSIS/5.4.0/CMSIS/RTOS2/RTX/Source/rtx_evr.c **** #define EvtRtxMemoryPoolDelete              EventID(EventLevelAPI,    EvtRtxMemoryPoolNo, 0x12U)
 199:/usr/local/lib/ARM/CMSIS/5.4.0/CMSIS/RTOS2/RTX/Source/rtx_evr.c **** #define EvtRtxMemoryPoolDestroyed           EventID(EventLevelOp,     EvtRtxMemoryPoolNo, 0x13U)
 200:/usr/local/lib/ARM/CMSIS/5.4.0/CMSIS/RTOS2/RTX/Source/rtx_evr.c **** 
ARM GAS  /tmp/ccrysPfs.s 			page 5


 201:/usr/local/lib/ARM/CMSIS/5.4.0/CMSIS/RTOS2/RTX/Source/rtx_evr.c **** /// Event IDs for "RTX Message Queue"
 202:/usr/local/lib/ARM/CMSIS/5.4.0/CMSIS/RTOS2/RTX/Source/rtx_evr.c **** #define EvtRtxMessageQueueError             EventID(EventLevelError,  EvtRtxMessageQueueNo, 0x00U)
 203:/usr/local/lib/ARM/CMSIS/5.4.0/CMSIS/RTOS2/RTX/Source/rtx_evr.c **** #define EvtRtxMessageQueueNew               EventID(EventLevelAPI,    EvtRtxMessageQueueNo, 0x01U)
 204:/usr/local/lib/ARM/CMSIS/5.4.0/CMSIS/RTOS2/RTX/Source/rtx_evr.c **** #define EvtRtxMessageQueueNew_Detail        EventID(EventLevelDetail, EvtRtxMessageQueueNo, 0x02U)
 205:/usr/local/lib/ARM/CMSIS/5.4.0/CMSIS/RTOS2/RTX/Source/rtx_evr.c **** #define EvtRtxMessageQueueCreated           EventID(EventLevelOp,     EvtRtxMessageQueueNo, 0x03U)
 206:/usr/local/lib/ARM/CMSIS/5.4.0/CMSIS/RTOS2/RTX/Source/rtx_evr.c **** #define EvtRtxMessageQueueGetName           EventID(EventLevelAPI,    EvtRtxMessageQueueNo, 0x04U)
 207:/usr/local/lib/ARM/CMSIS/5.4.0/CMSIS/RTOS2/RTX/Source/rtx_evr.c **** #define EvtRtxMessageQueuePut               EventID(EventLevelAPI,    EvtRtxMessageQueueNo, 0x06U)
 208:/usr/local/lib/ARM/CMSIS/5.4.0/CMSIS/RTOS2/RTX/Source/rtx_evr.c **** #define EvtRtxMessageQueuePutPending        EventID(EventLevelOp,     EvtRtxMessageQueueNo, 0x07U)
 209:/usr/local/lib/ARM/CMSIS/5.4.0/CMSIS/RTOS2/RTX/Source/rtx_evr.c **** #define EvtRtxMessageQueuePutTimeout        EventID(EventLevelOp,     EvtRtxMessageQueueNo, 0x08U)
 210:/usr/local/lib/ARM/CMSIS/5.4.0/CMSIS/RTOS2/RTX/Source/rtx_evr.c **** #define EvtRtxMessageQueueInsertPending     EventID(EventLevelOp,     EvtRtxMessageQueueNo, 0x09U)
 211:/usr/local/lib/ARM/CMSIS/5.4.0/CMSIS/RTOS2/RTX/Source/rtx_evr.c **** #define EvtRtxMessageQueueInserted          EventID(EventLevelOp,     EvtRtxMessageQueueNo, 0x0AU)
 212:/usr/local/lib/ARM/CMSIS/5.4.0/CMSIS/RTOS2/RTX/Source/rtx_evr.c **** #define EvtRtxMessageQueueNotInserted       EventID(EventLevelOp,     EvtRtxMessageQueueNo, 0x0BU)
 213:/usr/local/lib/ARM/CMSIS/5.4.0/CMSIS/RTOS2/RTX/Source/rtx_evr.c **** #define EvtRtxMessageQueueGet               EventID(EventLevelAPI,    EvtRtxMessageQueueNo, 0x0CU)
 214:/usr/local/lib/ARM/CMSIS/5.4.0/CMSIS/RTOS2/RTX/Source/rtx_evr.c **** #define EvtRtxMessageQueueGetPending        EventID(EventLevelOp,     EvtRtxMessageQueueNo, 0x0DU)
 215:/usr/local/lib/ARM/CMSIS/5.4.0/CMSIS/RTOS2/RTX/Source/rtx_evr.c **** #define EvtRtxMessageQueueGetTimeout        EventID(EventLevelOp,     EvtRtxMessageQueueNo, 0x0EU)
 216:/usr/local/lib/ARM/CMSIS/5.4.0/CMSIS/RTOS2/RTX/Source/rtx_evr.c **** #define EvtRtxMessageQueueRetrieved         EventID(EventLevelOp,     EvtRtxMessageQueueNo, 0x0FU)
 217:/usr/local/lib/ARM/CMSIS/5.4.0/CMSIS/RTOS2/RTX/Source/rtx_evr.c **** #define EvtRtxMessageQueueNotRetrieved      EventID(EventLevelOp,     EvtRtxMessageQueueNo, 0x10U)
 218:/usr/local/lib/ARM/CMSIS/5.4.0/CMSIS/RTOS2/RTX/Source/rtx_evr.c **** #define EvtRtxMessageQueueGetCapacity       EventID(EventLevelAPI,    EvtRtxMessageQueueNo, 0x11U)
 219:/usr/local/lib/ARM/CMSIS/5.4.0/CMSIS/RTOS2/RTX/Source/rtx_evr.c **** #define EvtRtxMessageQueueGetMsgSize        EventID(EventLevelAPI,    EvtRtxMessageQueueNo, 0x12U)
 220:/usr/local/lib/ARM/CMSIS/5.4.0/CMSIS/RTOS2/RTX/Source/rtx_evr.c **** #define EvtRtxMessageQueueGetCount          EventID(EventLevelAPI,    EvtRtxMessageQueueNo, 0x13U)
 221:/usr/local/lib/ARM/CMSIS/5.4.0/CMSIS/RTOS2/RTX/Source/rtx_evr.c **** #define EvtRtxMessageQueueGetSpace          EventID(EventLevelAPI,    EvtRtxMessageQueueNo, 0x14U)
 222:/usr/local/lib/ARM/CMSIS/5.4.0/CMSIS/RTOS2/RTX/Source/rtx_evr.c **** #define EvtRtxMessageQueueReset             EventID(EventLevelAPI,    EvtRtxMessageQueueNo, 0x15U)
 223:/usr/local/lib/ARM/CMSIS/5.4.0/CMSIS/RTOS2/RTX/Source/rtx_evr.c **** #define EvtRtxMessageQueueResetDone         EventID(EventLevelOp,     EvtRtxMessageQueueNo, 0x16U)
 224:/usr/local/lib/ARM/CMSIS/5.4.0/CMSIS/RTOS2/RTX/Source/rtx_evr.c **** #define EvtRtxMessageQueueDelete            EventID(EventLevelAPI,    EvtRtxMessageQueueNo, 0x17U)
 225:/usr/local/lib/ARM/CMSIS/5.4.0/CMSIS/RTOS2/RTX/Source/rtx_evr.c **** #define EvtRtxMessageQueueDestroyed         EventID(EventLevelOp,     EvtRtxMessageQueueNo, 0x18U)
 226:/usr/local/lib/ARM/CMSIS/5.4.0/CMSIS/RTOS2/RTX/Source/rtx_evr.c **** 
 227:/usr/local/lib/ARM/CMSIS/5.4.0/CMSIS/RTOS2/RTX/Source/rtx_evr.c **** #endif  // RTE_Compiler_EventRecorder
 228:/usr/local/lib/ARM/CMSIS/5.4.0/CMSIS/RTOS2/RTX/Source/rtx_evr.c **** 
 229:/usr/local/lib/ARM/CMSIS/5.4.0/CMSIS/RTOS2/RTX/Source/rtx_evr.c **** //lint -esym(522, EvrRtx*) "Functions 'EvrRtx*' can be overridden (do not lack side-effects)"
 230:/usr/local/lib/ARM/CMSIS/5.4.0/CMSIS/RTOS2/RTX/Source/rtx_evr.c **** 
 231:/usr/local/lib/ARM/CMSIS/5.4.0/CMSIS/RTOS2/RTX/Source/rtx_evr.c **** 
 232:/usr/local/lib/ARM/CMSIS/5.4.0/CMSIS/RTOS2/RTX/Source/rtx_evr.c **** //  ==== Memory Events ====
 233:/usr/local/lib/ARM/CMSIS/5.4.0/CMSIS/RTOS2/RTX/Source/rtx_evr.c **** 
 234:/usr/local/lib/ARM/CMSIS/5.4.0/CMSIS/RTOS2/RTX/Source/rtx_evr.c **** #if (!defined(EVR_RTX_DISABLE) && (OS_EVR_MEMORY != 0) && !defined(EVR_RTX_MEMORY_INIT_DISABLE))
 235:/usr/local/lib/ARM/CMSIS/5.4.0/CMSIS/RTOS2/RTX/Source/rtx_evr.c **** __WEAK void EvrRtxMemoryInit (void *mem, uint32_t size, uint32_t result) {
  30              		.loc 1 235 0
  31              		.cfi_startproc
  32              		@ args = 0, pretend = 0, frame = 0
  33              		@ frame_needed = 0, uses_anonymous_args = 0
  34              		@ link register save eliminated.
  35              	.LVL0:
  36 0000 7047     		bx	lr
  37              		.cfi_endproc
  38              	.LFE102:
  40 0002 00BF     		.section	.text.EvrRtxMemoryAlloc,"ax",%progbits
  41              		.align	2
  42              		.weak	EvrRtxMemoryAlloc
  43              		.thumb
  44              		.thumb_func
  46              	EvrRtxMemoryAlloc:
  47              	.LFB103:
 236:/usr/local/lib/ARM/CMSIS/5.4.0/CMSIS/RTOS2/RTX/Source/rtx_evr.c **** #if defined(RTE_Compiler_EventRecorder)
 237:/usr/local/lib/ARM/CMSIS/5.4.0/CMSIS/RTOS2/RTX/Source/rtx_evr.c ****   (void)EventRecord4(EvtRtxMemoryInit, (uint32_t)mem, size, result, 0U);
 238:/usr/local/lib/ARM/CMSIS/5.4.0/CMSIS/RTOS2/RTX/Source/rtx_evr.c **** #else
 239:/usr/local/lib/ARM/CMSIS/5.4.0/CMSIS/RTOS2/RTX/Source/rtx_evr.c ****   (void)mem;
 240:/usr/local/lib/ARM/CMSIS/5.4.0/CMSIS/RTOS2/RTX/Source/rtx_evr.c ****   (void)size;
 241:/usr/local/lib/ARM/CMSIS/5.4.0/CMSIS/RTOS2/RTX/Source/rtx_evr.c ****   (void)result;
ARM GAS  /tmp/ccrysPfs.s 			page 6


 242:/usr/local/lib/ARM/CMSIS/5.4.0/CMSIS/RTOS2/RTX/Source/rtx_evr.c **** #endif
 243:/usr/local/lib/ARM/CMSIS/5.4.0/CMSIS/RTOS2/RTX/Source/rtx_evr.c **** }
 244:/usr/local/lib/ARM/CMSIS/5.4.0/CMSIS/RTOS2/RTX/Source/rtx_evr.c **** #endif
 245:/usr/local/lib/ARM/CMSIS/5.4.0/CMSIS/RTOS2/RTX/Source/rtx_evr.c **** 
 246:/usr/local/lib/ARM/CMSIS/5.4.0/CMSIS/RTOS2/RTX/Source/rtx_evr.c **** #if (!defined(EVR_RTX_DISABLE) && (OS_EVR_MEMORY != 0) && !defined(EVR_RTX_MEMORY_ALLOC_DISABLE))
 247:/usr/local/lib/ARM/CMSIS/5.4.0/CMSIS/RTOS2/RTX/Source/rtx_evr.c **** __WEAK void EvrRtxMemoryAlloc (void *mem, uint32_t size, uint32_t type, void *block) {
  48              		.loc 1 247 0
  49              		.cfi_startproc
  50              		@ args = 0, pretend = 0, frame = 0
  51              		@ frame_needed = 0, uses_anonymous_args = 0
  52              		@ link register save eliminated.
  53              	.LVL1:
  54 0000 7047     		bx	lr
  55              		.cfi_endproc
  56              	.LFE103:
  58 0002 00BF     		.section	.text.EvrRtxMemoryFree,"ax",%progbits
  59              		.align	2
  60              		.weak	EvrRtxMemoryFree
  61              		.thumb
  62              		.thumb_func
  64              	EvrRtxMemoryFree:
  65              	.LFB104:
 248:/usr/local/lib/ARM/CMSIS/5.4.0/CMSIS/RTOS2/RTX/Source/rtx_evr.c **** #if defined(RTE_Compiler_EventRecorder)
 249:/usr/local/lib/ARM/CMSIS/5.4.0/CMSIS/RTOS2/RTX/Source/rtx_evr.c ****   (void)EventRecord4(EvtRtxMemoryAlloc, (uint32_t)mem, size, type, (uint32_t)block);
 250:/usr/local/lib/ARM/CMSIS/5.4.0/CMSIS/RTOS2/RTX/Source/rtx_evr.c **** #else
 251:/usr/local/lib/ARM/CMSIS/5.4.0/CMSIS/RTOS2/RTX/Source/rtx_evr.c ****   (void)mem;
 252:/usr/local/lib/ARM/CMSIS/5.4.0/CMSIS/RTOS2/RTX/Source/rtx_evr.c ****   (void)size;
 253:/usr/local/lib/ARM/CMSIS/5.4.0/CMSIS/RTOS2/RTX/Source/rtx_evr.c ****   (void)type;
 254:/usr/local/lib/ARM/CMSIS/5.4.0/CMSIS/RTOS2/RTX/Source/rtx_evr.c ****   (void)block;
 255:/usr/local/lib/ARM/CMSIS/5.4.0/CMSIS/RTOS2/RTX/Source/rtx_evr.c **** #endif
 256:/usr/local/lib/ARM/CMSIS/5.4.0/CMSIS/RTOS2/RTX/Source/rtx_evr.c **** }
 257:/usr/local/lib/ARM/CMSIS/5.4.0/CMSIS/RTOS2/RTX/Source/rtx_evr.c **** #endif
 258:/usr/local/lib/ARM/CMSIS/5.4.0/CMSIS/RTOS2/RTX/Source/rtx_evr.c **** 
 259:/usr/local/lib/ARM/CMSIS/5.4.0/CMSIS/RTOS2/RTX/Source/rtx_evr.c **** #if (!defined(EVR_RTX_DISABLE) && (OS_EVR_MEMORY != 0) && !defined(EVR_RTX_MEMORY_FREE_DISABLE))
 260:/usr/local/lib/ARM/CMSIS/5.4.0/CMSIS/RTOS2/RTX/Source/rtx_evr.c **** __WEAK void EvrRtxMemoryFree (void *mem, void *block, uint32_t result) {
  66              		.loc 1 260 0
  67              		.cfi_startproc
  68              		@ args = 0, pretend = 0, frame = 0
  69              		@ frame_needed = 0, uses_anonymous_args = 0
  70              		@ link register save eliminated.
  71              	.LVL2:
  72 0000 7047     		bx	lr
  73              		.cfi_endproc
  74              	.LFE104:
  76 0002 00BF     		.section	.text.EvrRtxMemoryBlockInit,"ax",%progbits
  77              		.align	2
  78              		.weak	EvrRtxMemoryBlockInit
  79              		.thumb
  80              		.thumb_func
  82              	EvrRtxMemoryBlockInit:
  83              	.LFB105:
 261:/usr/local/lib/ARM/CMSIS/5.4.0/CMSIS/RTOS2/RTX/Source/rtx_evr.c **** #if defined(RTE_Compiler_EventRecorder)
 262:/usr/local/lib/ARM/CMSIS/5.4.0/CMSIS/RTOS2/RTX/Source/rtx_evr.c ****   (void)EventRecord4(EvtRtxMemoryFree, (uint32_t)mem, (uint32_t)block, result, 0U);
 263:/usr/local/lib/ARM/CMSIS/5.4.0/CMSIS/RTOS2/RTX/Source/rtx_evr.c **** #else
 264:/usr/local/lib/ARM/CMSIS/5.4.0/CMSIS/RTOS2/RTX/Source/rtx_evr.c ****   (void)mem;
 265:/usr/local/lib/ARM/CMSIS/5.4.0/CMSIS/RTOS2/RTX/Source/rtx_evr.c ****   (void)block;
 266:/usr/local/lib/ARM/CMSIS/5.4.0/CMSIS/RTOS2/RTX/Source/rtx_evr.c ****   (void)result;
ARM GAS  /tmp/ccrysPfs.s 			page 7


 267:/usr/local/lib/ARM/CMSIS/5.4.0/CMSIS/RTOS2/RTX/Source/rtx_evr.c **** #endif
 268:/usr/local/lib/ARM/CMSIS/5.4.0/CMSIS/RTOS2/RTX/Source/rtx_evr.c **** }
 269:/usr/local/lib/ARM/CMSIS/5.4.0/CMSIS/RTOS2/RTX/Source/rtx_evr.c **** #endif
 270:/usr/local/lib/ARM/CMSIS/5.4.0/CMSIS/RTOS2/RTX/Source/rtx_evr.c **** 
 271:/usr/local/lib/ARM/CMSIS/5.4.0/CMSIS/RTOS2/RTX/Source/rtx_evr.c **** #if (!defined(EVR_RTX_DISABLE) && (OS_EVR_MEMORY != 0) && !defined(EVR_RTX_MEMORY_BLOCK_INIT_DISABL
 272:/usr/local/lib/ARM/CMSIS/5.4.0/CMSIS/RTOS2/RTX/Source/rtx_evr.c **** __WEAK void EvrRtxMemoryBlockInit (osRtxMpInfo_t *mp_info, uint32_t block_count, uint32_t block_siz
  84              		.loc 1 272 0
  85              		.cfi_startproc
  86              		@ args = 0, pretend = 0, frame = 0
  87              		@ frame_needed = 0, uses_anonymous_args = 0
  88              		@ link register save eliminated.
  89              	.LVL3:
  90 0000 7047     		bx	lr
  91              		.cfi_endproc
  92              	.LFE105:
  94 0002 00BF     		.section	.text.EvrRtxMemoryBlockAlloc,"ax",%progbits
  95              		.align	2
  96              		.weak	EvrRtxMemoryBlockAlloc
  97              		.thumb
  98              		.thumb_func
 100              	EvrRtxMemoryBlockAlloc:
 101              	.LFB106:
 273:/usr/local/lib/ARM/CMSIS/5.4.0/CMSIS/RTOS2/RTX/Source/rtx_evr.c **** #if defined(RTE_Compiler_EventRecorder)
 274:/usr/local/lib/ARM/CMSIS/5.4.0/CMSIS/RTOS2/RTX/Source/rtx_evr.c ****   (void)EventRecord4(EvtRtxMemoryBlockInit, (uint32_t)mp_info, block_count, block_size, (uint32_t)b
 275:/usr/local/lib/ARM/CMSIS/5.4.0/CMSIS/RTOS2/RTX/Source/rtx_evr.c **** #else
 276:/usr/local/lib/ARM/CMSIS/5.4.0/CMSIS/RTOS2/RTX/Source/rtx_evr.c ****   (void)mp_info;
 277:/usr/local/lib/ARM/CMSIS/5.4.0/CMSIS/RTOS2/RTX/Source/rtx_evr.c ****   (void)block_count;
 278:/usr/local/lib/ARM/CMSIS/5.4.0/CMSIS/RTOS2/RTX/Source/rtx_evr.c ****   (void)block_size;
 279:/usr/local/lib/ARM/CMSIS/5.4.0/CMSIS/RTOS2/RTX/Source/rtx_evr.c ****   (void)block_mem;
 280:/usr/local/lib/ARM/CMSIS/5.4.0/CMSIS/RTOS2/RTX/Source/rtx_evr.c **** #endif
 281:/usr/local/lib/ARM/CMSIS/5.4.0/CMSIS/RTOS2/RTX/Source/rtx_evr.c **** }
 282:/usr/local/lib/ARM/CMSIS/5.4.0/CMSIS/RTOS2/RTX/Source/rtx_evr.c **** #endif
 283:/usr/local/lib/ARM/CMSIS/5.4.0/CMSIS/RTOS2/RTX/Source/rtx_evr.c **** 
 284:/usr/local/lib/ARM/CMSIS/5.4.0/CMSIS/RTOS2/RTX/Source/rtx_evr.c **** #if (!defined(EVR_RTX_DISABLE) && (OS_EVR_MEMORY != 0) && !defined(EVR_RTX_MEMORY_BLOCK_ALLOC_DISAB
 285:/usr/local/lib/ARM/CMSIS/5.4.0/CMSIS/RTOS2/RTX/Source/rtx_evr.c **** __WEAK void EvrRtxMemoryBlockAlloc (osRtxMpInfo_t *mp_info, void *block) {
 102              		.loc 1 285 0
 103              		.cfi_startproc
 104              		@ args = 0, pretend = 0, frame = 0
 105              		@ frame_needed = 0, uses_anonymous_args = 0
 106              		@ link register save eliminated.
 107              	.LVL4:
 108 0000 7047     		bx	lr
 109              		.cfi_endproc
 110              	.LFE106:
 112 0002 00BF     		.section	.text.EvrRtxMemoryBlockFree,"ax",%progbits
 113              		.align	2
 114              		.weak	EvrRtxMemoryBlockFree
 115              		.thumb
 116              		.thumb_func
 118              	EvrRtxMemoryBlockFree:
 119              	.LFB107:
 286:/usr/local/lib/ARM/CMSIS/5.4.0/CMSIS/RTOS2/RTX/Source/rtx_evr.c **** #if defined(RTE_Compiler_EventRecorder)
 287:/usr/local/lib/ARM/CMSIS/5.4.0/CMSIS/RTOS2/RTX/Source/rtx_evr.c ****   (void)EventRecord2(EvtRtxMemoryBlockAlloc, (uint32_t)mp_info, (uint32_t)block);
 288:/usr/local/lib/ARM/CMSIS/5.4.0/CMSIS/RTOS2/RTX/Source/rtx_evr.c **** #else
 289:/usr/local/lib/ARM/CMSIS/5.4.0/CMSIS/RTOS2/RTX/Source/rtx_evr.c ****   (void)mp_info;
 290:/usr/local/lib/ARM/CMSIS/5.4.0/CMSIS/RTOS2/RTX/Source/rtx_evr.c ****   (void)block;
 291:/usr/local/lib/ARM/CMSIS/5.4.0/CMSIS/RTOS2/RTX/Source/rtx_evr.c **** #endif
ARM GAS  /tmp/ccrysPfs.s 			page 8


 292:/usr/local/lib/ARM/CMSIS/5.4.0/CMSIS/RTOS2/RTX/Source/rtx_evr.c **** }
 293:/usr/local/lib/ARM/CMSIS/5.4.0/CMSIS/RTOS2/RTX/Source/rtx_evr.c **** #endif
 294:/usr/local/lib/ARM/CMSIS/5.4.0/CMSIS/RTOS2/RTX/Source/rtx_evr.c **** 
 295:/usr/local/lib/ARM/CMSIS/5.4.0/CMSIS/RTOS2/RTX/Source/rtx_evr.c **** #if (!defined(EVR_RTX_DISABLE) && (OS_EVR_MEMORY != 0) && !defined(EVR_RTX_MEMORY_BLOCK_FREE_DISABL
 296:/usr/local/lib/ARM/CMSIS/5.4.0/CMSIS/RTOS2/RTX/Source/rtx_evr.c **** __WEAK void EvrRtxMemoryBlockFree (osRtxMpInfo_t *mp_info, void *block, int32_t status) {
 120              		.loc 1 296 0
 121              		.cfi_startproc
 122              		@ args = 0, pretend = 0, frame = 0
 123              		@ frame_needed = 0, uses_anonymous_args = 0
 124              		@ link register save eliminated.
 125              	.LVL5:
 126 0000 7047     		bx	lr
 127              		.cfi_endproc
 128              	.LFE107:
 130 0002 00BF     		.section	.text.EvrRtxKernelError,"ax",%progbits
 131              		.align	2
 132              		.weak	EvrRtxKernelError
 133              		.thumb
 134              		.thumb_func
 136              	EvrRtxKernelError:
 137              	.LFB108:
 297:/usr/local/lib/ARM/CMSIS/5.4.0/CMSIS/RTOS2/RTX/Source/rtx_evr.c **** #if defined(RTE_Compiler_EventRecorder)
 298:/usr/local/lib/ARM/CMSIS/5.4.0/CMSIS/RTOS2/RTX/Source/rtx_evr.c ****   (void)EventRecord4(EvtRtxMemoryBlockFree, (uint32_t)mp_info, (uint32_t)block, (uint32_t)status, 0
 299:/usr/local/lib/ARM/CMSIS/5.4.0/CMSIS/RTOS2/RTX/Source/rtx_evr.c **** #else
 300:/usr/local/lib/ARM/CMSIS/5.4.0/CMSIS/RTOS2/RTX/Source/rtx_evr.c ****   (void)mp_info;
 301:/usr/local/lib/ARM/CMSIS/5.4.0/CMSIS/RTOS2/RTX/Source/rtx_evr.c ****   (void)block;
 302:/usr/local/lib/ARM/CMSIS/5.4.0/CMSIS/RTOS2/RTX/Source/rtx_evr.c ****   (void)status;
 303:/usr/local/lib/ARM/CMSIS/5.4.0/CMSIS/RTOS2/RTX/Source/rtx_evr.c **** #endif
 304:/usr/local/lib/ARM/CMSIS/5.4.0/CMSIS/RTOS2/RTX/Source/rtx_evr.c **** }
 305:/usr/local/lib/ARM/CMSIS/5.4.0/CMSIS/RTOS2/RTX/Source/rtx_evr.c **** #endif
 306:/usr/local/lib/ARM/CMSIS/5.4.0/CMSIS/RTOS2/RTX/Source/rtx_evr.c **** 
 307:/usr/local/lib/ARM/CMSIS/5.4.0/CMSIS/RTOS2/RTX/Source/rtx_evr.c **** 
 308:/usr/local/lib/ARM/CMSIS/5.4.0/CMSIS/RTOS2/RTX/Source/rtx_evr.c **** //  ==== Kernel Events ====
 309:/usr/local/lib/ARM/CMSIS/5.4.0/CMSIS/RTOS2/RTX/Source/rtx_evr.c **** 
 310:/usr/local/lib/ARM/CMSIS/5.4.0/CMSIS/RTOS2/RTX/Source/rtx_evr.c **** #if (!defined(EVR_RTX_DISABLE) && (OS_EVR_KERNEL != 0) && !defined(EVR_RTX_KERNEL_ERROR_DISABLE))
 311:/usr/local/lib/ARM/CMSIS/5.4.0/CMSIS/RTOS2/RTX/Source/rtx_evr.c **** __WEAK void EvrRtxKernelError (int32_t status) {
 138              		.loc 1 311 0
 139              		.cfi_startproc
 140              		@ args = 0, pretend = 0, frame = 0
 141              		@ frame_needed = 0, uses_anonymous_args = 0
 142              		@ link register save eliminated.
 143              	.LVL6:
 144 0000 7047     		bx	lr
 145              		.cfi_endproc
 146              	.LFE108:
 148 0002 00BF     		.section	.text.EvrRtxKernelInitialize,"ax",%progbits
 149              		.align	2
 150              		.weak	EvrRtxKernelInitialize
 151              		.thumb
 152              		.thumb_func
 154              	EvrRtxKernelInitialize:
 155              	.LFB109:
 312:/usr/local/lib/ARM/CMSIS/5.4.0/CMSIS/RTOS2/RTX/Source/rtx_evr.c **** #if defined(RTE_Compiler_EventRecorder)
 313:/usr/local/lib/ARM/CMSIS/5.4.0/CMSIS/RTOS2/RTX/Source/rtx_evr.c ****   (void)EventRecord2(EvtRtxKernelError, (uint32_t)status, 0U); 
 314:/usr/local/lib/ARM/CMSIS/5.4.0/CMSIS/RTOS2/RTX/Source/rtx_evr.c **** #else
 315:/usr/local/lib/ARM/CMSIS/5.4.0/CMSIS/RTOS2/RTX/Source/rtx_evr.c ****   (void)status;
 316:/usr/local/lib/ARM/CMSIS/5.4.0/CMSIS/RTOS2/RTX/Source/rtx_evr.c **** #endif
ARM GAS  /tmp/ccrysPfs.s 			page 9


 317:/usr/local/lib/ARM/CMSIS/5.4.0/CMSIS/RTOS2/RTX/Source/rtx_evr.c **** }
 318:/usr/local/lib/ARM/CMSIS/5.4.0/CMSIS/RTOS2/RTX/Source/rtx_evr.c **** #endif
 319:/usr/local/lib/ARM/CMSIS/5.4.0/CMSIS/RTOS2/RTX/Source/rtx_evr.c **** 
 320:/usr/local/lib/ARM/CMSIS/5.4.0/CMSIS/RTOS2/RTX/Source/rtx_evr.c **** #if (!defined(EVR_RTX_DISABLE) && (OS_EVR_KERNEL != 0) && !defined(EVR_RTX_KERNEL_INITIALIZE_DISABL
 321:/usr/local/lib/ARM/CMSIS/5.4.0/CMSIS/RTOS2/RTX/Source/rtx_evr.c **** __WEAK void EvrRtxKernelInitialize (void) {
 156              		.loc 1 321 0
 157              		.cfi_startproc
 158              		@ args = 0, pretend = 0, frame = 0
 159              		@ frame_needed = 0, uses_anonymous_args = 0
 160              		@ link register save eliminated.
 161 0000 7047     		bx	lr
 162              		.cfi_endproc
 163              	.LFE109:
 165 0002 00BF     		.section	.text.EvrRtxKernelInitialized,"ax",%progbits
 166              		.align	2
 167              		.weak	EvrRtxKernelInitialized
 168              		.thumb
 169              		.thumb_func
 171              	EvrRtxKernelInitialized:
 172              	.LFB110:
 322:/usr/local/lib/ARM/CMSIS/5.4.0/CMSIS/RTOS2/RTX/Source/rtx_evr.c **** #if defined(RTE_Compiler_EventRecorder)
 323:/usr/local/lib/ARM/CMSIS/5.4.0/CMSIS/RTOS2/RTX/Source/rtx_evr.c ****   (void)EventRecord2(EvtRtxKernelInitialize, 0U, 0U);
 324:/usr/local/lib/ARM/CMSIS/5.4.0/CMSIS/RTOS2/RTX/Source/rtx_evr.c **** #else
 325:/usr/local/lib/ARM/CMSIS/5.4.0/CMSIS/RTOS2/RTX/Source/rtx_evr.c **** #endif
 326:/usr/local/lib/ARM/CMSIS/5.4.0/CMSIS/RTOS2/RTX/Source/rtx_evr.c **** }
 327:/usr/local/lib/ARM/CMSIS/5.4.0/CMSIS/RTOS2/RTX/Source/rtx_evr.c **** #endif
 328:/usr/local/lib/ARM/CMSIS/5.4.0/CMSIS/RTOS2/RTX/Source/rtx_evr.c **** 
 329:/usr/local/lib/ARM/CMSIS/5.4.0/CMSIS/RTOS2/RTX/Source/rtx_evr.c **** #if (!defined(EVR_RTX_DISABLE) && (OS_EVR_KERNEL != 0) && !defined(EVR_RTX_KERNEL_INITIALIZE_COMPLE
 330:/usr/local/lib/ARM/CMSIS/5.4.0/CMSIS/RTOS2/RTX/Source/rtx_evr.c **** __WEAK void EvrRtxKernelInitialized (void) {
 173              		.loc 1 330 0
 174              		.cfi_startproc
 175              		@ args = 0, pretend = 0, frame = 0
 176              		@ frame_needed = 0, uses_anonymous_args = 0
 177              		@ link register save eliminated.
 178 0000 7047     		bx	lr
 179              		.cfi_endproc
 180              	.LFE110:
 182 0002 00BF     		.section	.text.EvrRtxKernelGetInfo,"ax",%progbits
 183              		.align	2
 184              		.weak	EvrRtxKernelGetInfo
 185              		.thumb
 186              		.thumb_func
 188              	EvrRtxKernelGetInfo:
 189              	.LFB111:
 331:/usr/local/lib/ARM/CMSIS/5.4.0/CMSIS/RTOS2/RTX/Source/rtx_evr.c **** #if defined(RTE_Compiler_EventRecorder)
 332:/usr/local/lib/ARM/CMSIS/5.4.0/CMSIS/RTOS2/RTX/Source/rtx_evr.c ****   (void)EventRecord2(EvtRtxKernelInitialized, 0U, 0U);
 333:/usr/local/lib/ARM/CMSIS/5.4.0/CMSIS/RTOS2/RTX/Source/rtx_evr.c **** #else
 334:/usr/local/lib/ARM/CMSIS/5.4.0/CMSIS/RTOS2/RTX/Source/rtx_evr.c **** #endif
 335:/usr/local/lib/ARM/CMSIS/5.4.0/CMSIS/RTOS2/RTX/Source/rtx_evr.c **** }
 336:/usr/local/lib/ARM/CMSIS/5.4.0/CMSIS/RTOS2/RTX/Source/rtx_evr.c **** #endif
 337:/usr/local/lib/ARM/CMSIS/5.4.0/CMSIS/RTOS2/RTX/Source/rtx_evr.c **** 
 338:/usr/local/lib/ARM/CMSIS/5.4.0/CMSIS/RTOS2/RTX/Source/rtx_evr.c **** #if (!defined(EVR_RTX_DISABLE) && (OS_EVR_KERNEL != 0) && !defined(EVR_RTX_KERNEL_GET_INFO_DISABLE)
 339:/usr/local/lib/ARM/CMSIS/5.4.0/CMSIS/RTOS2/RTX/Source/rtx_evr.c **** __WEAK void EvrRtxKernelGetInfo (osVersion_t *version, char *id_buf, uint32_t id_size) {
 190              		.loc 1 339 0
 191              		.cfi_startproc
 192              		@ args = 0, pretend = 0, frame = 0
 193              		@ frame_needed = 0, uses_anonymous_args = 0
ARM GAS  /tmp/ccrysPfs.s 			page 10


 194              		@ link register save eliminated.
 195              	.LVL7:
 196 0000 7047     		bx	lr
 197              		.cfi_endproc
 198              	.LFE111:
 200 0002 00BF     		.section	.text.EvrRtxKernelInfoRetrieved,"ax",%progbits
 201              		.align	2
 202              		.weak	EvrRtxKernelInfoRetrieved
 203              		.thumb
 204              		.thumb_func
 206              	EvrRtxKernelInfoRetrieved:
 207              	.LFB112:
 340:/usr/local/lib/ARM/CMSIS/5.4.0/CMSIS/RTOS2/RTX/Source/rtx_evr.c **** #if defined(RTE_Compiler_EventRecorder)
 341:/usr/local/lib/ARM/CMSIS/5.4.0/CMSIS/RTOS2/RTX/Source/rtx_evr.c ****   (void)EventRecord4(EvtRtxKernelGetInfo, (uint32_t)version, (uint32_t)id_buf, id_size, 0U);
 342:/usr/local/lib/ARM/CMSIS/5.4.0/CMSIS/RTOS2/RTX/Source/rtx_evr.c **** #else
 343:/usr/local/lib/ARM/CMSIS/5.4.0/CMSIS/RTOS2/RTX/Source/rtx_evr.c ****   (void)version;
 344:/usr/local/lib/ARM/CMSIS/5.4.0/CMSIS/RTOS2/RTX/Source/rtx_evr.c ****   (void)id_buf;
 345:/usr/local/lib/ARM/CMSIS/5.4.0/CMSIS/RTOS2/RTX/Source/rtx_evr.c ****   (void)id_size;
 346:/usr/local/lib/ARM/CMSIS/5.4.0/CMSIS/RTOS2/RTX/Source/rtx_evr.c **** #endif
 347:/usr/local/lib/ARM/CMSIS/5.4.0/CMSIS/RTOS2/RTX/Source/rtx_evr.c **** }
 348:/usr/local/lib/ARM/CMSIS/5.4.0/CMSIS/RTOS2/RTX/Source/rtx_evr.c **** #endif
 349:/usr/local/lib/ARM/CMSIS/5.4.0/CMSIS/RTOS2/RTX/Source/rtx_evr.c **** 
 350:/usr/local/lib/ARM/CMSIS/5.4.0/CMSIS/RTOS2/RTX/Source/rtx_evr.c **** #if (!defined(EVR_RTX_DISABLE) && (OS_EVR_KERNEL != 0) && !defined(EVR_RTX_KERNEL_INFO_RETRIEVED_DI
 351:/usr/local/lib/ARM/CMSIS/5.4.0/CMSIS/RTOS2/RTX/Source/rtx_evr.c **** __WEAK void EvrRtxKernelInfoRetrieved (osVersion_t *version, char *id_buf) {
 208              		.loc 1 351 0
 209              		.cfi_startproc
 210              		@ args = 0, pretend = 0, frame = 0
 211              		@ frame_needed = 0, uses_anonymous_args = 0
 212              		@ link register save eliminated.
 213              	.LVL8:
 214 0000 7047     		bx	lr
 215              		.cfi_endproc
 216              	.LFE112:
 218 0002 00BF     		.section	.text.EvrRtxKernelGetState,"ax",%progbits
 219              		.align	2
 220              		.weak	EvrRtxKernelGetState
 221              		.thumb
 222              		.thumb_func
 224              	EvrRtxKernelGetState:
 225              	.LFB113:
 352:/usr/local/lib/ARM/CMSIS/5.4.0/CMSIS/RTOS2/RTX/Source/rtx_evr.c **** #if defined(RTE_Compiler_EventRecorder)
 353:/usr/local/lib/ARM/CMSIS/5.4.0/CMSIS/RTOS2/RTX/Source/rtx_evr.c ****   (void)EventRecord4(EvtRtxKernelInfoRetrieved, (uint32_t)version->api, (uint32_t)version->kernel, 
 354:/usr/local/lib/ARM/CMSIS/5.4.0/CMSIS/RTOS2/RTX/Source/rtx_evr.c **** #else
 355:/usr/local/lib/ARM/CMSIS/5.4.0/CMSIS/RTOS2/RTX/Source/rtx_evr.c ****   (void)version;
 356:/usr/local/lib/ARM/CMSIS/5.4.0/CMSIS/RTOS2/RTX/Source/rtx_evr.c ****   (void)id_buf;
 357:/usr/local/lib/ARM/CMSIS/5.4.0/CMSIS/RTOS2/RTX/Source/rtx_evr.c **** #endif
 358:/usr/local/lib/ARM/CMSIS/5.4.0/CMSIS/RTOS2/RTX/Source/rtx_evr.c **** }
 359:/usr/local/lib/ARM/CMSIS/5.4.0/CMSIS/RTOS2/RTX/Source/rtx_evr.c **** #endif
 360:/usr/local/lib/ARM/CMSIS/5.4.0/CMSIS/RTOS2/RTX/Source/rtx_evr.c **** 
 361:/usr/local/lib/ARM/CMSIS/5.4.0/CMSIS/RTOS2/RTX/Source/rtx_evr.c **** #if (!defined(EVR_RTX_DISABLE) && (OS_EVR_KERNEL != 0) && !defined(EVR_RTX_KERNEL_GET_STATE_DISABLE
 362:/usr/local/lib/ARM/CMSIS/5.4.0/CMSIS/RTOS2/RTX/Source/rtx_evr.c **** __WEAK void EvrRtxKernelGetState (osKernelState_t state) {
 226              		.loc 1 362 0
 227              		.cfi_startproc
 228              		@ args = 0, pretend = 0, frame = 0
 229              		@ frame_needed = 0, uses_anonymous_args = 0
 230              		@ link register save eliminated.
 231              	.LVL9:
ARM GAS  /tmp/ccrysPfs.s 			page 11


 232 0000 7047     		bx	lr
 233              		.cfi_endproc
 234              	.LFE113:
 236 0002 00BF     		.section	.text.EvrRtxKernelStart,"ax",%progbits
 237              		.align	2
 238              		.weak	EvrRtxKernelStart
 239              		.thumb
 240              		.thumb_func
 242              	EvrRtxKernelStart:
 243              	.LFB114:
 363:/usr/local/lib/ARM/CMSIS/5.4.0/CMSIS/RTOS2/RTX/Source/rtx_evr.c **** #if defined(RTE_Compiler_EventRecorder)
 364:/usr/local/lib/ARM/CMSIS/5.4.0/CMSIS/RTOS2/RTX/Source/rtx_evr.c ****   (void)EventRecord2(EvtRtxKernelGetState, (uint32_t)state, 0U);
 365:/usr/local/lib/ARM/CMSIS/5.4.0/CMSIS/RTOS2/RTX/Source/rtx_evr.c **** #else
 366:/usr/local/lib/ARM/CMSIS/5.4.0/CMSIS/RTOS2/RTX/Source/rtx_evr.c ****   (void)state;
 367:/usr/local/lib/ARM/CMSIS/5.4.0/CMSIS/RTOS2/RTX/Source/rtx_evr.c **** #endif
 368:/usr/local/lib/ARM/CMSIS/5.4.0/CMSIS/RTOS2/RTX/Source/rtx_evr.c **** }
 369:/usr/local/lib/ARM/CMSIS/5.4.0/CMSIS/RTOS2/RTX/Source/rtx_evr.c **** #endif
 370:/usr/local/lib/ARM/CMSIS/5.4.0/CMSIS/RTOS2/RTX/Source/rtx_evr.c **** 
 371:/usr/local/lib/ARM/CMSIS/5.4.0/CMSIS/RTOS2/RTX/Source/rtx_evr.c **** #if (!defined(EVR_RTX_DISABLE) && (OS_EVR_KERNEL != 0) && !defined(EVR_RTX_KERNEL_START_DISABLE))
 372:/usr/local/lib/ARM/CMSIS/5.4.0/CMSIS/RTOS2/RTX/Source/rtx_evr.c **** __WEAK void EvrRtxKernelStart (void) {
 244              		.loc 1 372 0
 245              		.cfi_startproc
 246              		@ args = 0, pretend = 0, frame = 0
 247              		@ frame_needed = 0, uses_anonymous_args = 0
 248              		@ link register save eliminated.
 249 0000 7047     		bx	lr
 250              		.cfi_endproc
 251              	.LFE114:
 253 0002 00BF     		.section	.text.EvrRtxKernelStarted,"ax",%progbits
 254              		.align	2
 255              		.weak	EvrRtxKernelStarted
 256              		.thumb
 257              		.thumb_func
 259              	EvrRtxKernelStarted:
 260              	.LFB115:
 373:/usr/local/lib/ARM/CMSIS/5.4.0/CMSIS/RTOS2/RTX/Source/rtx_evr.c **** #if defined(RTE_Compiler_EventRecorder)
 374:/usr/local/lib/ARM/CMSIS/5.4.0/CMSIS/RTOS2/RTX/Source/rtx_evr.c ****   (void)EventRecord2(EvtRtxKernelStart, 0U, 0U);
 375:/usr/local/lib/ARM/CMSIS/5.4.0/CMSIS/RTOS2/RTX/Source/rtx_evr.c **** #else
 376:/usr/local/lib/ARM/CMSIS/5.4.0/CMSIS/RTOS2/RTX/Source/rtx_evr.c **** #endif
 377:/usr/local/lib/ARM/CMSIS/5.4.0/CMSIS/RTOS2/RTX/Source/rtx_evr.c **** }
 378:/usr/local/lib/ARM/CMSIS/5.4.0/CMSIS/RTOS2/RTX/Source/rtx_evr.c **** #endif
 379:/usr/local/lib/ARM/CMSIS/5.4.0/CMSIS/RTOS2/RTX/Source/rtx_evr.c **** 
 380:/usr/local/lib/ARM/CMSIS/5.4.0/CMSIS/RTOS2/RTX/Source/rtx_evr.c **** #if (!defined(EVR_RTX_DISABLE) && (OS_EVR_KERNEL != 0) && !defined(EVR_RTX_KERNEL_STARTED_DISABLE))
 381:/usr/local/lib/ARM/CMSIS/5.4.0/CMSIS/RTOS2/RTX/Source/rtx_evr.c **** __WEAK void EvrRtxKernelStarted (void) {
 261              		.loc 1 381 0
 262              		.cfi_startproc
 263              		@ args = 0, pretend = 0, frame = 0
 264              		@ frame_needed = 0, uses_anonymous_args = 0
 265              		@ link register save eliminated.
 266 0000 7047     		bx	lr
 267              		.cfi_endproc
 268              	.LFE115:
 270 0002 00BF     		.section	.text.EvrRtxKernelLock,"ax",%progbits
 271              		.align	2
 272              		.weak	EvrRtxKernelLock
 273              		.thumb
 274              		.thumb_func
ARM GAS  /tmp/ccrysPfs.s 			page 12


 276              	EvrRtxKernelLock:
 277              	.LFB116:
 382:/usr/local/lib/ARM/CMSIS/5.4.0/CMSIS/RTOS2/RTX/Source/rtx_evr.c **** #if defined(RTE_Compiler_EventRecorder)
 383:/usr/local/lib/ARM/CMSIS/5.4.0/CMSIS/RTOS2/RTX/Source/rtx_evr.c ****   (void)EventRecord2(EvtRtxKernelStarted, 0U, 0U);
 384:/usr/local/lib/ARM/CMSIS/5.4.0/CMSIS/RTOS2/RTX/Source/rtx_evr.c **** #else
 385:/usr/local/lib/ARM/CMSIS/5.4.0/CMSIS/RTOS2/RTX/Source/rtx_evr.c **** #endif
 386:/usr/local/lib/ARM/CMSIS/5.4.0/CMSIS/RTOS2/RTX/Source/rtx_evr.c **** }
 387:/usr/local/lib/ARM/CMSIS/5.4.0/CMSIS/RTOS2/RTX/Source/rtx_evr.c **** #endif
 388:/usr/local/lib/ARM/CMSIS/5.4.0/CMSIS/RTOS2/RTX/Source/rtx_evr.c **** 
 389:/usr/local/lib/ARM/CMSIS/5.4.0/CMSIS/RTOS2/RTX/Source/rtx_evr.c **** #if (!defined(EVR_RTX_DISABLE) && (OS_EVR_KERNEL != 0) && !defined(EVR_RTX_KERNEL_LOCK_DISABLE))
 390:/usr/local/lib/ARM/CMSIS/5.4.0/CMSIS/RTOS2/RTX/Source/rtx_evr.c **** __WEAK void EvrRtxKernelLock (void) {
 278              		.loc 1 390 0
 279              		.cfi_startproc
 280              		@ args = 0, pretend = 0, frame = 0
 281              		@ frame_needed = 0, uses_anonymous_args = 0
 282              		@ link register save eliminated.
 283 0000 7047     		bx	lr
 284              		.cfi_endproc
 285              	.LFE116:
 287 0002 00BF     		.section	.text.EvrRtxKernelLocked,"ax",%progbits
 288              		.align	2
 289              		.weak	EvrRtxKernelLocked
 290              		.thumb
 291              		.thumb_func
 293              	EvrRtxKernelLocked:
 294              	.LFB117:
 391:/usr/local/lib/ARM/CMSIS/5.4.0/CMSIS/RTOS2/RTX/Source/rtx_evr.c **** #if defined(RTE_Compiler_EventRecorder)
 392:/usr/local/lib/ARM/CMSIS/5.4.0/CMSIS/RTOS2/RTX/Source/rtx_evr.c ****   (void)EventRecord2(EvtRtxKernelLock, 0U, 0U);
 393:/usr/local/lib/ARM/CMSIS/5.4.0/CMSIS/RTOS2/RTX/Source/rtx_evr.c **** #else
 394:/usr/local/lib/ARM/CMSIS/5.4.0/CMSIS/RTOS2/RTX/Source/rtx_evr.c **** #endif
 395:/usr/local/lib/ARM/CMSIS/5.4.0/CMSIS/RTOS2/RTX/Source/rtx_evr.c **** }
 396:/usr/local/lib/ARM/CMSIS/5.4.0/CMSIS/RTOS2/RTX/Source/rtx_evr.c **** #endif
 397:/usr/local/lib/ARM/CMSIS/5.4.0/CMSIS/RTOS2/RTX/Source/rtx_evr.c **** 
 398:/usr/local/lib/ARM/CMSIS/5.4.0/CMSIS/RTOS2/RTX/Source/rtx_evr.c **** #if (!defined(EVR_RTX_DISABLE) && (OS_EVR_KERNEL != 0) && !defined(EVR_RTX_KERNEL_LOCKED_DISABLE))
 399:/usr/local/lib/ARM/CMSIS/5.4.0/CMSIS/RTOS2/RTX/Source/rtx_evr.c **** __WEAK void EvrRtxKernelLocked (int32_t lock) {
 295              		.loc 1 399 0
 296              		.cfi_startproc
 297              		@ args = 0, pretend = 0, frame = 0
 298              		@ frame_needed = 0, uses_anonymous_args = 0
 299              		@ link register save eliminated.
 300              	.LVL10:
 301 0000 7047     		bx	lr
 302              		.cfi_endproc
 303              	.LFE117:
 305 0002 00BF     		.section	.text.EvrRtxKernelUnlock,"ax",%progbits
 306              		.align	2
 307              		.weak	EvrRtxKernelUnlock
 308              		.thumb
 309              		.thumb_func
 311              	EvrRtxKernelUnlock:
 312              	.LFB118:
 400:/usr/local/lib/ARM/CMSIS/5.4.0/CMSIS/RTOS2/RTX/Source/rtx_evr.c **** #if defined(RTE_Compiler_EventRecorder)
 401:/usr/local/lib/ARM/CMSIS/5.4.0/CMSIS/RTOS2/RTX/Source/rtx_evr.c ****   (void)EventRecord2(EvtRtxKernelLocked, (uint32_t)lock, 0U);
 402:/usr/local/lib/ARM/CMSIS/5.4.0/CMSIS/RTOS2/RTX/Source/rtx_evr.c **** #else
 403:/usr/local/lib/ARM/CMSIS/5.4.0/CMSIS/RTOS2/RTX/Source/rtx_evr.c ****   (void)lock;
 404:/usr/local/lib/ARM/CMSIS/5.4.0/CMSIS/RTOS2/RTX/Source/rtx_evr.c **** #endif
 405:/usr/local/lib/ARM/CMSIS/5.4.0/CMSIS/RTOS2/RTX/Source/rtx_evr.c **** }
ARM GAS  /tmp/ccrysPfs.s 			page 13


 406:/usr/local/lib/ARM/CMSIS/5.4.0/CMSIS/RTOS2/RTX/Source/rtx_evr.c **** #endif
 407:/usr/local/lib/ARM/CMSIS/5.4.0/CMSIS/RTOS2/RTX/Source/rtx_evr.c **** 
 408:/usr/local/lib/ARM/CMSIS/5.4.0/CMSIS/RTOS2/RTX/Source/rtx_evr.c **** #if (!defined(EVR_RTX_DISABLE) && (OS_EVR_KERNEL != 0) && !defined(EVR_RTX_KERNEL_UNLOCK_DISABLE))
 409:/usr/local/lib/ARM/CMSIS/5.4.0/CMSIS/RTOS2/RTX/Source/rtx_evr.c **** __WEAK void EvrRtxKernelUnlock (void) {
 313              		.loc 1 409 0
 314              		.cfi_startproc
 315              		@ args = 0, pretend = 0, frame = 0
 316              		@ frame_needed = 0, uses_anonymous_args = 0
 317              		@ link register save eliminated.
 318 0000 7047     		bx	lr
 319              		.cfi_endproc
 320              	.LFE118:
 322 0002 00BF     		.section	.text.EvrRtxKernelUnlocked,"ax",%progbits
 323              		.align	2
 324              		.weak	EvrRtxKernelUnlocked
 325              		.thumb
 326              		.thumb_func
 328              	EvrRtxKernelUnlocked:
 329              	.LFB119:
 410:/usr/local/lib/ARM/CMSIS/5.4.0/CMSIS/RTOS2/RTX/Source/rtx_evr.c **** #if defined(RTE_Compiler_EventRecorder)
 411:/usr/local/lib/ARM/CMSIS/5.4.0/CMSIS/RTOS2/RTX/Source/rtx_evr.c ****   (void)EventRecord2(EvtRtxKernelUnlock, 0U, 0U);
 412:/usr/local/lib/ARM/CMSIS/5.4.0/CMSIS/RTOS2/RTX/Source/rtx_evr.c **** #else
 413:/usr/local/lib/ARM/CMSIS/5.4.0/CMSIS/RTOS2/RTX/Source/rtx_evr.c **** #endif
 414:/usr/local/lib/ARM/CMSIS/5.4.0/CMSIS/RTOS2/RTX/Source/rtx_evr.c **** }
 415:/usr/local/lib/ARM/CMSIS/5.4.0/CMSIS/RTOS2/RTX/Source/rtx_evr.c **** #endif
 416:/usr/local/lib/ARM/CMSIS/5.4.0/CMSIS/RTOS2/RTX/Source/rtx_evr.c **** 
 417:/usr/local/lib/ARM/CMSIS/5.4.0/CMSIS/RTOS2/RTX/Source/rtx_evr.c **** #if (!defined(EVR_RTX_DISABLE) && (OS_EVR_KERNEL != 0) && !defined(EVR_RTX_KERNEL_UNLOCKED_DISABLE)
 418:/usr/local/lib/ARM/CMSIS/5.4.0/CMSIS/RTOS2/RTX/Source/rtx_evr.c **** __WEAK void EvrRtxKernelUnlocked (int32_t lock) {
 330              		.loc 1 418 0
 331              		.cfi_startproc
 332              		@ args = 0, pretend = 0, frame = 0
 333              		@ frame_needed = 0, uses_anonymous_args = 0
 334              		@ link register save eliminated.
 335              	.LVL11:
 336 0000 7047     		bx	lr
 337              		.cfi_endproc
 338              	.LFE119:
 340 0002 00BF     		.section	.text.EvrRtxKernelRestoreLock,"ax",%progbits
 341              		.align	2
 342              		.weak	EvrRtxKernelRestoreLock
 343              		.thumb
 344              		.thumb_func
 346              	EvrRtxKernelRestoreLock:
 347              	.LFB120:
 419:/usr/local/lib/ARM/CMSIS/5.4.0/CMSIS/RTOS2/RTX/Source/rtx_evr.c **** #if defined(RTE_Compiler_EventRecorder)
 420:/usr/local/lib/ARM/CMSIS/5.4.0/CMSIS/RTOS2/RTX/Source/rtx_evr.c ****   (void)EventRecord2(EvtRtxKernelUnlocked, (uint32_t)lock, 0U);
 421:/usr/local/lib/ARM/CMSIS/5.4.0/CMSIS/RTOS2/RTX/Source/rtx_evr.c **** #else
 422:/usr/local/lib/ARM/CMSIS/5.4.0/CMSIS/RTOS2/RTX/Source/rtx_evr.c ****   (void)lock;
 423:/usr/local/lib/ARM/CMSIS/5.4.0/CMSIS/RTOS2/RTX/Source/rtx_evr.c **** #endif
 424:/usr/local/lib/ARM/CMSIS/5.4.0/CMSIS/RTOS2/RTX/Source/rtx_evr.c **** }
 425:/usr/local/lib/ARM/CMSIS/5.4.0/CMSIS/RTOS2/RTX/Source/rtx_evr.c **** #endif
 426:/usr/local/lib/ARM/CMSIS/5.4.0/CMSIS/RTOS2/RTX/Source/rtx_evr.c **** 
 427:/usr/local/lib/ARM/CMSIS/5.4.0/CMSIS/RTOS2/RTX/Source/rtx_evr.c **** #if (!defined(EVR_RTX_DISABLE) && (OS_EVR_KERNEL != 0) && !defined(EVR_RTX_KERNEL_RESTORE_LOCK_DISA
 428:/usr/local/lib/ARM/CMSIS/5.4.0/CMSIS/RTOS2/RTX/Source/rtx_evr.c **** __WEAK void EvrRtxKernelRestoreLock (int32_t lock) {
 348              		.loc 1 428 0
 349              		.cfi_startproc
 350              		@ args = 0, pretend = 0, frame = 0
ARM GAS  /tmp/ccrysPfs.s 			page 14


 351              		@ frame_needed = 0, uses_anonymous_args = 0
 352              		@ link register save eliminated.
 353              	.LVL12:
 354 0000 7047     		bx	lr
 355              		.cfi_endproc
 356              	.LFE120:
 358 0002 00BF     		.section	.text.EvrRtxKernelLockRestored,"ax",%progbits
 359              		.align	2
 360              		.weak	EvrRtxKernelLockRestored
 361              		.thumb
 362              		.thumb_func
 364              	EvrRtxKernelLockRestored:
 365              	.LFB121:
 429:/usr/local/lib/ARM/CMSIS/5.4.0/CMSIS/RTOS2/RTX/Source/rtx_evr.c **** #if defined(RTE_Compiler_EventRecorder)
 430:/usr/local/lib/ARM/CMSIS/5.4.0/CMSIS/RTOS2/RTX/Source/rtx_evr.c ****   (void)EventRecord2(EvtRtxKernelRestoreLock, (uint32_t)lock, 0U);
 431:/usr/local/lib/ARM/CMSIS/5.4.0/CMSIS/RTOS2/RTX/Source/rtx_evr.c **** #else
 432:/usr/local/lib/ARM/CMSIS/5.4.0/CMSIS/RTOS2/RTX/Source/rtx_evr.c ****   (void)lock;
 433:/usr/local/lib/ARM/CMSIS/5.4.0/CMSIS/RTOS2/RTX/Source/rtx_evr.c **** #endif
 434:/usr/local/lib/ARM/CMSIS/5.4.0/CMSIS/RTOS2/RTX/Source/rtx_evr.c **** }
 435:/usr/local/lib/ARM/CMSIS/5.4.0/CMSIS/RTOS2/RTX/Source/rtx_evr.c **** #endif
 436:/usr/local/lib/ARM/CMSIS/5.4.0/CMSIS/RTOS2/RTX/Source/rtx_evr.c **** 
 437:/usr/local/lib/ARM/CMSIS/5.4.0/CMSIS/RTOS2/RTX/Source/rtx_evr.c **** #if (!defined(EVR_RTX_DISABLE) && (OS_EVR_KERNEL != 0) && !defined(EVR_RTX_KERNEL_LOCK_RESTORED_DIS
 438:/usr/local/lib/ARM/CMSIS/5.4.0/CMSIS/RTOS2/RTX/Source/rtx_evr.c **** __WEAK void EvrRtxKernelLockRestored (int32_t lock) {
 366              		.loc 1 438 0
 367              		.cfi_startproc
 368              		@ args = 0, pretend = 0, frame = 0
 369              		@ frame_needed = 0, uses_anonymous_args = 0
 370              		@ link register save eliminated.
 371              	.LVL13:
 372 0000 7047     		bx	lr
 373              		.cfi_endproc
 374              	.LFE121:
 376 0002 00BF     		.section	.text.EvrRtxKernelSuspend,"ax",%progbits
 377              		.align	2
 378              		.weak	EvrRtxKernelSuspend
 379              		.thumb
 380              		.thumb_func
 382              	EvrRtxKernelSuspend:
 383              	.LFB122:
 439:/usr/local/lib/ARM/CMSIS/5.4.0/CMSIS/RTOS2/RTX/Source/rtx_evr.c **** #if defined(RTE_Compiler_EventRecorder)
 440:/usr/local/lib/ARM/CMSIS/5.4.0/CMSIS/RTOS2/RTX/Source/rtx_evr.c ****   (void)EventRecord2(EvtRtxKernelLockRestored, (uint32_t)lock, 0U);
 441:/usr/local/lib/ARM/CMSIS/5.4.0/CMSIS/RTOS2/RTX/Source/rtx_evr.c **** #else
 442:/usr/local/lib/ARM/CMSIS/5.4.0/CMSIS/RTOS2/RTX/Source/rtx_evr.c ****   (void)lock;
 443:/usr/local/lib/ARM/CMSIS/5.4.0/CMSIS/RTOS2/RTX/Source/rtx_evr.c **** #endif
 444:/usr/local/lib/ARM/CMSIS/5.4.0/CMSIS/RTOS2/RTX/Source/rtx_evr.c **** }
 445:/usr/local/lib/ARM/CMSIS/5.4.0/CMSIS/RTOS2/RTX/Source/rtx_evr.c **** #endif
 446:/usr/local/lib/ARM/CMSIS/5.4.0/CMSIS/RTOS2/RTX/Source/rtx_evr.c **** 
 447:/usr/local/lib/ARM/CMSIS/5.4.0/CMSIS/RTOS2/RTX/Source/rtx_evr.c **** #if (!defined(EVR_RTX_DISABLE) && (OS_EVR_KERNEL != 0) && !defined(EVR_RTX_KERNEL_SUSPEND_DISABLE))
 448:/usr/local/lib/ARM/CMSIS/5.4.0/CMSIS/RTOS2/RTX/Source/rtx_evr.c **** __WEAK void EvrRtxKernelSuspend (void) {
 384              		.loc 1 448 0
 385              		.cfi_startproc
 386              		@ args = 0, pretend = 0, frame = 0
 387              		@ frame_needed = 0, uses_anonymous_args = 0
 388              		@ link register save eliminated.
 389 0000 7047     		bx	lr
 390              		.cfi_endproc
 391              	.LFE122:
ARM GAS  /tmp/ccrysPfs.s 			page 15


 393 0002 00BF     		.section	.text.EvrRtxKernelSuspended,"ax",%progbits
 394              		.align	2
 395              		.weak	EvrRtxKernelSuspended
 396              		.thumb
 397              		.thumb_func
 399              	EvrRtxKernelSuspended:
 400              	.LFB123:
 449:/usr/local/lib/ARM/CMSIS/5.4.0/CMSIS/RTOS2/RTX/Source/rtx_evr.c **** #if defined(RTE_Compiler_EventRecorder)
 450:/usr/local/lib/ARM/CMSIS/5.4.0/CMSIS/RTOS2/RTX/Source/rtx_evr.c ****   (void)EventRecord2(EvtRtxKernelSuspend, 0U, 0U);
 451:/usr/local/lib/ARM/CMSIS/5.4.0/CMSIS/RTOS2/RTX/Source/rtx_evr.c **** #else
 452:/usr/local/lib/ARM/CMSIS/5.4.0/CMSIS/RTOS2/RTX/Source/rtx_evr.c **** #endif
 453:/usr/local/lib/ARM/CMSIS/5.4.0/CMSIS/RTOS2/RTX/Source/rtx_evr.c **** }
 454:/usr/local/lib/ARM/CMSIS/5.4.0/CMSIS/RTOS2/RTX/Source/rtx_evr.c **** #endif
 455:/usr/local/lib/ARM/CMSIS/5.4.0/CMSIS/RTOS2/RTX/Source/rtx_evr.c **** 
 456:/usr/local/lib/ARM/CMSIS/5.4.0/CMSIS/RTOS2/RTX/Source/rtx_evr.c **** #if (!defined(EVR_RTX_DISABLE) && (OS_EVR_KERNEL != 0) && !defined(EVR_RTX_KERNEL_SUSPENDED_DISABLE
 457:/usr/local/lib/ARM/CMSIS/5.4.0/CMSIS/RTOS2/RTX/Source/rtx_evr.c **** __WEAK void EvrRtxKernelSuspended (uint32_t sleep_ticks) {
 401              		.loc 1 457 0
 402              		.cfi_startproc
 403              		@ args = 0, pretend = 0, frame = 0
 404              		@ frame_needed = 0, uses_anonymous_args = 0
 405              		@ link register save eliminated.
 406              	.LVL14:
 407 0000 7047     		bx	lr
 408              		.cfi_endproc
 409              	.LFE123:
 411 0002 00BF     		.section	.text.EvrRtxKernelResume,"ax",%progbits
 412              		.align	2
 413              		.weak	EvrRtxKernelResume
 414              		.thumb
 415              		.thumb_func
 417              	EvrRtxKernelResume:
 418              	.LFB124:
 458:/usr/local/lib/ARM/CMSIS/5.4.0/CMSIS/RTOS2/RTX/Source/rtx_evr.c **** #if defined(RTE_Compiler_EventRecorder)
 459:/usr/local/lib/ARM/CMSIS/5.4.0/CMSIS/RTOS2/RTX/Source/rtx_evr.c ****   (void)EventRecord2(EvtRtxKernelSuspended, sleep_ticks, 0U);
 460:/usr/local/lib/ARM/CMSIS/5.4.0/CMSIS/RTOS2/RTX/Source/rtx_evr.c **** #else
 461:/usr/local/lib/ARM/CMSIS/5.4.0/CMSIS/RTOS2/RTX/Source/rtx_evr.c ****   (void)sleep_ticks;
 462:/usr/local/lib/ARM/CMSIS/5.4.0/CMSIS/RTOS2/RTX/Source/rtx_evr.c **** #endif
 463:/usr/local/lib/ARM/CMSIS/5.4.0/CMSIS/RTOS2/RTX/Source/rtx_evr.c **** }
 464:/usr/local/lib/ARM/CMSIS/5.4.0/CMSIS/RTOS2/RTX/Source/rtx_evr.c **** #endif
 465:/usr/local/lib/ARM/CMSIS/5.4.0/CMSIS/RTOS2/RTX/Source/rtx_evr.c **** 
 466:/usr/local/lib/ARM/CMSIS/5.4.0/CMSIS/RTOS2/RTX/Source/rtx_evr.c **** #if (!defined(EVR_RTX_DISABLE) && (OS_EVR_KERNEL != 0) && !defined(EVR_RTX_KERNEL_RESUME_DISABLE))
 467:/usr/local/lib/ARM/CMSIS/5.4.0/CMSIS/RTOS2/RTX/Source/rtx_evr.c **** __WEAK void EvrRtxKernelResume (uint32_t sleep_ticks) {
 419              		.loc 1 467 0
 420              		.cfi_startproc
 421              		@ args = 0, pretend = 0, frame = 0
 422              		@ frame_needed = 0, uses_anonymous_args = 0
 423              		@ link register save eliminated.
 424              	.LVL15:
 425 0000 7047     		bx	lr
 426              		.cfi_endproc
 427              	.LFE124:
 429 0002 00BF     		.section	.text.EvrRtxKernelResumed,"ax",%progbits
 430              		.align	2
 431              		.weak	EvrRtxKernelResumed
 432              		.thumb
 433              		.thumb_func
 435              	EvrRtxKernelResumed:
ARM GAS  /tmp/ccrysPfs.s 			page 16


 436              	.LFB125:
 468:/usr/local/lib/ARM/CMSIS/5.4.0/CMSIS/RTOS2/RTX/Source/rtx_evr.c **** #if defined(RTE_Compiler_EventRecorder)
 469:/usr/local/lib/ARM/CMSIS/5.4.0/CMSIS/RTOS2/RTX/Source/rtx_evr.c ****   (void)EventRecord2(EvtRtxKernelResume, sleep_ticks, 0U);
 470:/usr/local/lib/ARM/CMSIS/5.4.0/CMSIS/RTOS2/RTX/Source/rtx_evr.c **** #else
 471:/usr/local/lib/ARM/CMSIS/5.4.0/CMSIS/RTOS2/RTX/Source/rtx_evr.c ****   (void)sleep_ticks;
 472:/usr/local/lib/ARM/CMSIS/5.4.0/CMSIS/RTOS2/RTX/Source/rtx_evr.c **** #endif
 473:/usr/local/lib/ARM/CMSIS/5.4.0/CMSIS/RTOS2/RTX/Source/rtx_evr.c **** }
 474:/usr/local/lib/ARM/CMSIS/5.4.0/CMSIS/RTOS2/RTX/Source/rtx_evr.c **** #endif
 475:/usr/local/lib/ARM/CMSIS/5.4.0/CMSIS/RTOS2/RTX/Source/rtx_evr.c **** 
 476:/usr/local/lib/ARM/CMSIS/5.4.0/CMSIS/RTOS2/RTX/Source/rtx_evr.c **** #if (!defined(EVR_RTX_DISABLE) && (OS_EVR_KERNEL != 0) && !defined(EVR_RTX_KERNEL_RESUMED_DISABLE))
 477:/usr/local/lib/ARM/CMSIS/5.4.0/CMSIS/RTOS2/RTX/Source/rtx_evr.c **** __WEAK void EvrRtxKernelResumed (void) {
 437              		.loc 1 477 0
 438              		.cfi_startproc
 439              		@ args = 0, pretend = 0, frame = 0
 440              		@ frame_needed = 0, uses_anonymous_args = 0
 441              		@ link register save eliminated.
 442 0000 7047     		bx	lr
 443              		.cfi_endproc
 444              	.LFE125:
 446 0002 00BF     		.section	.text.EvrRtxKernelGetTickCount,"ax",%progbits
 447              		.align	2
 448              		.weak	EvrRtxKernelGetTickCount
 449              		.thumb
 450              		.thumb_func
 452              	EvrRtxKernelGetTickCount:
 453              	.LFB126:
 478:/usr/local/lib/ARM/CMSIS/5.4.0/CMSIS/RTOS2/RTX/Source/rtx_evr.c **** #if defined(RTE_Compiler_EventRecorder)
 479:/usr/local/lib/ARM/CMSIS/5.4.0/CMSIS/RTOS2/RTX/Source/rtx_evr.c ****   (void)EventRecord2(EvtRtxKernelResumed, 0U, 0U);
 480:/usr/local/lib/ARM/CMSIS/5.4.0/CMSIS/RTOS2/RTX/Source/rtx_evr.c **** #else
 481:/usr/local/lib/ARM/CMSIS/5.4.0/CMSIS/RTOS2/RTX/Source/rtx_evr.c **** #endif
 482:/usr/local/lib/ARM/CMSIS/5.4.0/CMSIS/RTOS2/RTX/Source/rtx_evr.c **** }
 483:/usr/local/lib/ARM/CMSIS/5.4.0/CMSIS/RTOS2/RTX/Source/rtx_evr.c **** #endif
 484:/usr/local/lib/ARM/CMSIS/5.4.0/CMSIS/RTOS2/RTX/Source/rtx_evr.c **** 
 485:/usr/local/lib/ARM/CMSIS/5.4.0/CMSIS/RTOS2/RTX/Source/rtx_evr.c **** #if (!defined(EVR_RTX_DISABLE) && (OS_EVR_KERNEL != 0) && !defined(EVR_RTX_KERNEL_GET_TICK_COUNT_DI
 486:/usr/local/lib/ARM/CMSIS/5.4.0/CMSIS/RTOS2/RTX/Source/rtx_evr.c **** __WEAK void EvrRtxKernelGetTickCount (uint32_t count) {
 454              		.loc 1 486 0
 455              		.cfi_startproc
 456              		@ args = 0, pretend = 0, frame = 0
 457              		@ frame_needed = 0, uses_anonymous_args = 0
 458              		@ link register save eliminated.
 459              	.LVL16:
 460 0000 7047     		bx	lr
 461              		.cfi_endproc
 462              	.LFE126:
 464 0002 00BF     		.section	.text.EvrRtxKernelGetTickFreq,"ax",%progbits
 465              		.align	2
 466              		.weak	EvrRtxKernelGetTickFreq
 467              		.thumb
 468              		.thumb_func
 470              	EvrRtxKernelGetTickFreq:
 471              	.LFB127:
 487:/usr/local/lib/ARM/CMSIS/5.4.0/CMSIS/RTOS2/RTX/Source/rtx_evr.c **** #if defined(RTE_Compiler_EventRecorder)
 488:/usr/local/lib/ARM/CMSIS/5.4.0/CMSIS/RTOS2/RTX/Source/rtx_evr.c ****   (void)EventRecord2(EvtRtxKernelGetTickCount, count, 0U);
 489:/usr/local/lib/ARM/CMSIS/5.4.0/CMSIS/RTOS2/RTX/Source/rtx_evr.c **** #else
 490:/usr/local/lib/ARM/CMSIS/5.4.0/CMSIS/RTOS2/RTX/Source/rtx_evr.c ****   (void)count;
 491:/usr/local/lib/ARM/CMSIS/5.4.0/CMSIS/RTOS2/RTX/Source/rtx_evr.c **** #endif
 492:/usr/local/lib/ARM/CMSIS/5.4.0/CMSIS/RTOS2/RTX/Source/rtx_evr.c **** }
ARM GAS  /tmp/ccrysPfs.s 			page 17


 493:/usr/local/lib/ARM/CMSIS/5.4.0/CMSIS/RTOS2/RTX/Source/rtx_evr.c **** #endif
 494:/usr/local/lib/ARM/CMSIS/5.4.0/CMSIS/RTOS2/RTX/Source/rtx_evr.c **** 
 495:/usr/local/lib/ARM/CMSIS/5.4.0/CMSIS/RTOS2/RTX/Source/rtx_evr.c **** #if (!defined(EVR_RTX_DISABLE) && (OS_EVR_KERNEL != 0) && !defined(EVR_RTX_KERNEL_GET_TICK_FREQ_DIS
 496:/usr/local/lib/ARM/CMSIS/5.4.0/CMSIS/RTOS2/RTX/Source/rtx_evr.c **** __WEAK void EvrRtxKernelGetTickFreq (uint32_t freq) {
 472              		.loc 1 496 0
 473              		.cfi_startproc
 474              		@ args = 0, pretend = 0, frame = 0
 475              		@ frame_needed = 0, uses_anonymous_args = 0
 476              		@ link register save eliminated.
 477              	.LVL17:
 478 0000 7047     		bx	lr
 479              		.cfi_endproc
 480              	.LFE127:
 482 0002 00BF     		.section	.text.EvrRtxKernelGetSysTimerCount,"ax",%progbits
 483              		.align	2
 484              		.weak	EvrRtxKernelGetSysTimerCount
 485              		.thumb
 486              		.thumb_func
 488              	EvrRtxKernelGetSysTimerCount:
 489              	.LFB128:
 497:/usr/local/lib/ARM/CMSIS/5.4.0/CMSIS/RTOS2/RTX/Source/rtx_evr.c **** #if defined(RTE_Compiler_EventRecorder)
 498:/usr/local/lib/ARM/CMSIS/5.4.0/CMSIS/RTOS2/RTX/Source/rtx_evr.c ****   (void)EventRecord2(EvtRtxKernelGetTickFreq, freq, 0U);
 499:/usr/local/lib/ARM/CMSIS/5.4.0/CMSIS/RTOS2/RTX/Source/rtx_evr.c **** #else
 500:/usr/local/lib/ARM/CMSIS/5.4.0/CMSIS/RTOS2/RTX/Source/rtx_evr.c ****   (void)freq;
 501:/usr/local/lib/ARM/CMSIS/5.4.0/CMSIS/RTOS2/RTX/Source/rtx_evr.c **** #endif
 502:/usr/local/lib/ARM/CMSIS/5.4.0/CMSIS/RTOS2/RTX/Source/rtx_evr.c **** }
 503:/usr/local/lib/ARM/CMSIS/5.4.0/CMSIS/RTOS2/RTX/Source/rtx_evr.c **** #endif
 504:/usr/local/lib/ARM/CMSIS/5.4.0/CMSIS/RTOS2/RTX/Source/rtx_evr.c **** 
 505:/usr/local/lib/ARM/CMSIS/5.4.0/CMSIS/RTOS2/RTX/Source/rtx_evr.c **** #if (!defined(EVR_RTX_DISABLE) && (OS_EVR_KERNEL != 0) && !defined(EVR_RTX_KERNEL_GET_SYS_TIMER_COU
 506:/usr/local/lib/ARM/CMSIS/5.4.0/CMSIS/RTOS2/RTX/Source/rtx_evr.c **** __WEAK void EvrRtxKernelGetSysTimerCount (uint32_t count) {
 490              		.loc 1 506 0
 491              		.cfi_startproc
 492              		@ args = 0, pretend = 0, frame = 0
 493              		@ frame_needed = 0, uses_anonymous_args = 0
 494              		@ link register save eliminated.
 495              	.LVL18:
 496 0000 7047     		bx	lr
 497              		.cfi_endproc
 498              	.LFE128:
 500 0002 00BF     		.section	.text.EvrRtxKernelGetSysTimerFreq,"ax",%progbits
 501              		.align	2
 502              		.weak	EvrRtxKernelGetSysTimerFreq
 503              		.thumb
 504              		.thumb_func
 506              	EvrRtxKernelGetSysTimerFreq:
 507              	.LFB129:
 507:/usr/local/lib/ARM/CMSIS/5.4.0/CMSIS/RTOS2/RTX/Source/rtx_evr.c **** #if defined(RTE_Compiler_EventRecorder)
 508:/usr/local/lib/ARM/CMSIS/5.4.0/CMSIS/RTOS2/RTX/Source/rtx_evr.c ****   (void)EventRecord2(EvtRtxKernelGetSysTimerCount, count, 0U);
 509:/usr/local/lib/ARM/CMSIS/5.4.0/CMSIS/RTOS2/RTX/Source/rtx_evr.c **** #else
 510:/usr/local/lib/ARM/CMSIS/5.4.0/CMSIS/RTOS2/RTX/Source/rtx_evr.c ****   (void)count;
 511:/usr/local/lib/ARM/CMSIS/5.4.0/CMSIS/RTOS2/RTX/Source/rtx_evr.c **** #endif
 512:/usr/local/lib/ARM/CMSIS/5.4.0/CMSIS/RTOS2/RTX/Source/rtx_evr.c **** }
 513:/usr/local/lib/ARM/CMSIS/5.4.0/CMSIS/RTOS2/RTX/Source/rtx_evr.c **** #endif
 514:/usr/local/lib/ARM/CMSIS/5.4.0/CMSIS/RTOS2/RTX/Source/rtx_evr.c **** 
 515:/usr/local/lib/ARM/CMSIS/5.4.0/CMSIS/RTOS2/RTX/Source/rtx_evr.c **** #if (!defined(EVR_RTX_DISABLE) && (OS_EVR_KERNEL != 0) && !defined(EVR_RTX_KERNEL_GET_SYS_TIMER_FRE
 516:/usr/local/lib/ARM/CMSIS/5.4.0/CMSIS/RTOS2/RTX/Source/rtx_evr.c **** __WEAK void EvrRtxKernelGetSysTimerFreq (uint32_t freq) {
 508              		.loc 1 516 0
ARM GAS  /tmp/ccrysPfs.s 			page 18


 509              		.cfi_startproc
 510              		@ args = 0, pretend = 0, frame = 0
 511              		@ frame_needed = 0, uses_anonymous_args = 0
 512              		@ link register save eliminated.
 513              	.LVL19:
 514 0000 7047     		bx	lr
 515              		.cfi_endproc
 516              	.LFE129:
 518 0002 00BF     		.section	.text.EvrRtxThreadError,"ax",%progbits
 519              		.align	2
 520              		.weak	EvrRtxThreadError
 521              		.thumb
 522              		.thumb_func
 524              	EvrRtxThreadError:
 525              	.LFB130:
 517:/usr/local/lib/ARM/CMSIS/5.4.0/CMSIS/RTOS2/RTX/Source/rtx_evr.c **** #if defined(RTE_Compiler_EventRecorder)
 518:/usr/local/lib/ARM/CMSIS/5.4.0/CMSIS/RTOS2/RTX/Source/rtx_evr.c ****   (void)EventRecord2(EvtRtxKernelGetSysTimerFreq, freq, 0U);
 519:/usr/local/lib/ARM/CMSIS/5.4.0/CMSIS/RTOS2/RTX/Source/rtx_evr.c **** #else
 520:/usr/local/lib/ARM/CMSIS/5.4.0/CMSIS/RTOS2/RTX/Source/rtx_evr.c ****   (void)freq;
 521:/usr/local/lib/ARM/CMSIS/5.4.0/CMSIS/RTOS2/RTX/Source/rtx_evr.c **** #endif
 522:/usr/local/lib/ARM/CMSIS/5.4.0/CMSIS/RTOS2/RTX/Source/rtx_evr.c **** }
 523:/usr/local/lib/ARM/CMSIS/5.4.0/CMSIS/RTOS2/RTX/Source/rtx_evr.c **** #endif
 524:/usr/local/lib/ARM/CMSIS/5.4.0/CMSIS/RTOS2/RTX/Source/rtx_evr.c **** 
 525:/usr/local/lib/ARM/CMSIS/5.4.0/CMSIS/RTOS2/RTX/Source/rtx_evr.c **** 
 526:/usr/local/lib/ARM/CMSIS/5.4.0/CMSIS/RTOS2/RTX/Source/rtx_evr.c **** //  ==== Thread Events ====
 527:/usr/local/lib/ARM/CMSIS/5.4.0/CMSIS/RTOS2/RTX/Source/rtx_evr.c **** 
 528:/usr/local/lib/ARM/CMSIS/5.4.0/CMSIS/RTOS2/RTX/Source/rtx_evr.c **** #if (!defined(EVR_RTX_DISABLE) && (OS_EVR_THREAD != 0) && !defined(EVR_RTX_THREAD_ERROR_DISABLE))
 529:/usr/local/lib/ARM/CMSIS/5.4.0/CMSIS/RTOS2/RTX/Source/rtx_evr.c **** __WEAK void EvrRtxThreadError (osThreadId_t thread_id, int32_t status) {
 526              		.loc 1 529 0
 527              		.cfi_startproc
 528              		@ args = 0, pretend = 0, frame = 0
 529              		@ frame_needed = 0, uses_anonymous_args = 0
 530              		@ link register save eliminated.
 531              	.LVL20:
 532 0000 7047     		bx	lr
 533              		.cfi_endproc
 534              	.LFE130:
 536 0002 00BF     		.section	.text.EvrRtxThreadNew,"ax",%progbits
 537              		.align	2
 538              		.weak	EvrRtxThreadNew
 539              		.thumb
 540              		.thumb_func
 542              	EvrRtxThreadNew:
 543              	.LFB131:
 530:/usr/local/lib/ARM/CMSIS/5.4.0/CMSIS/RTOS2/RTX/Source/rtx_evr.c **** #if defined(RTE_Compiler_EventRecorder)
 531:/usr/local/lib/ARM/CMSIS/5.4.0/CMSIS/RTOS2/RTX/Source/rtx_evr.c ****   (void)EventRecord2(EvtRtxThreadError, (uint32_t)thread_id, (uint32_t)status);
 532:/usr/local/lib/ARM/CMSIS/5.4.0/CMSIS/RTOS2/RTX/Source/rtx_evr.c **** #else
 533:/usr/local/lib/ARM/CMSIS/5.4.0/CMSIS/RTOS2/RTX/Source/rtx_evr.c ****   (void)thread_id;
 534:/usr/local/lib/ARM/CMSIS/5.4.0/CMSIS/RTOS2/RTX/Source/rtx_evr.c ****   (void)status;
 535:/usr/local/lib/ARM/CMSIS/5.4.0/CMSIS/RTOS2/RTX/Source/rtx_evr.c **** #endif
 536:/usr/local/lib/ARM/CMSIS/5.4.0/CMSIS/RTOS2/RTX/Source/rtx_evr.c **** }
 537:/usr/local/lib/ARM/CMSIS/5.4.0/CMSIS/RTOS2/RTX/Source/rtx_evr.c **** #endif
 538:/usr/local/lib/ARM/CMSIS/5.4.0/CMSIS/RTOS2/RTX/Source/rtx_evr.c **** 
 539:/usr/local/lib/ARM/CMSIS/5.4.0/CMSIS/RTOS2/RTX/Source/rtx_evr.c **** #if (!defined(EVR_RTX_DISABLE) && (OS_EVR_THREAD != 0) && !defined(EVR_RTX_THREAD_NEW_DISABLE))
 540:/usr/local/lib/ARM/CMSIS/5.4.0/CMSIS/RTOS2/RTX/Source/rtx_evr.c **** __WEAK void EvrRtxThreadNew (osThreadFunc_t func, void *argument, const osThreadAttr_t *attr) {
 544              		.loc 1 540 0
 545              		.cfi_startproc
ARM GAS  /tmp/ccrysPfs.s 			page 19


 546              		@ args = 0, pretend = 0, frame = 0
 547              		@ frame_needed = 0, uses_anonymous_args = 0
 548              		@ link register save eliminated.
 549              	.LVL21:
 550 0000 7047     		bx	lr
 551              		.cfi_endproc
 552              	.LFE131:
 554 0002 00BF     		.section	.text.EvrRtxThreadCreated,"ax",%progbits
 555              		.align	2
 556              		.weak	EvrRtxThreadCreated
 557              		.thumb
 558              		.thumb_func
 560              	EvrRtxThreadCreated:
 561              	.LFB132:
 541:/usr/local/lib/ARM/CMSIS/5.4.0/CMSIS/RTOS2/RTX/Source/rtx_evr.c **** #if defined(RTE_Compiler_EventRecorder)
 542:/usr/local/lib/ARM/CMSIS/5.4.0/CMSIS/RTOS2/RTX/Source/rtx_evr.c ****   (void)EventRecord4(EvtRtxThreadNew, (uint32_t)func, (uint32_t)argument, (uint32_t)attr, 0U);
 543:/usr/local/lib/ARM/CMSIS/5.4.0/CMSIS/RTOS2/RTX/Source/rtx_evr.c ****   if (attr != NULL) {
 544:/usr/local/lib/ARM/CMSIS/5.4.0/CMSIS/RTOS2/RTX/Source/rtx_evr.c ****     (void)EventRecordData(EvtRtxThreadNew_Detail, attr, sizeof (osThreadAttr_t));
 545:/usr/local/lib/ARM/CMSIS/5.4.0/CMSIS/RTOS2/RTX/Source/rtx_evr.c ****   }
 546:/usr/local/lib/ARM/CMSIS/5.4.0/CMSIS/RTOS2/RTX/Source/rtx_evr.c **** #else
 547:/usr/local/lib/ARM/CMSIS/5.4.0/CMSIS/RTOS2/RTX/Source/rtx_evr.c ****   (void)func;
 548:/usr/local/lib/ARM/CMSIS/5.4.0/CMSIS/RTOS2/RTX/Source/rtx_evr.c ****   (void)argument;
 549:/usr/local/lib/ARM/CMSIS/5.4.0/CMSIS/RTOS2/RTX/Source/rtx_evr.c ****   (void)attr;
 550:/usr/local/lib/ARM/CMSIS/5.4.0/CMSIS/RTOS2/RTX/Source/rtx_evr.c **** #endif
 551:/usr/local/lib/ARM/CMSIS/5.4.0/CMSIS/RTOS2/RTX/Source/rtx_evr.c **** }
 552:/usr/local/lib/ARM/CMSIS/5.4.0/CMSIS/RTOS2/RTX/Source/rtx_evr.c **** #endif
 553:/usr/local/lib/ARM/CMSIS/5.4.0/CMSIS/RTOS2/RTX/Source/rtx_evr.c **** 
 554:/usr/local/lib/ARM/CMSIS/5.4.0/CMSIS/RTOS2/RTX/Source/rtx_evr.c **** #if (!defined(EVR_RTX_DISABLE) && (OS_EVR_THREAD != 0) && !defined(EVR_RTX_THREAD_CREATED_DISABLE))
 555:/usr/local/lib/ARM/CMSIS/5.4.0/CMSIS/RTOS2/RTX/Source/rtx_evr.c **** __WEAK void EvrRtxThreadCreated (osThreadId_t thread_id, uint32_t thread_addr, const char *name) {
 562              		.loc 1 555 0
 563              		.cfi_startproc
 564              		@ args = 0, pretend = 0, frame = 0
 565              		@ frame_needed = 0, uses_anonymous_args = 0
 566              		@ link register save eliminated.
 567              	.LVL22:
 568 0000 7047     		bx	lr
 569              		.cfi_endproc
 570              	.LFE132:
 572 0002 00BF     		.section	.text.EvrRtxThreadGetName,"ax",%progbits
 573              		.align	2
 574              		.weak	EvrRtxThreadGetName
 575              		.thumb
 576              		.thumb_func
 578              	EvrRtxThreadGetName:
 579              	.LFB133:
 556:/usr/local/lib/ARM/CMSIS/5.4.0/CMSIS/RTOS2/RTX/Source/rtx_evr.c **** #if defined(RTE_Compiler_EventRecorder)
 557:/usr/local/lib/ARM/CMSIS/5.4.0/CMSIS/RTOS2/RTX/Source/rtx_evr.c ****   if (name != NULL) {
 558:/usr/local/lib/ARM/CMSIS/5.4.0/CMSIS/RTOS2/RTX/Source/rtx_evr.c ****     (void)EventRecord2(EvtRtxThreadCreated_Name, (uint32_t)thread_id, (uint32_t)name);
 559:/usr/local/lib/ARM/CMSIS/5.4.0/CMSIS/RTOS2/RTX/Source/rtx_evr.c ****   } else {
 560:/usr/local/lib/ARM/CMSIS/5.4.0/CMSIS/RTOS2/RTX/Source/rtx_evr.c ****     (void)EventRecord2(EvtRtxThreadCreated_Addr, (uint32_t)thread_id, thread_addr);
 561:/usr/local/lib/ARM/CMSIS/5.4.0/CMSIS/RTOS2/RTX/Source/rtx_evr.c ****   }
 562:/usr/local/lib/ARM/CMSIS/5.4.0/CMSIS/RTOS2/RTX/Source/rtx_evr.c **** #else
 563:/usr/local/lib/ARM/CMSIS/5.4.0/CMSIS/RTOS2/RTX/Source/rtx_evr.c ****   (void)thread_id;
 564:/usr/local/lib/ARM/CMSIS/5.4.0/CMSIS/RTOS2/RTX/Source/rtx_evr.c ****   (void)thread_addr;
 565:/usr/local/lib/ARM/CMSIS/5.4.0/CMSIS/RTOS2/RTX/Source/rtx_evr.c ****   (void)name;
 566:/usr/local/lib/ARM/CMSIS/5.4.0/CMSIS/RTOS2/RTX/Source/rtx_evr.c **** #endif
 567:/usr/local/lib/ARM/CMSIS/5.4.0/CMSIS/RTOS2/RTX/Source/rtx_evr.c **** }
ARM GAS  /tmp/ccrysPfs.s 			page 20


 568:/usr/local/lib/ARM/CMSIS/5.4.0/CMSIS/RTOS2/RTX/Source/rtx_evr.c **** #endif
 569:/usr/local/lib/ARM/CMSIS/5.4.0/CMSIS/RTOS2/RTX/Source/rtx_evr.c **** 
 570:/usr/local/lib/ARM/CMSIS/5.4.0/CMSIS/RTOS2/RTX/Source/rtx_evr.c **** #if (!defined(EVR_RTX_DISABLE) && (OS_EVR_THREAD != 0) && !defined(EVR_RTX_THREAD_GET_NAME_DISABLE)
 571:/usr/local/lib/ARM/CMSIS/5.4.0/CMSIS/RTOS2/RTX/Source/rtx_evr.c **** __WEAK void EvrRtxThreadGetName (osThreadId_t thread_id, const char *name) {
 580              		.loc 1 571 0
 581              		.cfi_startproc
 582              		@ args = 0, pretend = 0, frame = 0
 583              		@ frame_needed = 0, uses_anonymous_args = 0
 584              		@ link register save eliminated.
 585              	.LVL23:
 586 0000 7047     		bx	lr
 587              		.cfi_endproc
 588              	.LFE133:
 590 0002 00BF     		.section	.text.EvrRtxThreadGetId,"ax",%progbits
 591              		.align	2
 592              		.weak	EvrRtxThreadGetId
 593              		.thumb
 594              		.thumb_func
 596              	EvrRtxThreadGetId:
 597              	.LFB134:
 572:/usr/local/lib/ARM/CMSIS/5.4.0/CMSIS/RTOS2/RTX/Source/rtx_evr.c **** #if defined(RTE_Compiler_EventRecorder)
 573:/usr/local/lib/ARM/CMSIS/5.4.0/CMSIS/RTOS2/RTX/Source/rtx_evr.c ****   (void)EventRecord2(EvtRtxThreadGetName, (uint32_t)thread_id, (uint32_t)name);
 574:/usr/local/lib/ARM/CMSIS/5.4.0/CMSIS/RTOS2/RTX/Source/rtx_evr.c **** #else
 575:/usr/local/lib/ARM/CMSIS/5.4.0/CMSIS/RTOS2/RTX/Source/rtx_evr.c ****   (void)thread_id;
 576:/usr/local/lib/ARM/CMSIS/5.4.0/CMSIS/RTOS2/RTX/Source/rtx_evr.c ****   (void)name;
 577:/usr/local/lib/ARM/CMSIS/5.4.0/CMSIS/RTOS2/RTX/Source/rtx_evr.c **** #endif
 578:/usr/local/lib/ARM/CMSIS/5.4.0/CMSIS/RTOS2/RTX/Source/rtx_evr.c **** }
 579:/usr/local/lib/ARM/CMSIS/5.4.0/CMSIS/RTOS2/RTX/Source/rtx_evr.c **** #endif
 580:/usr/local/lib/ARM/CMSIS/5.4.0/CMSIS/RTOS2/RTX/Source/rtx_evr.c **** 
 581:/usr/local/lib/ARM/CMSIS/5.4.0/CMSIS/RTOS2/RTX/Source/rtx_evr.c **** #if (!defined(EVR_RTX_DISABLE) && (OS_EVR_THREAD != 0) && !defined(EVR_RTX_THREAD_GET_ID_DISABLE))
 582:/usr/local/lib/ARM/CMSIS/5.4.0/CMSIS/RTOS2/RTX/Source/rtx_evr.c **** __WEAK void EvrRtxThreadGetId (osThreadId_t thread_id) {
 598              		.loc 1 582 0
 599              		.cfi_startproc
 600              		@ args = 0, pretend = 0, frame = 0
 601              		@ frame_needed = 0, uses_anonymous_args = 0
 602              		@ link register save eliminated.
 603              	.LVL24:
 604 0000 7047     		bx	lr
 605              		.cfi_endproc
 606              	.LFE134:
 608 0002 00BF     		.section	.text.EvrRtxThreadGetState,"ax",%progbits
 609              		.align	2
 610              		.weak	EvrRtxThreadGetState
 611              		.thumb
 612              		.thumb_func
 614              	EvrRtxThreadGetState:
 615              	.LFB135:
 583:/usr/local/lib/ARM/CMSIS/5.4.0/CMSIS/RTOS2/RTX/Source/rtx_evr.c **** #if defined(RTE_Compiler_EventRecorder)
 584:/usr/local/lib/ARM/CMSIS/5.4.0/CMSIS/RTOS2/RTX/Source/rtx_evr.c ****   (void)EventRecord2(EvtRtxThreadGetId, (uint32_t)thread_id, 0U);
 585:/usr/local/lib/ARM/CMSIS/5.4.0/CMSIS/RTOS2/RTX/Source/rtx_evr.c **** #else
 586:/usr/local/lib/ARM/CMSIS/5.4.0/CMSIS/RTOS2/RTX/Source/rtx_evr.c ****   (void)thread_id;
 587:/usr/local/lib/ARM/CMSIS/5.4.0/CMSIS/RTOS2/RTX/Source/rtx_evr.c **** #endif
 588:/usr/local/lib/ARM/CMSIS/5.4.0/CMSIS/RTOS2/RTX/Source/rtx_evr.c **** }
 589:/usr/local/lib/ARM/CMSIS/5.4.0/CMSIS/RTOS2/RTX/Source/rtx_evr.c **** #endif
 590:/usr/local/lib/ARM/CMSIS/5.4.0/CMSIS/RTOS2/RTX/Source/rtx_evr.c **** 
 591:/usr/local/lib/ARM/CMSIS/5.4.0/CMSIS/RTOS2/RTX/Source/rtx_evr.c **** #if (!defined(EVR_RTX_DISABLE) && (OS_EVR_THREAD != 0) && !defined(EVR_RTX_THREAD_GET_STATE_DISABLE
 592:/usr/local/lib/ARM/CMSIS/5.4.0/CMSIS/RTOS2/RTX/Source/rtx_evr.c **** __WEAK void EvrRtxThreadGetState (osThreadId_t thread_id, osThreadState_t state) {
ARM GAS  /tmp/ccrysPfs.s 			page 21


 616              		.loc 1 592 0
 617              		.cfi_startproc
 618              		@ args = 0, pretend = 0, frame = 0
 619              		@ frame_needed = 0, uses_anonymous_args = 0
 620              		@ link register save eliminated.
 621              	.LVL25:
 622 0000 7047     		bx	lr
 623              		.cfi_endproc
 624              	.LFE135:
 626 0002 00BF     		.section	.text.EvrRtxThreadGetStackSize,"ax",%progbits
 627              		.align	2
 628              		.weak	EvrRtxThreadGetStackSize
 629              		.thumb
 630              		.thumb_func
 632              	EvrRtxThreadGetStackSize:
 633              	.LFB136:
 593:/usr/local/lib/ARM/CMSIS/5.4.0/CMSIS/RTOS2/RTX/Source/rtx_evr.c **** #if defined(RTE_Compiler_EventRecorder)
 594:/usr/local/lib/ARM/CMSIS/5.4.0/CMSIS/RTOS2/RTX/Source/rtx_evr.c ****   (void)EventRecord2(EvtRtxThreadGetState, (uint32_t)thread_id, (uint32_t)state);
 595:/usr/local/lib/ARM/CMSIS/5.4.0/CMSIS/RTOS2/RTX/Source/rtx_evr.c **** #else
 596:/usr/local/lib/ARM/CMSIS/5.4.0/CMSIS/RTOS2/RTX/Source/rtx_evr.c ****   (void)thread_id;
 597:/usr/local/lib/ARM/CMSIS/5.4.0/CMSIS/RTOS2/RTX/Source/rtx_evr.c ****   (void)state;
 598:/usr/local/lib/ARM/CMSIS/5.4.0/CMSIS/RTOS2/RTX/Source/rtx_evr.c **** #endif
 599:/usr/local/lib/ARM/CMSIS/5.4.0/CMSIS/RTOS2/RTX/Source/rtx_evr.c **** }
 600:/usr/local/lib/ARM/CMSIS/5.4.0/CMSIS/RTOS2/RTX/Source/rtx_evr.c **** #endif
 601:/usr/local/lib/ARM/CMSIS/5.4.0/CMSIS/RTOS2/RTX/Source/rtx_evr.c **** 
 602:/usr/local/lib/ARM/CMSIS/5.4.0/CMSIS/RTOS2/RTX/Source/rtx_evr.c **** #if (!defined(EVR_RTX_DISABLE) && (OS_EVR_THREAD != 0) && !defined(EVR_RTX_THREAD_GET_STACK_SIZE_DI
 603:/usr/local/lib/ARM/CMSIS/5.4.0/CMSIS/RTOS2/RTX/Source/rtx_evr.c **** __WEAK void EvrRtxThreadGetStackSize (osThreadId_t thread_id, uint32_t stack_size) {
 634              		.loc 1 603 0
 635              		.cfi_startproc
 636              		@ args = 0, pretend = 0, frame = 0
 637              		@ frame_needed = 0, uses_anonymous_args = 0
 638              		@ link register save eliminated.
 639              	.LVL26:
 640 0000 7047     		bx	lr
 641              		.cfi_endproc
 642              	.LFE136:
 644 0002 00BF     		.section	.text.EvrRtxThreadGetStackSpace,"ax",%progbits
 645              		.align	2
 646              		.weak	EvrRtxThreadGetStackSpace
 647              		.thumb
 648              		.thumb_func
 650              	EvrRtxThreadGetStackSpace:
 651              	.LFB137:
 604:/usr/local/lib/ARM/CMSIS/5.4.0/CMSIS/RTOS2/RTX/Source/rtx_evr.c **** #if defined(RTE_Compiler_EventRecorder)
 605:/usr/local/lib/ARM/CMSIS/5.4.0/CMSIS/RTOS2/RTX/Source/rtx_evr.c ****   (void)EventRecord2(EvtRtxThreadGetStackSize, (uint32_t)thread_id, stack_size);
 606:/usr/local/lib/ARM/CMSIS/5.4.0/CMSIS/RTOS2/RTX/Source/rtx_evr.c **** #else
 607:/usr/local/lib/ARM/CMSIS/5.4.0/CMSIS/RTOS2/RTX/Source/rtx_evr.c ****   (void)thread_id;
 608:/usr/local/lib/ARM/CMSIS/5.4.0/CMSIS/RTOS2/RTX/Source/rtx_evr.c ****   (void)stack_size;
 609:/usr/local/lib/ARM/CMSIS/5.4.0/CMSIS/RTOS2/RTX/Source/rtx_evr.c **** #endif
 610:/usr/local/lib/ARM/CMSIS/5.4.0/CMSIS/RTOS2/RTX/Source/rtx_evr.c **** }
 611:/usr/local/lib/ARM/CMSIS/5.4.0/CMSIS/RTOS2/RTX/Source/rtx_evr.c **** #endif
 612:/usr/local/lib/ARM/CMSIS/5.4.0/CMSIS/RTOS2/RTX/Source/rtx_evr.c **** 
 613:/usr/local/lib/ARM/CMSIS/5.4.0/CMSIS/RTOS2/RTX/Source/rtx_evr.c **** #if (!defined(EVR_RTX_DISABLE) && (OS_EVR_THREAD != 0) && !defined(EVR_RTX_THREAD_GET_STACK_SPACE_D
 614:/usr/local/lib/ARM/CMSIS/5.4.0/CMSIS/RTOS2/RTX/Source/rtx_evr.c **** __WEAK void EvrRtxThreadGetStackSpace (osThreadId_t thread_id, uint32_t stack_space) {
 652              		.loc 1 614 0
 653              		.cfi_startproc
 654              		@ args = 0, pretend = 0, frame = 0
ARM GAS  /tmp/ccrysPfs.s 			page 22


 655              		@ frame_needed = 0, uses_anonymous_args = 0
 656              		@ link register save eliminated.
 657              	.LVL27:
 658 0000 7047     		bx	lr
 659              		.cfi_endproc
 660              	.LFE137:
 662 0002 00BF     		.section	.text.EvrRtxThreadSetPriority,"ax",%progbits
 663              		.align	2
 664              		.weak	EvrRtxThreadSetPriority
 665              		.thumb
 666              		.thumb_func
 668              	EvrRtxThreadSetPriority:
 669              	.LFB138:
 615:/usr/local/lib/ARM/CMSIS/5.4.0/CMSIS/RTOS2/RTX/Source/rtx_evr.c **** #if defined(RTE_Compiler_EventRecorder)
 616:/usr/local/lib/ARM/CMSIS/5.4.0/CMSIS/RTOS2/RTX/Source/rtx_evr.c ****   (void)EventRecord2(EvtRtxThreadGetStackSpace, (uint32_t)thread_id, stack_space);
 617:/usr/local/lib/ARM/CMSIS/5.4.0/CMSIS/RTOS2/RTX/Source/rtx_evr.c **** #else
 618:/usr/local/lib/ARM/CMSIS/5.4.0/CMSIS/RTOS2/RTX/Source/rtx_evr.c ****   (void)thread_id;
 619:/usr/local/lib/ARM/CMSIS/5.4.0/CMSIS/RTOS2/RTX/Source/rtx_evr.c ****   (void)stack_space;
 620:/usr/local/lib/ARM/CMSIS/5.4.0/CMSIS/RTOS2/RTX/Source/rtx_evr.c **** #endif
 621:/usr/local/lib/ARM/CMSIS/5.4.0/CMSIS/RTOS2/RTX/Source/rtx_evr.c **** }
 622:/usr/local/lib/ARM/CMSIS/5.4.0/CMSIS/RTOS2/RTX/Source/rtx_evr.c **** #endif
 623:/usr/local/lib/ARM/CMSIS/5.4.0/CMSIS/RTOS2/RTX/Source/rtx_evr.c **** 
 624:/usr/local/lib/ARM/CMSIS/5.4.0/CMSIS/RTOS2/RTX/Source/rtx_evr.c **** #if (!defined(EVR_RTX_DISABLE) && (OS_EVR_THREAD != 0) && !defined(EVR_RTX_THREAD_SET_PRIORITY_DISA
 625:/usr/local/lib/ARM/CMSIS/5.4.0/CMSIS/RTOS2/RTX/Source/rtx_evr.c **** __WEAK void EvrRtxThreadSetPriority (osThreadId_t thread_id, osPriority_t priority) {
 670              		.loc 1 625 0
 671              		.cfi_startproc
 672              		@ args = 0, pretend = 0, frame = 0
 673              		@ frame_needed = 0, uses_anonymous_args = 0
 674              		@ link register save eliminated.
 675              	.LVL28:
 676 0000 7047     		bx	lr
 677              		.cfi_endproc
 678              	.LFE138:
 680 0002 00BF     		.section	.text.EvrRtxThreadGetPriority,"ax",%progbits
 681              		.align	2
 682              		.weak	EvrRtxThreadGetPriority
 683              		.thumb
 684              		.thumb_func
 686              	EvrRtxThreadGetPriority:
 687              	.LFB139:
 626:/usr/local/lib/ARM/CMSIS/5.4.0/CMSIS/RTOS2/RTX/Source/rtx_evr.c **** #if defined(RTE_Compiler_EventRecorder)
 627:/usr/local/lib/ARM/CMSIS/5.4.0/CMSIS/RTOS2/RTX/Source/rtx_evr.c ****   (void)EventRecord2(EvtRtxThreadSetPriority, (uint32_t)thread_id, (uint32_t)priority);
 628:/usr/local/lib/ARM/CMSIS/5.4.0/CMSIS/RTOS2/RTX/Source/rtx_evr.c **** #else
 629:/usr/local/lib/ARM/CMSIS/5.4.0/CMSIS/RTOS2/RTX/Source/rtx_evr.c ****   (void)thread_id;
 630:/usr/local/lib/ARM/CMSIS/5.4.0/CMSIS/RTOS2/RTX/Source/rtx_evr.c ****   (void)priority;
 631:/usr/local/lib/ARM/CMSIS/5.4.0/CMSIS/RTOS2/RTX/Source/rtx_evr.c **** #endif
 632:/usr/local/lib/ARM/CMSIS/5.4.0/CMSIS/RTOS2/RTX/Source/rtx_evr.c **** }
 633:/usr/local/lib/ARM/CMSIS/5.4.0/CMSIS/RTOS2/RTX/Source/rtx_evr.c **** #endif
 634:/usr/local/lib/ARM/CMSIS/5.4.0/CMSIS/RTOS2/RTX/Source/rtx_evr.c **** 
 635:/usr/local/lib/ARM/CMSIS/5.4.0/CMSIS/RTOS2/RTX/Source/rtx_evr.c **** #if (!defined(EVR_RTX_DISABLE) && (OS_EVR_THREAD != 0) && !defined(EVR_RTX_THREAD_GET_PRIORITY_DISA
 636:/usr/local/lib/ARM/CMSIS/5.4.0/CMSIS/RTOS2/RTX/Source/rtx_evr.c **** __WEAK void EvrRtxThreadGetPriority (osThreadId_t thread_id, osPriority_t priority) {
 688              		.loc 1 636 0
 689              		.cfi_startproc
 690              		@ args = 0, pretend = 0, frame = 0
 691              		@ frame_needed = 0, uses_anonymous_args = 0
 692              		@ link register save eliminated.
 693              	.LVL29:
ARM GAS  /tmp/ccrysPfs.s 			page 23


 694 0000 7047     		bx	lr
 695              		.cfi_endproc
 696              	.LFE139:
 698 0002 00BF     		.section	.text.EvrRtxThreadYield,"ax",%progbits
 699              		.align	2
 700              		.weak	EvrRtxThreadYield
 701              		.thumb
 702              		.thumb_func
 704              	EvrRtxThreadYield:
 705              	.LFB140:
 637:/usr/local/lib/ARM/CMSIS/5.4.0/CMSIS/RTOS2/RTX/Source/rtx_evr.c **** #if defined(RTE_Compiler_EventRecorder)
 638:/usr/local/lib/ARM/CMSIS/5.4.0/CMSIS/RTOS2/RTX/Source/rtx_evr.c ****   (void)EventRecord2(EvtRtxThreadGetPriority, (uint32_t)thread_id, (uint32_t)priority);
 639:/usr/local/lib/ARM/CMSIS/5.4.0/CMSIS/RTOS2/RTX/Source/rtx_evr.c **** #else
 640:/usr/local/lib/ARM/CMSIS/5.4.0/CMSIS/RTOS2/RTX/Source/rtx_evr.c ****   (void)thread_id;
 641:/usr/local/lib/ARM/CMSIS/5.4.0/CMSIS/RTOS2/RTX/Source/rtx_evr.c ****   (void)priority;
 642:/usr/local/lib/ARM/CMSIS/5.4.0/CMSIS/RTOS2/RTX/Source/rtx_evr.c **** #endif
 643:/usr/local/lib/ARM/CMSIS/5.4.0/CMSIS/RTOS2/RTX/Source/rtx_evr.c **** }
 644:/usr/local/lib/ARM/CMSIS/5.4.0/CMSIS/RTOS2/RTX/Source/rtx_evr.c **** #endif
 645:/usr/local/lib/ARM/CMSIS/5.4.0/CMSIS/RTOS2/RTX/Source/rtx_evr.c **** 
 646:/usr/local/lib/ARM/CMSIS/5.4.0/CMSIS/RTOS2/RTX/Source/rtx_evr.c **** #if (!defined(EVR_RTX_DISABLE) && (OS_EVR_THREAD != 0) && !defined(EVR_RTX_THREAD_YIELD_DISABLE))
 647:/usr/local/lib/ARM/CMSIS/5.4.0/CMSIS/RTOS2/RTX/Source/rtx_evr.c **** __WEAK void EvrRtxThreadYield (void) {
 706              		.loc 1 647 0
 707              		.cfi_startproc
 708              		@ args = 0, pretend = 0, frame = 0
 709              		@ frame_needed = 0, uses_anonymous_args = 0
 710              		@ link register save eliminated.
 711 0000 7047     		bx	lr
 712              		.cfi_endproc
 713              	.LFE140:
 715 0002 00BF     		.section	.text.EvrRtxThreadSuspend,"ax",%progbits
 716              		.align	2
 717              		.weak	EvrRtxThreadSuspend
 718              		.thumb
 719              		.thumb_func
 721              	EvrRtxThreadSuspend:
 722              	.LFB141:
 648:/usr/local/lib/ARM/CMSIS/5.4.0/CMSIS/RTOS2/RTX/Source/rtx_evr.c **** #if defined(RTE_Compiler_EventRecorder)
 649:/usr/local/lib/ARM/CMSIS/5.4.0/CMSIS/RTOS2/RTX/Source/rtx_evr.c ****   (void)EventRecord2(EvtRtxThreadYield, 0U, 0U);
 650:/usr/local/lib/ARM/CMSIS/5.4.0/CMSIS/RTOS2/RTX/Source/rtx_evr.c **** #else
 651:/usr/local/lib/ARM/CMSIS/5.4.0/CMSIS/RTOS2/RTX/Source/rtx_evr.c **** #endif
 652:/usr/local/lib/ARM/CMSIS/5.4.0/CMSIS/RTOS2/RTX/Source/rtx_evr.c **** }
 653:/usr/local/lib/ARM/CMSIS/5.4.0/CMSIS/RTOS2/RTX/Source/rtx_evr.c **** #endif
 654:/usr/local/lib/ARM/CMSIS/5.4.0/CMSIS/RTOS2/RTX/Source/rtx_evr.c **** 
 655:/usr/local/lib/ARM/CMSIS/5.4.0/CMSIS/RTOS2/RTX/Source/rtx_evr.c **** #if (!defined(EVR_RTX_DISABLE) && (OS_EVR_THREAD != 0) && !defined(EVR_RTX_THREAD_SUSPEND_DISABLE))
 656:/usr/local/lib/ARM/CMSIS/5.4.0/CMSIS/RTOS2/RTX/Source/rtx_evr.c **** __WEAK void EvrRtxThreadSuspend (osThreadId_t thread_id) {
 723              		.loc 1 656 0
 724              		.cfi_startproc
 725              		@ args = 0, pretend = 0, frame = 0
 726              		@ frame_needed = 0, uses_anonymous_args = 0
 727              		@ link register save eliminated.
 728              	.LVL30:
 729 0000 7047     		bx	lr
 730              		.cfi_endproc
 731              	.LFE141:
 733 0002 00BF     		.section	.text.EvrRtxThreadSuspended,"ax",%progbits
 734              		.align	2
 735              		.weak	EvrRtxThreadSuspended
ARM GAS  /tmp/ccrysPfs.s 			page 24


 736              		.thumb
 737              		.thumb_func
 739              	EvrRtxThreadSuspended:
 740              	.LFB142:
 657:/usr/local/lib/ARM/CMSIS/5.4.0/CMSIS/RTOS2/RTX/Source/rtx_evr.c **** #if defined(RTE_Compiler_EventRecorder)
 658:/usr/local/lib/ARM/CMSIS/5.4.0/CMSIS/RTOS2/RTX/Source/rtx_evr.c ****   (void)EventRecord2(EvtRtxThreadSuspend, (uint32_t)thread_id, 0U);
 659:/usr/local/lib/ARM/CMSIS/5.4.0/CMSIS/RTOS2/RTX/Source/rtx_evr.c **** #else
 660:/usr/local/lib/ARM/CMSIS/5.4.0/CMSIS/RTOS2/RTX/Source/rtx_evr.c ****   (void)thread_id;
 661:/usr/local/lib/ARM/CMSIS/5.4.0/CMSIS/RTOS2/RTX/Source/rtx_evr.c **** #endif
 662:/usr/local/lib/ARM/CMSIS/5.4.0/CMSIS/RTOS2/RTX/Source/rtx_evr.c **** }
 663:/usr/local/lib/ARM/CMSIS/5.4.0/CMSIS/RTOS2/RTX/Source/rtx_evr.c **** #endif
 664:/usr/local/lib/ARM/CMSIS/5.4.0/CMSIS/RTOS2/RTX/Source/rtx_evr.c **** 
 665:/usr/local/lib/ARM/CMSIS/5.4.0/CMSIS/RTOS2/RTX/Source/rtx_evr.c **** #if (!defined(EVR_RTX_DISABLE) && (OS_EVR_THREAD != 0) && !defined(EVR_RTX_THREAD_SUSPENDED_DISABLE
 666:/usr/local/lib/ARM/CMSIS/5.4.0/CMSIS/RTOS2/RTX/Source/rtx_evr.c **** __WEAK void EvrRtxThreadSuspended (osThreadId_t thread_id) {
 741              		.loc 1 666 0
 742              		.cfi_startproc
 743              		@ args = 0, pretend = 0, frame = 0
 744              		@ frame_needed = 0, uses_anonymous_args = 0
 745              		@ link register save eliminated.
 746              	.LVL31:
 747 0000 7047     		bx	lr
 748              		.cfi_endproc
 749              	.LFE142:
 751 0002 00BF     		.section	.text.EvrRtxThreadResume,"ax",%progbits
 752              		.align	2
 753              		.weak	EvrRtxThreadResume
 754              		.thumb
 755              		.thumb_func
 757              	EvrRtxThreadResume:
 758              	.LFB143:
 667:/usr/local/lib/ARM/CMSIS/5.4.0/CMSIS/RTOS2/RTX/Source/rtx_evr.c **** #if defined(RTE_Compiler_EventRecorder)
 668:/usr/local/lib/ARM/CMSIS/5.4.0/CMSIS/RTOS2/RTX/Source/rtx_evr.c ****   (void)EventRecord2(EvtRtxThreadSuspended, (uint32_t)thread_id, 0U);
 669:/usr/local/lib/ARM/CMSIS/5.4.0/CMSIS/RTOS2/RTX/Source/rtx_evr.c **** #else
 670:/usr/local/lib/ARM/CMSIS/5.4.0/CMSIS/RTOS2/RTX/Source/rtx_evr.c ****   (void)thread_id;
 671:/usr/local/lib/ARM/CMSIS/5.4.0/CMSIS/RTOS2/RTX/Source/rtx_evr.c **** #endif
 672:/usr/local/lib/ARM/CMSIS/5.4.0/CMSIS/RTOS2/RTX/Source/rtx_evr.c **** }
 673:/usr/local/lib/ARM/CMSIS/5.4.0/CMSIS/RTOS2/RTX/Source/rtx_evr.c **** #endif
 674:/usr/local/lib/ARM/CMSIS/5.4.0/CMSIS/RTOS2/RTX/Source/rtx_evr.c **** 
 675:/usr/local/lib/ARM/CMSIS/5.4.0/CMSIS/RTOS2/RTX/Source/rtx_evr.c **** #if (!defined(EVR_RTX_DISABLE) && (OS_EVR_THREAD != 0) && !defined(EVR_RTX_THREAD_RESUME_DISABLE))
 676:/usr/local/lib/ARM/CMSIS/5.4.0/CMSIS/RTOS2/RTX/Source/rtx_evr.c **** __WEAK void EvrRtxThreadResume (osThreadId_t thread_id) {
 759              		.loc 1 676 0
 760              		.cfi_startproc
 761              		@ args = 0, pretend = 0, frame = 0
 762              		@ frame_needed = 0, uses_anonymous_args = 0
 763              		@ link register save eliminated.
 764              	.LVL32:
 765 0000 7047     		bx	lr
 766              		.cfi_endproc
 767              	.LFE143:
 769 0002 00BF     		.section	.text.EvrRtxThreadResumed,"ax",%progbits
 770              		.align	2
 771              		.weak	EvrRtxThreadResumed
 772              		.thumb
 773              		.thumb_func
 775              	EvrRtxThreadResumed:
 776              	.LFB144:
 677:/usr/local/lib/ARM/CMSIS/5.4.0/CMSIS/RTOS2/RTX/Source/rtx_evr.c **** #if defined(RTE_Compiler_EventRecorder)
ARM GAS  /tmp/ccrysPfs.s 			page 25


 678:/usr/local/lib/ARM/CMSIS/5.4.0/CMSIS/RTOS2/RTX/Source/rtx_evr.c ****   (void)EventRecord2(EvtRtxThreadResume, (uint32_t)thread_id, 0U);
 679:/usr/local/lib/ARM/CMSIS/5.4.0/CMSIS/RTOS2/RTX/Source/rtx_evr.c **** #else
 680:/usr/local/lib/ARM/CMSIS/5.4.0/CMSIS/RTOS2/RTX/Source/rtx_evr.c ****   (void)thread_id;
 681:/usr/local/lib/ARM/CMSIS/5.4.0/CMSIS/RTOS2/RTX/Source/rtx_evr.c **** #endif
 682:/usr/local/lib/ARM/CMSIS/5.4.0/CMSIS/RTOS2/RTX/Source/rtx_evr.c **** }
 683:/usr/local/lib/ARM/CMSIS/5.4.0/CMSIS/RTOS2/RTX/Source/rtx_evr.c **** #endif
 684:/usr/local/lib/ARM/CMSIS/5.4.0/CMSIS/RTOS2/RTX/Source/rtx_evr.c **** 
 685:/usr/local/lib/ARM/CMSIS/5.4.0/CMSIS/RTOS2/RTX/Source/rtx_evr.c **** #if (!defined(EVR_RTX_DISABLE) && (OS_EVR_THREAD != 0) && !defined(EVR_RTX_THREAD_RESUMED_DISABLE))
 686:/usr/local/lib/ARM/CMSIS/5.4.0/CMSIS/RTOS2/RTX/Source/rtx_evr.c **** __WEAK void EvrRtxThreadResumed (osThreadId_t thread_id) {
 777              		.loc 1 686 0
 778              		.cfi_startproc
 779              		@ args = 0, pretend = 0, frame = 0
 780              		@ frame_needed = 0, uses_anonymous_args = 0
 781              		@ link register save eliminated.
 782              	.LVL33:
 783 0000 7047     		bx	lr
 784              		.cfi_endproc
 785              	.LFE144:
 787 0002 00BF     		.section	.text.EvrRtxThreadDetach,"ax",%progbits
 788              		.align	2
 789              		.weak	EvrRtxThreadDetach
 790              		.thumb
 791              		.thumb_func
 793              	EvrRtxThreadDetach:
 794              	.LFB145:
 687:/usr/local/lib/ARM/CMSIS/5.4.0/CMSIS/RTOS2/RTX/Source/rtx_evr.c **** #if defined(RTE_Compiler_EventRecorder)
 688:/usr/local/lib/ARM/CMSIS/5.4.0/CMSIS/RTOS2/RTX/Source/rtx_evr.c ****   (void)EventRecord2(EvtRtxThreadResumed, (uint32_t)thread_id, 0U);
 689:/usr/local/lib/ARM/CMSIS/5.4.0/CMSIS/RTOS2/RTX/Source/rtx_evr.c **** #else
 690:/usr/local/lib/ARM/CMSIS/5.4.0/CMSIS/RTOS2/RTX/Source/rtx_evr.c ****   (void)thread_id;
 691:/usr/local/lib/ARM/CMSIS/5.4.0/CMSIS/RTOS2/RTX/Source/rtx_evr.c **** #endif
 692:/usr/local/lib/ARM/CMSIS/5.4.0/CMSIS/RTOS2/RTX/Source/rtx_evr.c **** }
 693:/usr/local/lib/ARM/CMSIS/5.4.0/CMSIS/RTOS2/RTX/Source/rtx_evr.c **** #endif
 694:/usr/local/lib/ARM/CMSIS/5.4.0/CMSIS/RTOS2/RTX/Source/rtx_evr.c **** 
 695:/usr/local/lib/ARM/CMSIS/5.4.0/CMSIS/RTOS2/RTX/Source/rtx_evr.c **** #if (!defined(EVR_RTX_DISABLE) && (OS_EVR_THREAD != 0) && !defined(EVR_RTX_THREAD_DETACH_DISABLE))
 696:/usr/local/lib/ARM/CMSIS/5.4.0/CMSIS/RTOS2/RTX/Source/rtx_evr.c **** __WEAK void EvrRtxThreadDetach (osThreadId_t thread_id) {
 795              		.loc 1 696 0
 796              		.cfi_startproc
 797              		@ args = 0, pretend = 0, frame = 0
 798              		@ frame_needed = 0, uses_anonymous_args = 0
 799              		@ link register save eliminated.
 800              	.LVL34:
 801 0000 7047     		bx	lr
 802              		.cfi_endproc
 803              	.LFE145:
 805 0002 00BF     		.section	.text.EvrRtxThreadDetached,"ax",%progbits
 806              		.align	2
 807              		.weak	EvrRtxThreadDetached
 808              		.thumb
 809              		.thumb_func
 811              	EvrRtxThreadDetached:
 812              	.LFB146:
 697:/usr/local/lib/ARM/CMSIS/5.4.0/CMSIS/RTOS2/RTX/Source/rtx_evr.c **** #if defined(RTE_Compiler_EventRecorder)
 698:/usr/local/lib/ARM/CMSIS/5.4.0/CMSIS/RTOS2/RTX/Source/rtx_evr.c ****   (void)EventRecord2(EvtRtxThreadDetach, (uint32_t)thread_id, 0U);
 699:/usr/local/lib/ARM/CMSIS/5.4.0/CMSIS/RTOS2/RTX/Source/rtx_evr.c **** #else
 700:/usr/local/lib/ARM/CMSIS/5.4.0/CMSIS/RTOS2/RTX/Source/rtx_evr.c ****   (void)thread_id;
 701:/usr/local/lib/ARM/CMSIS/5.4.0/CMSIS/RTOS2/RTX/Source/rtx_evr.c **** #endif
 702:/usr/local/lib/ARM/CMSIS/5.4.0/CMSIS/RTOS2/RTX/Source/rtx_evr.c **** }
ARM GAS  /tmp/ccrysPfs.s 			page 26


 703:/usr/local/lib/ARM/CMSIS/5.4.0/CMSIS/RTOS2/RTX/Source/rtx_evr.c **** #endif
 704:/usr/local/lib/ARM/CMSIS/5.4.0/CMSIS/RTOS2/RTX/Source/rtx_evr.c **** 
 705:/usr/local/lib/ARM/CMSIS/5.4.0/CMSIS/RTOS2/RTX/Source/rtx_evr.c **** #if (!defined(EVR_RTX_DISABLE) && (OS_EVR_THREAD != 0) && !defined(EVR_RTX_THREAD_DETACHED_DISABLE)
 706:/usr/local/lib/ARM/CMSIS/5.4.0/CMSIS/RTOS2/RTX/Source/rtx_evr.c **** __WEAK void EvrRtxThreadDetached (osThreadId_t thread_id) {
 813              		.loc 1 706 0
 814              		.cfi_startproc
 815              		@ args = 0, pretend = 0, frame = 0
 816              		@ frame_needed = 0, uses_anonymous_args = 0
 817              		@ link register save eliminated.
 818              	.LVL35:
 819 0000 7047     		bx	lr
 820              		.cfi_endproc
 821              	.LFE146:
 823 0002 00BF     		.section	.text.EvrRtxThreadJoin,"ax",%progbits
 824              		.align	2
 825              		.weak	EvrRtxThreadJoin
 826              		.thumb
 827              		.thumb_func
 829              	EvrRtxThreadJoin:
 830              	.LFB147:
 707:/usr/local/lib/ARM/CMSIS/5.4.0/CMSIS/RTOS2/RTX/Source/rtx_evr.c **** #if defined(RTE_Compiler_EventRecorder)
 708:/usr/local/lib/ARM/CMSIS/5.4.0/CMSIS/RTOS2/RTX/Source/rtx_evr.c ****   (void)EventRecord2(EvtRtxThreadDetached, (uint32_t)thread_id, 0U);
 709:/usr/local/lib/ARM/CMSIS/5.4.0/CMSIS/RTOS2/RTX/Source/rtx_evr.c **** #else
 710:/usr/local/lib/ARM/CMSIS/5.4.0/CMSIS/RTOS2/RTX/Source/rtx_evr.c ****   (void)thread_id;
 711:/usr/local/lib/ARM/CMSIS/5.4.0/CMSIS/RTOS2/RTX/Source/rtx_evr.c **** #endif
 712:/usr/local/lib/ARM/CMSIS/5.4.0/CMSIS/RTOS2/RTX/Source/rtx_evr.c **** }
 713:/usr/local/lib/ARM/CMSIS/5.4.0/CMSIS/RTOS2/RTX/Source/rtx_evr.c **** #endif
 714:/usr/local/lib/ARM/CMSIS/5.4.0/CMSIS/RTOS2/RTX/Source/rtx_evr.c **** 
 715:/usr/local/lib/ARM/CMSIS/5.4.0/CMSIS/RTOS2/RTX/Source/rtx_evr.c **** #if (!defined(EVR_RTX_DISABLE) && (OS_EVR_THREAD != 0) && !defined(EVR_RTX_THREAD_JOIN_DISABLE))
 716:/usr/local/lib/ARM/CMSIS/5.4.0/CMSIS/RTOS2/RTX/Source/rtx_evr.c **** __WEAK void EvrRtxThreadJoin (osThreadId_t thread_id) {
 831              		.loc 1 716 0
 832              		.cfi_startproc
 833              		@ args = 0, pretend = 0, frame = 0
 834              		@ frame_needed = 0, uses_anonymous_args = 0
 835              		@ link register save eliminated.
 836              	.LVL36:
 837 0000 7047     		bx	lr
 838              		.cfi_endproc
 839              	.LFE147:
 841 0002 00BF     		.section	.text.EvrRtxThreadJoinPending,"ax",%progbits
 842              		.align	2
 843              		.weak	EvrRtxThreadJoinPending
 844              		.thumb
 845              		.thumb_func
 847              	EvrRtxThreadJoinPending:
 848              	.LFB148:
 717:/usr/local/lib/ARM/CMSIS/5.4.0/CMSIS/RTOS2/RTX/Source/rtx_evr.c **** #if defined(RTE_Compiler_EventRecorder)
 718:/usr/local/lib/ARM/CMSIS/5.4.0/CMSIS/RTOS2/RTX/Source/rtx_evr.c ****   (void)EventRecord2(EvtRtxThreadJoin, (uint32_t)thread_id, 0U);
 719:/usr/local/lib/ARM/CMSIS/5.4.0/CMSIS/RTOS2/RTX/Source/rtx_evr.c **** #else
 720:/usr/local/lib/ARM/CMSIS/5.4.0/CMSIS/RTOS2/RTX/Source/rtx_evr.c ****   (void)thread_id;
 721:/usr/local/lib/ARM/CMSIS/5.4.0/CMSIS/RTOS2/RTX/Source/rtx_evr.c **** #endif
 722:/usr/local/lib/ARM/CMSIS/5.4.0/CMSIS/RTOS2/RTX/Source/rtx_evr.c **** }
 723:/usr/local/lib/ARM/CMSIS/5.4.0/CMSIS/RTOS2/RTX/Source/rtx_evr.c **** #endif
 724:/usr/local/lib/ARM/CMSIS/5.4.0/CMSIS/RTOS2/RTX/Source/rtx_evr.c **** 
 725:/usr/local/lib/ARM/CMSIS/5.4.0/CMSIS/RTOS2/RTX/Source/rtx_evr.c **** #if (!defined(EVR_RTX_DISABLE) && (OS_EVR_THREAD != 0) && !defined(EVR_RTX_THREAD_JOIN_PENDING_DISA
 726:/usr/local/lib/ARM/CMSIS/5.4.0/CMSIS/RTOS2/RTX/Source/rtx_evr.c **** __WEAK void EvrRtxThreadJoinPending (osThreadId_t thread_id) {
 849              		.loc 1 726 0
ARM GAS  /tmp/ccrysPfs.s 			page 27


 850              		.cfi_startproc
 851              		@ args = 0, pretend = 0, frame = 0
 852              		@ frame_needed = 0, uses_anonymous_args = 0
 853              		@ link register save eliminated.
 854              	.LVL37:
 855 0000 7047     		bx	lr
 856              		.cfi_endproc
 857              	.LFE148:
 859 0002 00BF     		.section	.text.EvrRtxThreadJoined,"ax",%progbits
 860              		.align	2
 861              		.weak	EvrRtxThreadJoined
 862              		.thumb
 863              		.thumb_func
 865              	EvrRtxThreadJoined:
 866              	.LFB149:
 727:/usr/local/lib/ARM/CMSIS/5.4.0/CMSIS/RTOS2/RTX/Source/rtx_evr.c **** #if defined(RTE_Compiler_EventRecorder)
 728:/usr/local/lib/ARM/CMSIS/5.4.0/CMSIS/RTOS2/RTX/Source/rtx_evr.c ****   (void)EventRecord2(EvtRtxThreadJoinPending, (uint32_t)thread_id, 0U);
 729:/usr/local/lib/ARM/CMSIS/5.4.0/CMSIS/RTOS2/RTX/Source/rtx_evr.c **** #else
 730:/usr/local/lib/ARM/CMSIS/5.4.0/CMSIS/RTOS2/RTX/Source/rtx_evr.c ****   (void)thread_id;
 731:/usr/local/lib/ARM/CMSIS/5.4.0/CMSIS/RTOS2/RTX/Source/rtx_evr.c **** #endif
 732:/usr/local/lib/ARM/CMSIS/5.4.0/CMSIS/RTOS2/RTX/Source/rtx_evr.c **** }
 733:/usr/local/lib/ARM/CMSIS/5.4.0/CMSIS/RTOS2/RTX/Source/rtx_evr.c **** #endif
 734:/usr/local/lib/ARM/CMSIS/5.4.0/CMSIS/RTOS2/RTX/Source/rtx_evr.c **** 
 735:/usr/local/lib/ARM/CMSIS/5.4.0/CMSIS/RTOS2/RTX/Source/rtx_evr.c **** #if (!defined(EVR_RTX_DISABLE) && (OS_EVR_THREAD != 0) && !defined(EVR_RTX_THREAD_JOINED_DISABLE))
 736:/usr/local/lib/ARM/CMSIS/5.4.0/CMSIS/RTOS2/RTX/Source/rtx_evr.c **** __WEAK void EvrRtxThreadJoined (osThreadId_t thread_id) {
 867              		.loc 1 736 0
 868              		.cfi_startproc
 869              		@ args = 0, pretend = 0, frame = 0
 870              		@ frame_needed = 0, uses_anonymous_args = 0
 871              		@ link register save eliminated.
 872              	.LVL38:
 873 0000 7047     		bx	lr
 874              		.cfi_endproc
 875              	.LFE149:
 877 0002 00BF     		.section	.text.EvrRtxThreadBlocked,"ax",%progbits
 878              		.align	2
 879              		.weak	EvrRtxThreadBlocked
 880              		.thumb
 881              		.thumb_func
 883              	EvrRtxThreadBlocked:
 884              	.LFB150:
 737:/usr/local/lib/ARM/CMSIS/5.4.0/CMSIS/RTOS2/RTX/Source/rtx_evr.c **** #if defined(RTE_Compiler_EventRecorder)
 738:/usr/local/lib/ARM/CMSIS/5.4.0/CMSIS/RTOS2/RTX/Source/rtx_evr.c ****   (void)EventRecord2(EvtRtxThreadJoined, (uint32_t)thread_id, 0U);
 739:/usr/local/lib/ARM/CMSIS/5.4.0/CMSIS/RTOS2/RTX/Source/rtx_evr.c **** #else
 740:/usr/local/lib/ARM/CMSIS/5.4.0/CMSIS/RTOS2/RTX/Source/rtx_evr.c ****   (void)thread_id;
 741:/usr/local/lib/ARM/CMSIS/5.4.0/CMSIS/RTOS2/RTX/Source/rtx_evr.c **** #endif
 742:/usr/local/lib/ARM/CMSIS/5.4.0/CMSIS/RTOS2/RTX/Source/rtx_evr.c **** }
 743:/usr/local/lib/ARM/CMSIS/5.4.0/CMSIS/RTOS2/RTX/Source/rtx_evr.c **** #endif
 744:/usr/local/lib/ARM/CMSIS/5.4.0/CMSIS/RTOS2/RTX/Source/rtx_evr.c **** 
 745:/usr/local/lib/ARM/CMSIS/5.4.0/CMSIS/RTOS2/RTX/Source/rtx_evr.c **** #if (!defined(EVR_RTX_DISABLE) && (OS_EVR_THREAD != 0) && !defined(EVR_RTX_THREAD_BLOCKED_DISABLE))
 746:/usr/local/lib/ARM/CMSIS/5.4.0/CMSIS/RTOS2/RTX/Source/rtx_evr.c **** __WEAK void EvrRtxThreadBlocked (osThreadId_t thread_id, uint32_t timeout) {
 885              		.loc 1 746 0
 886              		.cfi_startproc
 887              		@ args = 0, pretend = 0, frame = 0
 888              		@ frame_needed = 0, uses_anonymous_args = 0
 889              		@ link register save eliminated.
 890              	.LVL39:
ARM GAS  /tmp/ccrysPfs.s 			page 28


 891 0000 7047     		bx	lr
 892              		.cfi_endproc
 893              	.LFE150:
 895 0002 00BF     		.section	.text.EvrRtxThreadUnblocked,"ax",%progbits
 896              		.align	2
 897              		.weak	EvrRtxThreadUnblocked
 898              		.thumb
 899              		.thumb_func
 901              	EvrRtxThreadUnblocked:
 902              	.LFB151:
 747:/usr/local/lib/ARM/CMSIS/5.4.0/CMSIS/RTOS2/RTX/Source/rtx_evr.c **** #if defined(RTE_Compiler_EventRecorder)
 748:/usr/local/lib/ARM/CMSIS/5.4.0/CMSIS/RTOS2/RTX/Source/rtx_evr.c ****   (void)EventRecord2(EvtRtxThreadBlocked, (uint32_t)thread_id, timeout);
 749:/usr/local/lib/ARM/CMSIS/5.4.0/CMSIS/RTOS2/RTX/Source/rtx_evr.c **** #else
 750:/usr/local/lib/ARM/CMSIS/5.4.0/CMSIS/RTOS2/RTX/Source/rtx_evr.c ****   (void)thread_id;
 751:/usr/local/lib/ARM/CMSIS/5.4.0/CMSIS/RTOS2/RTX/Source/rtx_evr.c ****   (void)timeout;
 752:/usr/local/lib/ARM/CMSIS/5.4.0/CMSIS/RTOS2/RTX/Source/rtx_evr.c **** #endif
 753:/usr/local/lib/ARM/CMSIS/5.4.0/CMSIS/RTOS2/RTX/Source/rtx_evr.c **** }
 754:/usr/local/lib/ARM/CMSIS/5.4.0/CMSIS/RTOS2/RTX/Source/rtx_evr.c **** #endif
 755:/usr/local/lib/ARM/CMSIS/5.4.0/CMSIS/RTOS2/RTX/Source/rtx_evr.c **** 
 756:/usr/local/lib/ARM/CMSIS/5.4.0/CMSIS/RTOS2/RTX/Source/rtx_evr.c **** #if (!defined(EVR_RTX_DISABLE) && (OS_EVR_THREAD != 0) && !defined(EVR_RTX_THREAD_UNBLOCKED_DISABLE
 757:/usr/local/lib/ARM/CMSIS/5.4.0/CMSIS/RTOS2/RTX/Source/rtx_evr.c **** __WEAK void EvrRtxThreadUnblocked (osThreadId_t thread_id, uint32_t ret_val) {
 903              		.loc 1 757 0
 904              		.cfi_startproc
 905              		@ args = 0, pretend = 0, frame = 0
 906              		@ frame_needed = 0, uses_anonymous_args = 0
 907              		@ link register save eliminated.
 908              	.LVL40:
 909 0000 7047     		bx	lr
 910              		.cfi_endproc
 911              	.LFE151:
 913 0002 00BF     		.section	.text.EvrRtxThreadPreempted,"ax",%progbits
 914              		.align	2
 915              		.weak	EvrRtxThreadPreempted
 916              		.thumb
 917              		.thumb_func
 919              	EvrRtxThreadPreempted:
 920              	.LFB152:
 758:/usr/local/lib/ARM/CMSIS/5.4.0/CMSIS/RTOS2/RTX/Source/rtx_evr.c **** #if defined(RTE_Compiler_EventRecorder)
 759:/usr/local/lib/ARM/CMSIS/5.4.0/CMSIS/RTOS2/RTX/Source/rtx_evr.c ****   (void)EventRecord2(EvtRtxThreadUnblocked, (uint32_t)thread_id, ret_val);
 760:/usr/local/lib/ARM/CMSIS/5.4.0/CMSIS/RTOS2/RTX/Source/rtx_evr.c **** #else
 761:/usr/local/lib/ARM/CMSIS/5.4.0/CMSIS/RTOS2/RTX/Source/rtx_evr.c ****   (void)thread_id;
 762:/usr/local/lib/ARM/CMSIS/5.4.0/CMSIS/RTOS2/RTX/Source/rtx_evr.c ****   (void)ret_val;
 763:/usr/local/lib/ARM/CMSIS/5.4.0/CMSIS/RTOS2/RTX/Source/rtx_evr.c **** #endif
 764:/usr/local/lib/ARM/CMSIS/5.4.0/CMSIS/RTOS2/RTX/Source/rtx_evr.c **** }
 765:/usr/local/lib/ARM/CMSIS/5.4.0/CMSIS/RTOS2/RTX/Source/rtx_evr.c **** #endif
 766:/usr/local/lib/ARM/CMSIS/5.4.0/CMSIS/RTOS2/RTX/Source/rtx_evr.c **** 
 767:/usr/local/lib/ARM/CMSIS/5.4.0/CMSIS/RTOS2/RTX/Source/rtx_evr.c **** #if (!defined(EVR_RTX_DISABLE) && (OS_EVR_THREAD != 0) && !defined(EVR_RTX_THREAD_PREEMPTED_DISABLE
 768:/usr/local/lib/ARM/CMSIS/5.4.0/CMSIS/RTOS2/RTX/Source/rtx_evr.c **** __WEAK void EvrRtxThreadPreempted (osThreadId_t thread_id) {
 921              		.loc 1 768 0
 922              		.cfi_startproc
 923              		@ args = 0, pretend = 0, frame = 0
 924              		@ frame_needed = 0, uses_anonymous_args = 0
 925              		@ link register save eliminated.
 926              	.LVL41:
 927 0000 7047     		bx	lr
 928              		.cfi_endproc
 929              	.LFE152:
ARM GAS  /tmp/ccrysPfs.s 			page 29


 931 0002 00BF     		.section	.text.EvrRtxThreadSwitched,"ax",%progbits
 932              		.align	2
 933              		.weak	EvrRtxThreadSwitched
 934              		.thumb
 935              		.thumb_func
 937              	EvrRtxThreadSwitched:
 938              	.LFB153:
 769:/usr/local/lib/ARM/CMSIS/5.4.0/CMSIS/RTOS2/RTX/Source/rtx_evr.c **** #if defined(RTE_Compiler_EventRecorder)
 770:/usr/local/lib/ARM/CMSIS/5.4.0/CMSIS/RTOS2/RTX/Source/rtx_evr.c ****   (void)EventRecord2(EvtRtxThreadPreempted, (uint32_t)thread_id, 0U);
 771:/usr/local/lib/ARM/CMSIS/5.4.0/CMSIS/RTOS2/RTX/Source/rtx_evr.c **** #else
 772:/usr/local/lib/ARM/CMSIS/5.4.0/CMSIS/RTOS2/RTX/Source/rtx_evr.c ****   (void)thread_id;
 773:/usr/local/lib/ARM/CMSIS/5.4.0/CMSIS/RTOS2/RTX/Source/rtx_evr.c **** #endif
 774:/usr/local/lib/ARM/CMSIS/5.4.0/CMSIS/RTOS2/RTX/Source/rtx_evr.c **** }
 775:/usr/local/lib/ARM/CMSIS/5.4.0/CMSIS/RTOS2/RTX/Source/rtx_evr.c **** #endif
 776:/usr/local/lib/ARM/CMSIS/5.4.0/CMSIS/RTOS2/RTX/Source/rtx_evr.c **** 
 777:/usr/local/lib/ARM/CMSIS/5.4.0/CMSIS/RTOS2/RTX/Source/rtx_evr.c **** #if (!defined(EVR_RTX_DISABLE) && (OS_EVR_THREAD != 0) && !defined(EVR_RTX_THREAD_SWITCHED_DISABLE)
 778:/usr/local/lib/ARM/CMSIS/5.4.0/CMSIS/RTOS2/RTX/Source/rtx_evr.c **** __WEAK void EvrRtxThreadSwitched (osThreadId_t thread_id) {
 939              		.loc 1 778 0
 940              		.cfi_startproc
 941              		@ args = 0, pretend = 0, frame = 0
 942              		@ frame_needed = 0, uses_anonymous_args = 0
 943              		@ link register save eliminated.
 944              	.LVL42:
 945 0000 7047     		bx	lr
 946              		.cfi_endproc
 947              	.LFE153:
 949 0002 00BF     		.section	.text.EvrRtxThreadExit,"ax",%progbits
 950              		.align	2
 951              		.weak	EvrRtxThreadExit
 952              		.thumb
 953              		.thumb_func
 955              	EvrRtxThreadExit:
 956              	.LFB154:
 779:/usr/local/lib/ARM/CMSIS/5.4.0/CMSIS/RTOS2/RTX/Source/rtx_evr.c **** #if defined(RTE_Compiler_EventRecorder)
 780:/usr/local/lib/ARM/CMSIS/5.4.0/CMSIS/RTOS2/RTX/Source/rtx_evr.c ****   (void)EventRecord2(EvtRtxThreadSwitched, (uint32_t)thread_id, 0U);
 781:/usr/local/lib/ARM/CMSIS/5.4.0/CMSIS/RTOS2/RTX/Source/rtx_evr.c **** #else
 782:/usr/local/lib/ARM/CMSIS/5.4.0/CMSIS/RTOS2/RTX/Source/rtx_evr.c ****   (void)thread_id;
 783:/usr/local/lib/ARM/CMSIS/5.4.0/CMSIS/RTOS2/RTX/Source/rtx_evr.c **** #endif
 784:/usr/local/lib/ARM/CMSIS/5.4.0/CMSIS/RTOS2/RTX/Source/rtx_evr.c **** }
 785:/usr/local/lib/ARM/CMSIS/5.4.0/CMSIS/RTOS2/RTX/Source/rtx_evr.c **** #endif
 786:/usr/local/lib/ARM/CMSIS/5.4.0/CMSIS/RTOS2/RTX/Source/rtx_evr.c **** 
 787:/usr/local/lib/ARM/CMSIS/5.4.0/CMSIS/RTOS2/RTX/Source/rtx_evr.c **** #if (!defined(EVR_RTX_DISABLE) && (OS_EVR_THREAD != 0) && !defined(EVR_RTX_THREAD_EXIT_DISABLE))
 788:/usr/local/lib/ARM/CMSIS/5.4.0/CMSIS/RTOS2/RTX/Source/rtx_evr.c **** __WEAK void EvrRtxThreadExit (void) {
 957              		.loc 1 788 0
 958              		.cfi_startproc
 959              		@ args = 0, pretend = 0, frame = 0
 960              		@ frame_needed = 0, uses_anonymous_args = 0
 961              		@ link register save eliminated.
 962 0000 7047     		bx	lr
 963              		.cfi_endproc
 964              	.LFE154:
 966 0002 00BF     		.section	.text.EvrRtxThreadTerminate,"ax",%progbits
 967              		.align	2
 968              		.weak	EvrRtxThreadTerminate
 969              		.thumb
 970              		.thumb_func
 972              	EvrRtxThreadTerminate:
ARM GAS  /tmp/ccrysPfs.s 			page 30


 973              	.LFB155:
 789:/usr/local/lib/ARM/CMSIS/5.4.0/CMSIS/RTOS2/RTX/Source/rtx_evr.c **** #if defined(RTE_Compiler_EventRecorder)
 790:/usr/local/lib/ARM/CMSIS/5.4.0/CMSIS/RTOS2/RTX/Source/rtx_evr.c ****   (void)EventRecord2(EvtRtxThreadExit, 0U, 0U);
 791:/usr/local/lib/ARM/CMSIS/5.4.0/CMSIS/RTOS2/RTX/Source/rtx_evr.c **** #else
 792:/usr/local/lib/ARM/CMSIS/5.4.0/CMSIS/RTOS2/RTX/Source/rtx_evr.c **** #endif
 793:/usr/local/lib/ARM/CMSIS/5.4.0/CMSIS/RTOS2/RTX/Source/rtx_evr.c **** }
 794:/usr/local/lib/ARM/CMSIS/5.4.0/CMSIS/RTOS2/RTX/Source/rtx_evr.c **** #endif
 795:/usr/local/lib/ARM/CMSIS/5.4.0/CMSIS/RTOS2/RTX/Source/rtx_evr.c **** 
 796:/usr/local/lib/ARM/CMSIS/5.4.0/CMSIS/RTOS2/RTX/Source/rtx_evr.c **** #if (!defined(EVR_RTX_DISABLE) && (OS_EVR_THREAD != 0) && !defined(EVR_RTX_THREAD_TERMINATE_DISABLE
 797:/usr/local/lib/ARM/CMSIS/5.4.0/CMSIS/RTOS2/RTX/Source/rtx_evr.c **** __WEAK void EvrRtxThreadTerminate (osThreadId_t thread_id) {
 974              		.loc 1 797 0
 975              		.cfi_startproc
 976              		@ args = 0, pretend = 0, frame = 0
 977              		@ frame_needed = 0, uses_anonymous_args = 0
 978              		@ link register save eliminated.
 979              	.LVL43:
 980 0000 7047     		bx	lr
 981              		.cfi_endproc
 982              	.LFE155:
 984 0002 00BF     		.section	.text.EvrRtxThreadDestroyed,"ax",%progbits
 985              		.align	2
 986              		.weak	EvrRtxThreadDestroyed
 987              		.thumb
 988              		.thumb_func
 990              	EvrRtxThreadDestroyed:
 991              	.LFB156:
 798:/usr/local/lib/ARM/CMSIS/5.4.0/CMSIS/RTOS2/RTX/Source/rtx_evr.c **** #if defined(RTE_Compiler_EventRecorder)
 799:/usr/local/lib/ARM/CMSIS/5.4.0/CMSIS/RTOS2/RTX/Source/rtx_evr.c ****   (void)EventRecord2(EvtRtxThreadTerminate, (uint32_t)thread_id, 0U);
 800:/usr/local/lib/ARM/CMSIS/5.4.0/CMSIS/RTOS2/RTX/Source/rtx_evr.c **** #else
 801:/usr/local/lib/ARM/CMSIS/5.4.0/CMSIS/RTOS2/RTX/Source/rtx_evr.c ****   (void)thread_id;
 802:/usr/local/lib/ARM/CMSIS/5.4.0/CMSIS/RTOS2/RTX/Source/rtx_evr.c **** #endif
 803:/usr/local/lib/ARM/CMSIS/5.4.0/CMSIS/RTOS2/RTX/Source/rtx_evr.c **** }
 804:/usr/local/lib/ARM/CMSIS/5.4.0/CMSIS/RTOS2/RTX/Source/rtx_evr.c **** #endif
 805:/usr/local/lib/ARM/CMSIS/5.4.0/CMSIS/RTOS2/RTX/Source/rtx_evr.c **** 
 806:/usr/local/lib/ARM/CMSIS/5.4.0/CMSIS/RTOS2/RTX/Source/rtx_evr.c **** #if (!defined(EVR_RTX_DISABLE) && (OS_EVR_THREAD != 0) && !defined(EVR_RTX_THREAD_DESTROYED_DISABLE
 807:/usr/local/lib/ARM/CMSIS/5.4.0/CMSIS/RTOS2/RTX/Source/rtx_evr.c **** __WEAK void EvrRtxThreadDestroyed (osThreadId_t thread_id) {
 992              		.loc 1 807 0
 993              		.cfi_startproc
 994              		@ args = 0, pretend = 0, frame = 0
 995              		@ frame_needed = 0, uses_anonymous_args = 0
 996              		@ link register save eliminated.
 997              	.LVL44:
 998 0000 7047     		bx	lr
 999              		.cfi_endproc
 1000              	.LFE156:
 1002 0002 00BF     		.section	.text.EvrRtxThreadGetCount,"ax",%progbits
 1003              		.align	2
 1004              		.weak	EvrRtxThreadGetCount
 1005              		.thumb
 1006              		.thumb_func
 1008              	EvrRtxThreadGetCount:
 1009              	.LFB157:
 808:/usr/local/lib/ARM/CMSIS/5.4.0/CMSIS/RTOS2/RTX/Source/rtx_evr.c **** #if defined(RTE_Compiler_EventRecorder)
 809:/usr/local/lib/ARM/CMSIS/5.4.0/CMSIS/RTOS2/RTX/Source/rtx_evr.c ****   (void)EventRecord2(EvtRtxThreadDestroyed, (uint32_t)thread_id, 0U);
 810:/usr/local/lib/ARM/CMSIS/5.4.0/CMSIS/RTOS2/RTX/Source/rtx_evr.c **** #else
 811:/usr/local/lib/ARM/CMSIS/5.4.0/CMSIS/RTOS2/RTX/Source/rtx_evr.c ****   (void)thread_id;
 812:/usr/local/lib/ARM/CMSIS/5.4.0/CMSIS/RTOS2/RTX/Source/rtx_evr.c **** #endif
ARM GAS  /tmp/ccrysPfs.s 			page 31


 813:/usr/local/lib/ARM/CMSIS/5.4.0/CMSIS/RTOS2/RTX/Source/rtx_evr.c **** }
 814:/usr/local/lib/ARM/CMSIS/5.4.0/CMSIS/RTOS2/RTX/Source/rtx_evr.c **** #endif
 815:/usr/local/lib/ARM/CMSIS/5.4.0/CMSIS/RTOS2/RTX/Source/rtx_evr.c **** 
 816:/usr/local/lib/ARM/CMSIS/5.4.0/CMSIS/RTOS2/RTX/Source/rtx_evr.c **** #if (!defined(EVR_RTX_DISABLE) && (OS_EVR_THREAD != 0) && !defined(EVR_RTX_THREAD_GET_COUNT_DISABLE
 817:/usr/local/lib/ARM/CMSIS/5.4.0/CMSIS/RTOS2/RTX/Source/rtx_evr.c **** __WEAK void EvrRtxThreadGetCount (uint32_t count) {
 1010              		.loc 1 817 0
 1011              		.cfi_startproc
 1012              		@ args = 0, pretend = 0, frame = 0
 1013              		@ frame_needed = 0, uses_anonymous_args = 0
 1014              		@ link register save eliminated.
 1015              	.LVL45:
 1016 0000 7047     		bx	lr
 1017              		.cfi_endproc
 1018              	.LFE157:
 1020 0002 00BF     		.section	.text.EvrRtxThreadEnumerate,"ax",%progbits
 1021              		.align	2
 1022              		.weak	EvrRtxThreadEnumerate
 1023              		.thumb
 1024              		.thumb_func
 1026              	EvrRtxThreadEnumerate:
 1027              	.LFB158:
 818:/usr/local/lib/ARM/CMSIS/5.4.0/CMSIS/RTOS2/RTX/Source/rtx_evr.c **** #if defined(RTE_Compiler_EventRecorder)
 819:/usr/local/lib/ARM/CMSIS/5.4.0/CMSIS/RTOS2/RTX/Source/rtx_evr.c ****   (void)EventRecord2(EvtRtxThreadGetCount, count, 0U);
 820:/usr/local/lib/ARM/CMSIS/5.4.0/CMSIS/RTOS2/RTX/Source/rtx_evr.c **** #else
 821:/usr/local/lib/ARM/CMSIS/5.4.0/CMSIS/RTOS2/RTX/Source/rtx_evr.c ****   (void)count;
 822:/usr/local/lib/ARM/CMSIS/5.4.0/CMSIS/RTOS2/RTX/Source/rtx_evr.c **** #endif
 823:/usr/local/lib/ARM/CMSIS/5.4.0/CMSIS/RTOS2/RTX/Source/rtx_evr.c **** }
 824:/usr/local/lib/ARM/CMSIS/5.4.0/CMSIS/RTOS2/RTX/Source/rtx_evr.c **** #endif
 825:/usr/local/lib/ARM/CMSIS/5.4.0/CMSIS/RTOS2/RTX/Source/rtx_evr.c **** 
 826:/usr/local/lib/ARM/CMSIS/5.4.0/CMSIS/RTOS2/RTX/Source/rtx_evr.c **** #if (!defined(EVR_RTX_DISABLE) && (OS_EVR_THREAD != 0) && !defined(EVR_RTX_THREAD_ENUMERATE_DISABLE
 827:/usr/local/lib/ARM/CMSIS/5.4.0/CMSIS/RTOS2/RTX/Source/rtx_evr.c **** __WEAK void EvrRtxThreadEnumerate (osThreadId_t *thread_array, uint32_t array_items, uint32_t count
 1028              		.loc 1 827 0
 1029              		.cfi_startproc
 1030              		@ args = 0, pretend = 0, frame = 0
 1031              		@ frame_needed = 0, uses_anonymous_args = 0
 1032              		@ link register save eliminated.
 1033              	.LVL46:
 1034 0000 7047     		bx	lr
 1035              		.cfi_endproc
 1036              	.LFE158:
 1038 0002 00BF     		.section	.text.EvrRtxThreadFlagsSet,"ax",%progbits
 1039              		.align	2
 1040              		.weak	EvrRtxThreadFlagsSet
 1041              		.thumb
 1042              		.thumb_func
 1044              	EvrRtxThreadFlagsSet:
 1045              	.LFB159:
 828:/usr/local/lib/ARM/CMSIS/5.4.0/CMSIS/RTOS2/RTX/Source/rtx_evr.c **** #if defined(RTE_Compiler_EventRecorder)
 829:/usr/local/lib/ARM/CMSIS/5.4.0/CMSIS/RTOS2/RTX/Source/rtx_evr.c ****   (void)EventRecord4(EvtRtxThreadEnumerate, (uint32_t)thread_array, array_items, count, 0U);
 830:/usr/local/lib/ARM/CMSIS/5.4.0/CMSIS/RTOS2/RTX/Source/rtx_evr.c **** #else
 831:/usr/local/lib/ARM/CMSIS/5.4.0/CMSIS/RTOS2/RTX/Source/rtx_evr.c ****   (void)thread_array;
 832:/usr/local/lib/ARM/CMSIS/5.4.0/CMSIS/RTOS2/RTX/Source/rtx_evr.c ****   (void)array_items;
 833:/usr/local/lib/ARM/CMSIS/5.4.0/CMSIS/RTOS2/RTX/Source/rtx_evr.c ****   (void)count;
 834:/usr/local/lib/ARM/CMSIS/5.4.0/CMSIS/RTOS2/RTX/Source/rtx_evr.c **** #endif
 835:/usr/local/lib/ARM/CMSIS/5.4.0/CMSIS/RTOS2/RTX/Source/rtx_evr.c **** }
 836:/usr/local/lib/ARM/CMSIS/5.4.0/CMSIS/RTOS2/RTX/Source/rtx_evr.c **** #endif
 837:/usr/local/lib/ARM/CMSIS/5.4.0/CMSIS/RTOS2/RTX/Source/rtx_evr.c **** 
ARM GAS  /tmp/ccrysPfs.s 			page 32


 838:/usr/local/lib/ARM/CMSIS/5.4.0/CMSIS/RTOS2/RTX/Source/rtx_evr.c **** #if (!defined(EVR_RTX_DISABLE) && (OS_EVR_THREAD != 0) && !defined(EVR_RTX_THREAD_FLAGS_SET_DISABLE
 839:/usr/local/lib/ARM/CMSIS/5.4.0/CMSIS/RTOS2/RTX/Source/rtx_evr.c **** __WEAK void EvrRtxThreadFlagsSet (osThreadId_t thread_id, uint32_t flags) {
 1046              		.loc 1 839 0
 1047              		.cfi_startproc
 1048              		@ args = 0, pretend = 0, frame = 0
 1049              		@ frame_needed = 0, uses_anonymous_args = 0
 1050              		@ link register save eliminated.
 1051              	.LVL47:
 1052 0000 7047     		bx	lr
 1053              		.cfi_endproc
 1054              	.LFE159:
 1056 0002 00BF     		.section	.text.EvrRtxThreadFlagsSetDone,"ax",%progbits
 1057              		.align	2
 1058              		.weak	EvrRtxThreadFlagsSetDone
 1059              		.thumb
 1060              		.thumb_func
 1062              	EvrRtxThreadFlagsSetDone:
 1063              	.LFB160:
 840:/usr/local/lib/ARM/CMSIS/5.4.0/CMSIS/RTOS2/RTX/Source/rtx_evr.c **** #if defined(RTE_Compiler_EventRecorder)
 841:/usr/local/lib/ARM/CMSIS/5.4.0/CMSIS/RTOS2/RTX/Source/rtx_evr.c ****   (void)EventRecord2(EvtRtxThreadFlagsSet, (uint32_t)thread_id, flags);
 842:/usr/local/lib/ARM/CMSIS/5.4.0/CMSIS/RTOS2/RTX/Source/rtx_evr.c **** #else
 843:/usr/local/lib/ARM/CMSIS/5.4.0/CMSIS/RTOS2/RTX/Source/rtx_evr.c ****   (void)thread_id;
 844:/usr/local/lib/ARM/CMSIS/5.4.0/CMSIS/RTOS2/RTX/Source/rtx_evr.c ****   (void)flags;
 845:/usr/local/lib/ARM/CMSIS/5.4.0/CMSIS/RTOS2/RTX/Source/rtx_evr.c **** #endif
 846:/usr/local/lib/ARM/CMSIS/5.4.0/CMSIS/RTOS2/RTX/Source/rtx_evr.c **** }
 847:/usr/local/lib/ARM/CMSIS/5.4.0/CMSIS/RTOS2/RTX/Source/rtx_evr.c **** #endif
 848:/usr/local/lib/ARM/CMSIS/5.4.0/CMSIS/RTOS2/RTX/Source/rtx_evr.c **** 
 849:/usr/local/lib/ARM/CMSIS/5.4.0/CMSIS/RTOS2/RTX/Source/rtx_evr.c **** #if (!defined(EVR_RTX_DISABLE) && (OS_EVR_THREAD != 0) && !defined(EVR_RTX_THREAD_FLAGS_SET_DONE_DI
 850:/usr/local/lib/ARM/CMSIS/5.4.0/CMSIS/RTOS2/RTX/Source/rtx_evr.c **** __WEAK void EvrRtxThreadFlagsSetDone (osThreadId_t thread_id, uint32_t thread_flags) {
 1064              		.loc 1 850 0
 1065              		.cfi_startproc
 1066              		@ args = 0, pretend = 0, frame = 0
 1067              		@ frame_needed = 0, uses_anonymous_args = 0
 1068              		@ link register save eliminated.
 1069              	.LVL48:
 1070 0000 7047     		bx	lr
 1071              		.cfi_endproc
 1072              	.LFE160:
 1074 0002 00BF     		.section	.text.EvrRtxThreadFlagsClear,"ax",%progbits
 1075              		.align	2
 1076              		.weak	EvrRtxThreadFlagsClear
 1077              		.thumb
 1078              		.thumb_func
 1080              	EvrRtxThreadFlagsClear:
 1081              	.LFB161:
 851:/usr/local/lib/ARM/CMSIS/5.4.0/CMSIS/RTOS2/RTX/Source/rtx_evr.c **** #if defined(RTE_Compiler_EventRecorder)
 852:/usr/local/lib/ARM/CMSIS/5.4.0/CMSIS/RTOS2/RTX/Source/rtx_evr.c ****   (void)EventRecord2(EvtRtxThreadFlagsSetDone, (uint32_t)thread_id, thread_flags);
 853:/usr/local/lib/ARM/CMSIS/5.4.0/CMSIS/RTOS2/RTX/Source/rtx_evr.c **** #else
 854:/usr/local/lib/ARM/CMSIS/5.4.0/CMSIS/RTOS2/RTX/Source/rtx_evr.c ****   (void)thread_id;
 855:/usr/local/lib/ARM/CMSIS/5.4.0/CMSIS/RTOS2/RTX/Source/rtx_evr.c ****   (void)thread_flags;
 856:/usr/local/lib/ARM/CMSIS/5.4.0/CMSIS/RTOS2/RTX/Source/rtx_evr.c **** #endif
 857:/usr/local/lib/ARM/CMSIS/5.4.0/CMSIS/RTOS2/RTX/Source/rtx_evr.c **** }
 858:/usr/local/lib/ARM/CMSIS/5.4.0/CMSIS/RTOS2/RTX/Source/rtx_evr.c **** #endif
 859:/usr/local/lib/ARM/CMSIS/5.4.0/CMSIS/RTOS2/RTX/Source/rtx_evr.c **** 
 860:/usr/local/lib/ARM/CMSIS/5.4.0/CMSIS/RTOS2/RTX/Source/rtx_evr.c **** #if (!defined(EVR_RTX_DISABLE) && (OS_EVR_THREAD != 0) && !defined(EVR_RTX_THREAD_FLAGS_CLEAR_DISAB
 861:/usr/local/lib/ARM/CMSIS/5.4.0/CMSIS/RTOS2/RTX/Source/rtx_evr.c **** __WEAK void EvrRtxThreadFlagsClear (uint32_t flags) {
 1082              		.loc 1 861 0
ARM GAS  /tmp/ccrysPfs.s 			page 33


 1083              		.cfi_startproc
 1084              		@ args = 0, pretend = 0, frame = 0
 1085              		@ frame_needed = 0, uses_anonymous_args = 0
 1086              		@ link register save eliminated.
 1087              	.LVL49:
 1088 0000 7047     		bx	lr
 1089              		.cfi_endproc
 1090              	.LFE161:
 1092 0002 00BF     		.section	.text.EvrRtxThreadFlagsClearDone,"ax",%progbits
 1093              		.align	2
 1094              		.weak	EvrRtxThreadFlagsClearDone
 1095              		.thumb
 1096              		.thumb_func
 1098              	EvrRtxThreadFlagsClearDone:
 1099              	.LFB162:
 862:/usr/local/lib/ARM/CMSIS/5.4.0/CMSIS/RTOS2/RTX/Source/rtx_evr.c **** #if defined(RTE_Compiler_EventRecorder)
 863:/usr/local/lib/ARM/CMSIS/5.4.0/CMSIS/RTOS2/RTX/Source/rtx_evr.c ****   (void)EventRecord2(EvtRtxThreadFlagsClear, flags, 0U);
 864:/usr/local/lib/ARM/CMSIS/5.4.0/CMSIS/RTOS2/RTX/Source/rtx_evr.c **** #else
 865:/usr/local/lib/ARM/CMSIS/5.4.0/CMSIS/RTOS2/RTX/Source/rtx_evr.c ****   (void)flags;
 866:/usr/local/lib/ARM/CMSIS/5.4.0/CMSIS/RTOS2/RTX/Source/rtx_evr.c **** #endif
 867:/usr/local/lib/ARM/CMSIS/5.4.0/CMSIS/RTOS2/RTX/Source/rtx_evr.c **** }
 868:/usr/local/lib/ARM/CMSIS/5.4.0/CMSIS/RTOS2/RTX/Source/rtx_evr.c **** #endif
 869:/usr/local/lib/ARM/CMSIS/5.4.0/CMSIS/RTOS2/RTX/Source/rtx_evr.c **** 
 870:/usr/local/lib/ARM/CMSIS/5.4.0/CMSIS/RTOS2/RTX/Source/rtx_evr.c **** #if (!defined(EVR_RTX_DISABLE) && (OS_EVR_THREAD != 0) && !defined(EVR_RTX_THREAD_FLAGS_CLEAR_DONE_
 871:/usr/local/lib/ARM/CMSIS/5.4.0/CMSIS/RTOS2/RTX/Source/rtx_evr.c **** __WEAK void EvrRtxThreadFlagsClearDone (uint32_t thread_flags) {
 1100              		.loc 1 871 0
 1101              		.cfi_startproc
 1102              		@ args = 0, pretend = 0, frame = 0
 1103              		@ frame_needed = 0, uses_anonymous_args = 0
 1104              		@ link register save eliminated.
 1105              	.LVL50:
 1106 0000 7047     		bx	lr
 1107              		.cfi_endproc
 1108              	.LFE162:
 1110 0002 00BF     		.section	.text.EvrRtxThreadFlagsGet,"ax",%progbits
 1111              		.align	2
 1112              		.weak	EvrRtxThreadFlagsGet
 1113              		.thumb
 1114              		.thumb_func
 1116              	EvrRtxThreadFlagsGet:
 1117              	.LFB163:
 872:/usr/local/lib/ARM/CMSIS/5.4.0/CMSIS/RTOS2/RTX/Source/rtx_evr.c **** #if defined(RTE_Compiler_EventRecorder)
 873:/usr/local/lib/ARM/CMSIS/5.4.0/CMSIS/RTOS2/RTX/Source/rtx_evr.c ****   (void)EventRecord2(EvtRtxThreadFlagsClearDone, thread_flags, 0U);
 874:/usr/local/lib/ARM/CMSIS/5.4.0/CMSIS/RTOS2/RTX/Source/rtx_evr.c **** #else
 875:/usr/local/lib/ARM/CMSIS/5.4.0/CMSIS/RTOS2/RTX/Source/rtx_evr.c ****   (void)thread_flags;
 876:/usr/local/lib/ARM/CMSIS/5.4.0/CMSIS/RTOS2/RTX/Source/rtx_evr.c **** #endif
 877:/usr/local/lib/ARM/CMSIS/5.4.0/CMSIS/RTOS2/RTX/Source/rtx_evr.c **** }
 878:/usr/local/lib/ARM/CMSIS/5.4.0/CMSIS/RTOS2/RTX/Source/rtx_evr.c **** #endif
 879:/usr/local/lib/ARM/CMSIS/5.4.0/CMSIS/RTOS2/RTX/Source/rtx_evr.c **** 
 880:/usr/local/lib/ARM/CMSIS/5.4.0/CMSIS/RTOS2/RTX/Source/rtx_evr.c **** #if (!defined(EVR_RTX_DISABLE) && (OS_EVR_THREAD != 0) && !defined(EVR_RTX_THREAD_FLAGS_GET_DISABLE
 881:/usr/local/lib/ARM/CMSIS/5.4.0/CMSIS/RTOS2/RTX/Source/rtx_evr.c **** __WEAK void EvrRtxThreadFlagsGet (uint32_t thread_flags) {
 1118              		.loc 1 881 0
 1119              		.cfi_startproc
 1120              		@ args = 0, pretend = 0, frame = 0
 1121              		@ frame_needed = 0, uses_anonymous_args = 0
 1122              		@ link register save eliminated.
 1123              	.LVL51:
ARM GAS  /tmp/ccrysPfs.s 			page 34


 1124 0000 7047     		bx	lr
 1125              		.cfi_endproc
 1126              	.LFE163:
 1128 0002 00BF     		.section	.text.EvrRtxThreadFlagsWait,"ax",%progbits
 1129              		.align	2
 1130              		.weak	EvrRtxThreadFlagsWait
 1131              		.thumb
 1132              		.thumb_func
 1134              	EvrRtxThreadFlagsWait:
 1135              	.LFB164:
 882:/usr/local/lib/ARM/CMSIS/5.4.0/CMSIS/RTOS2/RTX/Source/rtx_evr.c **** #if defined(RTE_Compiler_EventRecorder)
 883:/usr/local/lib/ARM/CMSIS/5.4.0/CMSIS/RTOS2/RTX/Source/rtx_evr.c ****   (void)EventRecord2(EvtRtxThreadFlagsGet, thread_flags, 0U);
 884:/usr/local/lib/ARM/CMSIS/5.4.0/CMSIS/RTOS2/RTX/Source/rtx_evr.c **** #else
 885:/usr/local/lib/ARM/CMSIS/5.4.0/CMSIS/RTOS2/RTX/Source/rtx_evr.c ****   (void)thread_flags;
 886:/usr/local/lib/ARM/CMSIS/5.4.0/CMSIS/RTOS2/RTX/Source/rtx_evr.c **** #endif
 887:/usr/local/lib/ARM/CMSIS/5.4.0/CMSIS/RTOS2/RTX/Source/rtx_evr.c **** }
 888:/usr/local/lib/ARM/CMSIS/5.4.0/CMSIS/RTOS2/RTX/Source/rtx_evr.c **** #endif
 889:/usr/local/lib/ARM/CMSIS/5.4.0/CMSIS/RTOS2/RTX/Source/rtx_evr.c **** 
 890:/usr/local/lib/ARM/CMSIS/5.4.0/CMSIS/RTOS2/RTX/Source/rtx_evr.c **** #if (!defined(EVR_RTX_DISABLE) && (OS_EVR_THREAD != 0) && !defined(EVR_RTX_THREAD_FLAGS_WAIT_DISABL
 891:/usr/local/lib/ARM/CMSIS/5.4.0/CMSIS/RTOS2/RTX/Source/rtx_evr.c **** __WEAK void EvrRtxThreadFlagsWait (uint32_t flags, uint32_t options, uint32_t timeout) {
 1136              		.loc 1 891 0
 1137              		.cfi_startproc
 1138              		@ args = 0, pretend = 0, frame = 0
 1139              		@ frame_needed = 0, uses_anonymous_args = 0
 1140              		@ link register save eliminated.
 1141              	.LVL52:
 1142 0000 7047     		bx	lr
 1143              		.cfi_endproc
 1144              	.LFE164:
 1146 0002 00BF     		.section	.text.EvrRtxThreadFlagsWaitPending,"ax",%progbits
 1147              		.align	2
 1148              		.weak	EvrRtxThreadFlagsWaitPending
 1149              		.thumb
 1150              		.thumb_func
 1152              	EvrRtxThreadFlagsWaitPending:
 1153              	.LFB165:
 892:/usr/local/lib/ARM/CMSIS/5.4.0/CMSIS/RTOS2/RTX/Source/rtx_evr.c **** #if defined(RTE_Compiler_EventRecorder)
 893:/usr/local/lib/ARM/CMSIS/5.4.0/CMSIS/RTOS2/RTX/Source/rtx_evr.c ****   (void)EventRecord4(EvtRtxThreadFlagsWait, flags, options, timeout, 0U);
 894:/usr/local/lib/ARM/CMSIS/5.4.0/CMSIS/RTOS2/RTX/Source/rtx_evr.c **** #else
 895:/usr/local/lib/ARM/CMSIS/5.4.0/CMSIS/RTOS2/RTX/Source/rtx_evr.c ****   (void)flags;
 896:/usr/local/lib/ARM/CMSIS/5.4.0/CMSIS/RTOS2/RTX/Source/rtx_evr.c ****   (void)options;
 897:/usr/local/lib/ARM/CMSIS/5.4.0/CMSIS/RTOS2/RTX/Source/rtx_evr.c ****   (void)timeout;
 898:/usr/local/lib/ARM/CMSIS/5.4.0/CMSIS/RTOS2/RTX/Source/rtx_evr.c **** #endif
 899:/usr/local/lib/ARM/CMSIS/5.4.0/CMSIS/RTOS2/RTX/Source/rtx_evr.c **** }
 900:/usr/local/lib/ARM/CMSIS/5.4.0/CMSIS/RTOS2/RTX/Source/rtx_evr.c **** #endif
 901:/usr/local/lib/ARM/CMSIS/5.4.0/CMSIS/RTOS2/RTX/Source/rtx_evr.c **** 
 902:/usr/local/lib/ARM/CMSIS/5.4.0/CMSIS/RTOS2/RTX/Source/rtx_evr.c **** #if (!defined(EVR_RTX_DISABLE) && (OS_EVR_THREAD != 0) && !defined(EVR_RTX_THREAD_FLAGS_WAIT_PENDIN
 903:/usr/local/lib/ARM/CMSIS/5.4.0/CMSIS/RTOS2/RTX/Source/rtx_evr.c **** __WEAK void EvrRtxThreadFlagsWaitPending (uint32_t flags, uint32_t options, uint32_t timeout) {
 1154              		.loc 1 903 0
 1155              		.cfi_startproc
 1156              		@ args = 0, pretend = 0, frame = 0
 1157              		@ frame_needed = 0, uses_anonymous_args = 0
 1158              		@ link register save eliminated.
 1159              	.LVL53:
 1160 0000 7047     		bx	lr
 1161              		.cfi_endproc
 1162              	.LFE165:
ARM GAS  /tmp/ccrysPfs.s 			page 35


 1164 0002 00BF     		.section	.text.EvrRtxThreadFlagsWaitTimeout,"ax",%progbits
 1165              		.align	2
 1166              		.weak	EvrRtxThreadFlagsWaitTimeout
 1167              		.thumb
 1168              		.thumb_func
 1170              	EvrRtxThreadFlagsWaitTimeout:
 1171              	.LFB166:
 904:/usr/local/lib/ARM/CMSIS/5.4.0/CMSIS/RTOS2/RTX/Source/rtx_evr.c **** #if defined(RTE_Compiler_EventRecorder)
 905:/usr/local/lib/ARM/CMSIS/5.4.0/CMSIS/RTOS2/RTX/Source/rtx_evr.c ****   (void)EventRecord4(EvtRtxThreadFlagsWaitPending, flags, options, timeout, 0U);
 906:/usr/local/lib/ARM/CMSIS/5.4.0/CMSIS/RTOS2/RTX/Source/rtx_evr.c **** #else
 907:/usr/local/lib/ARM/CMSIS/5.4.0/CMSIS/RTOS2/RTX/Source/rtx_evr.c ****   (void)flags;
 908:/usr/local/lib/ARM/CMSIS/5.4.0/CMSIS/RTOS2/RTX/Source/rtx_evr.c ****   (void)options;
 909:/usr/local/lib/ARM/CMSIS/5.4.0/CMSIS/RTOS2/RTX/Source/rtx_evr.c ****   (void)timeout;
 910:/usr/local/lib/ARM/CMSIS/5.4.0/CMSIS/RTOS2/RTX/Source/rtx_evr.c **** #endif
 911:/usr/local/lib/ARM/CMSIS/5.4.0/CMSIS/RTOS2/RTX/Source/rtx_evr.c **** }
 912:/usr/local/lib/ARM/CMSIS/5.4.0/CMSIS/RTOS2/RTX/Source/rtx_evr.c **** #endif
 913:/usr/local/lib/ARM/CMSIS/5.4.0/CMSIS/RTOS2/RTX/Source/rtx_evr.c **** 
 914:/usr/local/lib/ARM/CMSIS/5.4.0/CMSIS/RTOS2/RTX/Source/rtx_evr.c **** #if (!defined(EVR_RTX_DISABLE) && (OS_EVR_THREAD != 0) && !defined(EVR_RTX_THREAD_FLAGS_WAIT_TIMEOU
 915:/usr/local/lib/ARM/CMSIS/5.4.0/CMSIS/RTOS2/RTX/Source/rtx_evr.c **** __WEAK void EvrRtxThreadFlagsWaitTimeout (void) {
 1172              		.loc 1 915 0
 1173              		.cfi_startproc
 1174              		@ args = 0, pretend = 0, frame = 0
 1175              		@ frame_needed = 0, uses_anonymous_args = 0
 1176              		@ link register save eliminated.
 1177 0000 7047     		bx	lr
 1178              		.cfi_endproc
 1179              	.LFE166:
 1181 0002 00BF     		.section	.text.EvrRtxThreadFlagsWaitCompleted,"ax",%progbits
 1182              		.align	2
 1183              		.weak	EvrRtxThreadFlagsWaitCompleted
 1184              		.thumb
 1185              		.thumb_func
 1187              	EvrRtxThreadFlagsWaitCompleted:
 1188              	.LFB167:
 916:/usr/local/lib/ARM/CMSIS/5.4.0/CMSIS/RTOS2/RTX/Source/rtx_evr.c **** #if defined(RTE_Compiler_EventRecorder)
 917:/usr/local/lib/ARM/CMSIS/5.4.0/CMSIS/RTOS2/RTX/Source/rtx_evr.c ****   (void)EventRecord2(EvtRtxThreadFlagsWaitTimeout, 0U, 0U);
 918:/usr/local/lib/ARM/CMSIS/5.4.0/CMSIS/RTOS2/RTX/Source/rtx_evr.c **** #endif
 919:/usr/local/lib/ARM/CMSIS/5.4.0/CMSIS/RTOS2/RTX/Source/rtx_evr.c **** }
 920:/usr/local/lib/ARM/CMSIS/5.4.0/CMSIS/RTOS2/RTX/Source/rtx_evr.c **** #endif
 921:/usr/local/lib/ARM/CMSIS/5.4.0/CMSIS/RTOS2/RTX/Source/rtx_evr.c **** 
 922:/usr/local/lib/ARM/CMSIS/5.4.0/CMSIS/RTOS2/RTX/Source/rtx_evr.c **** #if (!defined(EVR_RTX_DISABLE) && (OS_EVR_THREAD != 0) && !defined(EVR_RTX_THREAD_FLAGS_WAIT_COMPLE
 923:/usr/local/lib/ARM/CMSIS/5.4.0/CMSIS/RTOS2/RTX/Source/rtx_evr.c **** __WEAK void EvrRtxThreadFlagsWaitCompleted (uint32_t flags, uint32_t options, uint32_t thread_flags
 1189              		.loc 1 923 0
 1190              		.cfi_startproc
 1191              		@ args = 0, pretend = 0, frame = 0
 1192              		@ frame_needed = 0, uses_anonymous_args = 0
 1193              		@ link register save eliminated.
 1194              	.LVL54:
 1195 0000 7047     		bx	lr
 1196              		.cfi_endproc
 1197              	.LFE167:
 1199 0002 00BF     		.section	.text.EvrRtxThreadFlagsWaitNotCompleted,"ax",%progbits
 1200              		.align	2
 1201              		.weak	EvrRtxThreadFlagsWaitNotCompleted
 1202              		.thumb
 1203              		.thumb_func
 1205              	EvrRtxThreadFlagsWaitNotCompleted:
ARM GAS  /tmp/ccrysPfs.s 			page 36


 1206              	.LFB168:
 924:/usr/local/lib/ARM/CMSIS/5.4.0/CMSIS/RTOS2/RTX/Source/rtx_evr.c **** #if defined(RTE_Compiler_EventRecorder)
 925:/usr/local/lib/ARM/CMSIS/5.4.0/CMSIS/RTOS2/RTX/Source/rtx_evr.c ****   (void)EventRecord4(EvtRtxThreadFlagsWaitCompleted, flags, options, thread_flags, 0U);
 926:/usr/local/lib/ARM/CMSIS/5.4.0/CMSIS/RTOS2/RTX/Source/rtx_evr.c **** #else
 927:/usr/local/lib/ARM/CMSIS/5.4.0/CMSIS/RTOS2/RTX/Source/rtx_evr.c ****   (void)flags;
 928:/usr/local/lib/ARM/CMSIS/5.4.0/CMSIS/RTOS2/RTX/Source/rtx_evr.c ****   (void)options;
 929:/usr/local/lib/ARM/CMSIS/5.4.0/CMSIS/RTOS2/RTX/Source/rtx_evr.c ****   (void)thread_flags;
 930:/usr/local/lib/ARM/CMSIS/5.4.0/CMSIS/RTOS2/RTX/Source/rtx_evr.c **** #endif
 931:/usr/local/lib/ARM/CMSIS/5.4.0/CMSIS/RTOS2/RTX/Source/rtx_evr.c **** }
 932:/usr/local/lib/ARM/CMSIS/5.4.0/CMSIS/RTOS2/RTX/Source/rtx_evr.c **** #endif
 933:/usr/local/lib/ARM/CMSIS/5.4.0/CMSIS/RTOS2/RTX/Source/rtx_evr.c **** 
 934:/usr/local/lib/ARM/CMSIS/5.4.0/CMSIS/RTOS2/RTX/Source/rtx_evr.c **** #if (!defined(EVR_RTX_DISABLE) && (OS_EVR_THREAD != 0) && !defined(EVR_RTX_THREAD_FLAGS_WAIT_NOT_CO
 935:/usr/local/lib/ARM/CMSIS/5.4.0/CMSIS/RTOS2/RTX/Source/rtx_evr.c **** __WEAK void EvrRtxThreadFlagsWaitNotCompleted (uint32_t flags, uint32_t options) {
 1207              		.loc 1 935 0
 1208              		.cfi_startproc
 1209              		@ args = 0, pretend = 0, frame = 0
 1210              		@ frame_needed = 0, uses_anonymous_args = 0
 1211              		@ link register save eliminated.
 1212              	.LVL55:
 1213 0000 7047     		bx	lr
 1214              		.cfi_endproc
 1215              	.LFE168:
 1217 0002 00BF     		.section	.text.EvrRtxThreadDelay,"ax",%progbits
 1218              		.align	2
 1219              		.weak	EvrRtxThreadDelay
 1220              		.thumb
 1221              		.thumb_func
 1223              	EvrRtxThreadDelay:
 1224              	.LFB169:
 936:/usr/local/lib/ARM/CMSIS/5.4.0/CMSIS/RTOS2/RTX/Source/rtx_evr.c **** #if defined(RTE_Compiler_EventRecorder)
 937:/usr/local/lib/ARM/CMSIS/5.4.0/CMSIS/RTOS2/RTX/Source/rtx_evr.c ****   (void)EventRecord2(EvtRtxThreadFlagsWaitNotCompleted, flags, options);
 938:/usr/local/lib/ARM/CMSIS/5.4.0/CMSIS/RTOS2/RTX/Source/rtx_evr.c **** #else
 939:/usr/local/lib/ARM/CMSIS/5.4.0/CMSIS/RTOS2/RTX/Source/rtx_evr.c ****   (void)flags;
 940:/usr/local/lib/ARM/CMSIS/5.4.0/CMSIS/RTOS2/RTX/Source/rtx_evr.c ****   (void)options;
 941:/usr/local/lib/ARM/CMSIS/5.4.0/CMSIS/RTOS2/RTX/Source/rtx_evr.c **** #endif
 942:/usr/local/lib/ARM/CMSIS/5.4.0/CMSIS/RTOS2/RTX/Source/rtx_evr.c **** }
 943:/usr/local/lib/ARM/CMSIS/5.4.0/CMSIS/RTOS2/RTX/Source/rtx_evr.c **** #endif
 944:/usr/local/lib/ARM/CMSIS/5.4.0/CMSIS/RTOS2/RTX/Source/rtx_evr.c **** 
 945:/usr/local/lib/ARM/CMSIS/5.4.0/CMSIS/RTOS2/RTX/Source/rtx_evr.c **** #if (!defined(EVR_RTX_DISABLE) && (OS_EVR_THREAD != 0) && !defined(EVR_RTX_THREAD_DELAY_DISABLE))
 946:/usr/local/lib/ARM/CMSIS/5.4.0/CMSIS/RTOS2/RTX/Source/rtx_evr.c **** __WEAK void EvrRtxThreadDelay (uint32_t ticks) {
 1225              		.loc 1 946 0
 1226              		.cfi_startproc
 1227              		@ args = 0, pretend = 0, frame = 0
 1228              		@ frame_needed = 0, uses_anonymous_args = 0
 1229              		@ link register save eliminated.
 1230              	.LVL56:
 1231 0000 7047     		bx	lr
 1232              		.cfi_endproc
 1233              	.LFE169:
 1235 0002 00BF     		.section	.text.EvrRtxThreadDelayUntil,"ax",%progbits
 1236              		.align	2
 1237              		.weak	EvrRtxThreadDelayUntil
 1238              		.thumb
 1239              		.thumb_func
 1241              	EvrRtxThreadDelayUntil:
 1242              	.LFB170:
 947:/usr/local/lib/ARM/CMSIS/5.4.0/CMSIS/RTOS2/RTX/Source/rtx_evr.c **** #if defined(RTE_Compiler_EventRecorder)
ARM GAS  /tmp/ccrysPfs.s 			page 37


 948:/usr/local/lib/ARM/CMSIS/5.4.0/CMSIS/RTOS2/RTX/Source/rtx_evr.c ****   (void)EventRecord2(EvtRtxThreadDelay, ticks, 0U);
 949:/usr/local/lib/ARM/CMSIS/5.4.0/CMSIS/RTOS2/RTX/Source/rtx_evr.c **** #else
 950:/usr/local/lib/ARM/CMSIS/5.4.0/CMSIS/RTOS2/RTX/Source/rtx_evr.c ****   (void)ticks;
 951:/usr/local/lib/ARM/CMSIS/5.4.0/CMSIS/RTOS2/RTX/Source/rtx_evr.c **** #endif
 952:/usr/local/lib/ARM/CMSIS/5.4.0/CMSIS/RTOS2/RTX/Source/rtx_evr.c **** }
 953:/usr/local/lib/ARM/CMSIS/5.4.0/CMSIS/RTOS2/RTX/Source/rtx_evr.c **** #endif
 954:/usr/local/lib/ARM/CMSIS/5.4.0/CMSIS/RTOS2/RTX/Source/rtx_evr.c **** 
 955:/usr/local/lib/ARM/CMSIS/5.4.0/CMSIS/RTOS2/RTX/Source/rtx_evr.c **** #if (!defined(EVR_RTX_DISABLE) && (OS_EVR_THREAD != 0) && !defined(EVR_RTX_THREAD_DELAY_UNTIL_DISAB
 956:/usr/local/lib/ARM/CMSIS/5.4.0/CMSIS/RTOS2/RTX/Source/rtx_evr.c **** __WEAK void EvrRtxThreadDelayUntil (uint32_t ticks) {
 1243              		.loc 1 956 0
 1244              		.cfi_startproc
 1245              		@ args = 0, pretend = 0, frame = 0
 1246              		@ frame_needed = 0, uses_anonymous_args = 0
 1247              		@ link register save eliminated.
 1248              	.LVL57:
 1249 0000 7047     		bx	lr
 1250              		.cfi_endproc
 1251              	.LFE170:
 1253 0002 00BF     		.section	.text.EvrRtxThreadDelayCompleted,"ax",%progbits
 1254              		.align	2
 1255              		.weak	EvrRtxThreadDelayCompleted
 1256              		.thumb
 1257              		.thumb_func
 1259              	EvrRtxThreadDelayCompleted:
 1260              	.LFB171:
 957:/usr/local/lib/ARM/CMSIS/5.4.0/CMSIS/RTOS2/RTX/Source/rtx_evr.c **** #if defined(RTE_Compiler_EventRecorder)
 958:/usr/local/lib/ARM/CMSIS/5.4.0/CMSIS/RTOS2/RTX/Source/rtx_evr.c ****   (void)EventRecord2(EvtRtxThreadDelayUntil, ticks, 0U);
 959:/usr/local/lib/ARM/CMSIS/5.4.0/CMSIS/RTOS2/RTX/Source/rtx_evr.c **** #else
 960:/usr/local/lib/ARM/CMSIS/5.4.0/CMSIS/RTOS2/RTX/Source/rtx_evr.c ****   (void)ticks;
 961:/usr/local/lib/ARM/CMSIS/5.4.0/CMSIS/RTOS2/RTX/Source/rtx_evr.c **** #endif
 962:/usr/local/lib/ARM/CMSIS/5.4.0/CMSIS/RTOS2/RTX/Source/rtx_evr.c **** }
 963:/usr/local/lib/ARM/CMSIS/5.4.0/CMSIS/RTOS2/RTX/Source/rtx_evr.c **** #endif
 964:/usr/local/lib/ARM/CMSIS/5.4.0/CMSIS/RTOS2/RTX/Source/rtx_evr.c **** 
 965:/usr/local/lib/ARM/CMSIS/5.4.0/CMSIS/RTOS2/RTX/Source/rtx_evr.c **** #if (!defined(EVR_RTX_DISABLE) && (OS_EVR_THREAD != 0) && !defined(EVR_RTX_THREAD_DELAY_COMPLETED_D
 966:/usr/local/lib/ARM/CMSIS/5.4.0/CMSIS/RTOS2/RTX/Source/rtx_evr.c **** __WEAK void EvrRtxThreadDelayCompleted (void) {
 1261              		.loc 1 966 0
 1262              		.cfi_startproc
 1263              		@ args = 0, pretend = 0, frame = 0
 1264              		@ frame_needed = 0, uses_anonymous_args = 0
 1265              		@ link register save eliminated.
 1266 0000 7047     		bx	lr
 1267              		.cfi_endproc
 1268              	.LFE171:
 1270 0002 00BF     		.section	.text.EvrRtxTimerError,"ax",%progbits
 1271              		.align	2
 1272              		.weak	EvrRtxTimerError
 1273              		.thumb
 1274              		.thumb_func
 1276              	EvrRtxTimerError:
 1277              	.LFB172:
 967:/usr/local/lib/ARM/CMSIS/5.4.0/CMSIS/RTOS2/RTX/Source/rtx_evr.c **** #if defined(RTE_Compiler_EventRecorder)
 968:/usr/local/lib/ARM/CMSIS/5.4.0/CMSIS/RTOS2/RTX/Source/rtx_evr.c ****   (void)EventRecord2(EvtRtxThreadDelayCompleted, 0U, 0U);
 969:/usr/local/lib/ARM/CMSIS/5.4.0/CMSIS/RTOS2/RTX/Source/rtx_evr.c **** #endif
 970:/usr/local/lib/ARM/CMSIS/5.4.0/CMSIS/RTOS2/RTX/Source/rtx_evr.c **** }
 971:/usr/local/lib/ARM/CMSIS/5.4.0/CMSIS/RTOS2/RTX/Source/rtx_evr.c **** #endif
 972:/usr/local/lib/ARM/CMSIS/5.4.0/CMSIS/RTOS2/RTX/Source/rtx_evr.c **** 
 973:/usr/local/lib/ARM/CMSIS/5.4.0/CMSIS/RTOS2/RTX/Source/rtx_evr.c **** 
ARM GAS  /tmp/ccrysPfs.s 			page 38


 974:/usr/local/lib/ARM/CMSIS/5.4.0/CMSIS/RTOS2/RTX/Source/rtx_evr.c **** //  ==== Timer Events ====
 975:/usr/local/lib/ARM/CMSIS/5.4.0/CMSIS/RTOS2/RTX/Source/rtx_evr.c **** 
 976:/usr/local/lib/ARM/CMSIS/5.4.0/CMSIS/RTOS2/RTX/Source/rtx_evr.c **** #if (!defined(EVR_RTX_DISABLE) && (OS_EVR_TIMER != 0) && !defined(EVR_RTX_TIMER_ERROR_DISABLE))
 977:/usr/local/lib/ARM/CMSIS/5.4.0/CMSIS/RTOS2/RTX/Source/rtx_evr.c **** __WEAK void EvrRtxTimerError (osTimerId_t timer_id, int32_t status) {
 1278              		.loc 1 977 0
 1279              		.cfi_startproc
 1280              		@ args = 0, pretend = 0, frame = 0
 1281              		@ frame_needed = 0, uses_anonymous_args = 0
 1282              		@ link register save eliminated.
 1283              	.LVL58:
 1284 0000 7047     		bx	lr
 1285              		.cfi_endproc
 1286              	.LFE172:
 1288 0002 00BF     		.section	.text.EvrRtxTimerCallback,"ax",%progbits
 1289              		.align	2
 1290              		.weak	EvrRtxTimerCallback
 1291              		.thumb
 1292              		.thumb_func
 1294              	EvrRtxTimerCallback:
 1295              	.LFB173:
 978:/usr/local/lib/ARM/CMSIS/5.4.0/CMSIS/RTOS2/RTX/Source/rtx_evr.c **** #if defined(RTE_Compiler_EventRecorder)
 979:/usr/local/lib/ARM/CMSIS/5.4.0/CMSIS/RTOS2/RTX/Source/rtx_evr.c ****   (void)EventRecord2(EvtRtxTimerError, (uint32_t)timer_id, (uint32_t)status);
 980:/usr/local/lib/ARM/CMSIS/5.4.0/CMSIS/RTOS2/RTX/Source/rtx_evr.c **** #else
 981:/usr/local/lib/ARM/CMSIS/5.4.0/CMSIS/RTOS2/RTX/Source/rtx_evr.c ****   (void)timer_id;
 982:/usr/local/lib/ARM/CMSIS/5.4.0/CMSIS/RTOS2/RTX/Source/rtx_evr.c ****   (void)status;
 983:/usr/local/lib/ARM/CMSIS/5.4.0/CMSIS/RTOS2/RTX/Source/rtx_evr.c **** #endif
 984:/usr/local/lib/ARM/CMSIS/5.4.0/CMSIS/RTOS2/RTX/Source/rtx_evr.c **** }
 985:/usr/local/lib/ARM/CMSIS/5.4.0/CMSIS/RTOS2/RTX/Source/rtx_evr.c **** #endif
 986:/usr/local/lib/ARM/CMSIS/5.4.0/CMSIS/RTOS2/RTX/Source/rtx_evr.c **** 
 987:/usr/local/lib/ARM/CMSIS/5.4.0/CMSIS/RTOS2/RTX/Source/rtx_evr.c **** #if (!defined(EVR_RTX_DISABLE) && (OS_EVR_TIMER != 0) && !defined(EVR_RTX_TIMER_CALLBACK_DISABLE))
 988:/usr/local/lib/ARM/CMSIS/5.4.0/CMSIS/RTOS2/RTX/Source/rtx_evr.c **** __WEAK void EvrRtxTimerCallback (osTimerFunc_t func, void *argument) {
 1296              		.loc 1 988 0
 1297              		.cfi_startproc
 1298              		@ args = 0, pretend = 0, frame = 0
 1299              		@ frame_needed = 0, uses_anonymous_args = 0
 1300              		@ link register save eliminated.
 1301              	.LVL59:
 1302 0000 7047     		bx	lr
 1303              		.cfi_endproc
 1304              	.LFE173:
 1306 0002 00BF     		.section	.text.EvrRtxTimerNew,"ax",%progbits
 1307              		.align	2
 1308              		.weak	EvrRtxTimerNew
 1309              		.thumb
 1310              		.thumb_func
 1312              	EvrRtxTimerNew:
 1313              	.LFB174:
 989:/usr/local/lib/ARM/CMSIS/5.4.0/CMSIS/RTOS2/RTX/Source/rtx_evr.c **** #if defined(RTE_Compiler_EventRecorder)
 990:/usr/local/lib/ARM/CMSIS/5.4.0/CMSIS/RTOS2/RTX/Source/rtx_evr.c ****   (void)EventRecord2(EvtRtxTimerCallback, (uint32_t)func, (uint32_t)argument);
 991:/usr/local/lib/ARM/CMSIS/5.4.0/CMSIS/RTOS2/RTX/Source/rtx_evr.c **** #else
 992:/usr/local/lib/ARM/CMSIS/5.4.0/CMSIS/RTOS2/RTX/Source/rtx_evr.c ****   (void)func;
 993:/usr/local/lib/ARM/CMSIS/5.4.0/CMSIS/RTOS2/RTX/Source/rtx_evr.c ****   (void)argument;
 994:/usr/local/lib/ARM/CMSIS/5.4.0/CMSIS/RTOS2/RTX/Source/rtx_evr.c **** #endif
 995:/usr/local/lib/ARM/CMSIS/5.4.0/CMSIS/RTOS2/RTX/Source/rtx_evr.c **** }
 996:/usr/local/lib/ARM/CMSIS/5.4.0/CMSIS/RTOS2/RTX/Source/rtx_evr.c **** #endif
 997:/usr/local/lib/ARM/CMSIS/5.4.0/CMSIS/RTOS2/RTX/Source/rtx_evr.c **** 
 998:/usr/local/lib/ARM/CMSIS/5.4.0/CMSIS/RTOS2/RTX/Source/rtx_evr.c **** #if (!defined(EVR_RTX_DISABLE) && (OS_EVR_TIMER != 0) && !defined(EVR_RTX_TIMER_NEW_DISABLE))
ARM GAS  /tmp/ccrysPfs.s 			page 39


 999:/usr/local/lib/ARM/CMSIS/5.4.0/CMSIS/RTOS2/RTX/Source/rtx_evr.c **** __WEAK void EvrRtxTimerNew (osTimerFunc_t func, osTimerType_t type, void *argument, const osTimerAt
 1314              		.loc 1 999 0
 1315              		.cfi_startproc
 1316              		@ args = 0, pretend = 0, frame = 0
 1317              		@ frame_needed = 0, uses_anonymous_args = 0
 1318              		@ link register save eliminated.
 1319              	.LVL60:
 1320 0000 7047     		bx	lr
 1321              		.cfi_endproc
 1322              	.LFE174:
 1324 0002 00BF     		.section	.text.EvrRtxTimerCreated,"ax",%progbits
 1325              		.align	2
 1326              		.weak	EvrRtxTimerCreated
 1327              		.thumb
 1328              		.thumb_func
 1330              	EvrRtxTimerCreated:
 1331              	.LFB175:
1000:/usr/local/lib/ARM/CMSIS/5.4.0/CMSIS/RTOS2/RTX/Source/rtx_evr.c **** #if defined(RTE_Compiler_EventRecorder)
1001:/usr/local/lib/ARM/CMSIS/5.4.0/CMSIS/RTOS2/RTX/Source/rtx_evr.c ****   (void)EventRecord4(EvtRtxTimerNew, (uint32_t)func, (uint32_t)type, (uint32_t)argument, (uint32_t)
1002:/usr/local/lib/ARM/CMSIS/5.4.0/CMSIS/RTOS2/RTX/Source/rtx_evr.c ****   if (attr != NULL) {
1003:/usr/local/lib/ARM/CMSIS/5.4.0/CMSIS/RTOS2/RTX/Source/rtx_evr.c ****     (void)EventRecordData(EvtRtxTimerNew_Detail, attr, sizeof (osTimerAttr_t));
1004:/usr/local/lib/ARM/CMSIS/5.4.0/CMSIS/RTOS2/RTX/Source/rtx_evr.c ****   }
1005:/usr/local/lib/ARM/CMSIS/5.4.0/CMSIS/RTOS2/RTX/Source/rtx_evr.c **** #else
1006:/usr/local/lib/ARM/CMSIS/5.4.0/CMSIS/RTOS2/RTX/Source/rtx_evr.c ****   (void)func;
1007:/usr/local/lib/ARM/CMSIS/5.4.0/CMSIS/RTOS2/RTX/Source/rtx_evr.c ****   (void)type;
1008:/usr/local/lib/ARM/CMSIS/5.4.0/CMSIS/RTOS2/RTX/Source/rtx_evr.c ****   (void)argument;
1009:/usr/local/lib/ARM/CMSIS/5.4.0/CMSIS/RTOS2/RTX/Source/rtx_evr.c ****   (void)attr;
1010:/usr/local/lib/ARM/CMSIS/5.4.0/CMSIS/RTOS2/RTX/Source/rtx_evr.c **** #endif
1011:/usr/local/lib/ARM/CMSIS/5.4.0/CMSIS/RTOS2/RTX/Source/rtx_evr.c **** }
1012:/usr/local/lib/ARM/CMSIS/5.4.0/CMSIS/RTOS2/RTX/Source/rtx_evr.c **** #endif
1013:/usr/local/lib/ARM/CMSIS/5.4.0/CMSIS/RTOS2/RTX/Source/rtx_evr.c **** 
1014:/usr/local/lib/ARM/CMSIS/5.4.0/CMSIS/RTOS2/RTX/Source/rtx_evr.c **** #if (!defined(EVR_RTX_DISABLE) && (OS_EVR_TIMER != 0) && !defined(EVR_RTX_TIMER_CREATED_DISABLE))
1015:/usr/local/lib/ARM/CMSIS/5.4.0/CMSIS/RTOS2/RTX/Source/rtx_evr.c **** __WEAK void EvrRtxTimerCreated (osTimerId_t timer_id, const char *name) {
 1332              		.loc 1 1015 0
 1333              		.cfi_startproc
 1334              		@ args = 0, pretend = 0, frame = 0
 1335              		@ frame_needed = 0, uses_anonymous_args = 0
 1336              		@ link register save eliminated.
 1337              	.LVL61:
 1338 0000 7047     		bx	lr
 1339              		.cfi_endproc
 1340              	.LFE175:
 1342 0002 00BF     		.section	.text.EvrRtxTimerGetName,"ax",%progbits
 1343              		.align	2
 1344              		.weak	EvrRtxTimerGetName
 1345              		.thumb
 1346              		.thumb_func
 1348              	EvrRtxTimerGetName:
 1349              	.LFB176:
1016:/usr/local/lib/ARM/CMSIS/5.4.0/CMSIS/RTOS2/RTX/Source/rtx_evr.c **** #if defined(RTE_Compiler_EventRecorder)
1017:/usr/local/lib/ARM/CMSIS/5.4.0/CMSIS/RTOS2/RTX/Source/rtx_evr.c ****   (void)EventRecord2(EvtRtxTimerCreated, (uint32_t)timer_id, (uint32_t)name);
1018:/usr/local/lib/ARM/CMSIS/5.4.0/CMSIS/RTOS2/RTX/Source/rtx_evr.c **** #else
1019:/usr/local/lib/ARM/CMSIS/5.4.0/CMSIS/RTOS2/RTX/Source/rtx_evr.c ****   (void)timer_id;
1020:/usr/local/lib/ARM/CMSIS/5.4.0/CMSIS/RTOS2/RTX/Source/rtx_evr.c ****   (void)name;
1021:/usr/local/lib/ARM/CMSIS/5.4.0/CMSIS/RTOS2/RTX/Source/rtx_evr.c **** #endif
1022:/usr/local/lib/ARM/CMSIS/5.4.0/CMSIS/RTOS2/RTX/Source/rtx_evr.c **** }
1023:/usr/local/lib/ARM/CMSIS/5.4.0/CMSIS/RTOS2/RTX/Source/rtx_evr.c **** #endif
ARM GAS  /tmp/ccrysPfs.s 			page 40


1024:/usr/local/lib/ARM/CMSIS/5.4.0/CMSIS/RTOS2/RTX/Source/rtx_evr.c **** 
1025:/usr/local/lib/ARM/CMSIS/5.4.0/CMSIS/RTOS2/RTX/Source/rtx_evr.c **** #if (!defined(EVR_RTX_DISABLE) && (OS_EVR_TIMER != 0) && !defined(EVR_RTX_TIMER_GET_NAME_DISABLE))
1026:/usr/local/lib/ARM/CMSIS/5.4.0/CMSIS/RTOS2/RTX/Source/rtx_evr.c **** __WEAK void EvrRtxTimerGetName (osTimerId_t timer_id, const char *name) {
 1350              		.loc 1 1026 0
 1351              		.cfi_startproc
 1352              		@ args = 0, pretend = 0, frame = 0
 1353              		@ frame_needed = 0, uses_anonymous_args = 0
 1354              		@ link register save eliminated.
 1355              	.LVL62:
 1356 0000 7047     		bx	lr
 1357              		.cfi_endproc
 1358              	.LFE176:
 1360 0002 00BF     		.section	.text.EvrRtxTimerStart,"ax",%progbits
 1361              		.align	2
 1362              		.weak	EvrRtxTimerStart
 1363              		.thumb
 1364              		.thumb_func
 1366              	EvrRtxTimerStart:
 1367              	.LFB177:
1027:/usr/local/lib/ARM/CMSIS/5.4.0/CMSIS/RTOS2/RTX/Source/rtx_evr.c **** #if defined(RTE_Compiler_EventRecorder)
1028:/usr/local/lib/ARM/CMSIS/5.4.0/CMSIS/RTOS2/RTX/Source/rtx_evr.c ****   (void)EventRecord2(EvtRtxTimerGetName, (uint32_t)timer_id, (uint32_t)name);
1029:/usr/local/lib/ARM/CMSIS/5.4.0/CMSIS/RTOS2/RTX/Source/rtx_evr.c **** #else
1030:/usr/local/lib/ARM/CMSIS/5.4.0/CMSIS/RTOS2/RTX/Source/rtx_evr.c ****   (void)timer_id;
1031:/usr/local/lib/ARM/CMSIS/5.4.0/CMSIS/RTOS2/RTX/Source/rtx_evr.c ****   (void)name;
1032:/usr/local/lib/ARM/CMSIS/5.4.0/CMSIS/RTOS2/RTX/Source/rtx_evr.c **** #endif
1033:/usr/local/lib/ARM/CMSIS/5.4.0/CMSIS/RTOS2/RTX/Source/rtx_evr.c **** }
1034:/usr/local/lib/ARM/CMSIS/5.4.0/CMSIS/RTOS2/RTX/Source/rtx_evr.c **** #endif
1035:/usr/local/lib/ARM/CMSIS/5.4.0/CMSIS/RTOS2/RTX/Source/rtx_evr.c **** 
1036:/usr/local/lib/ARM/CMSIS/5.4.0/CMSIS/RTOS2/RTX/Source/rtx_evr.c **** #if (!defined(EVR_RTX_DISABLE) && (OS_EVR_TIMER != 0) && !defined(EVR_RTX_TIMER_START_DISABLE))
1037:/usr/local/lib/ARM/CMSIS/5.4.0/CMSIS/RTOS2/RTX/Source/rtx_evr.c **** __WEAK void EvrRtxTimerStart (osTimerId_t timer_id, uint32_t ticks) {
 1368              		.loc 1 1037 0
 1369              		.cfi_startproc
 1370              		@ args = 0, pretend = 0, frame = 0
 1371              		@ frame_needed = 0, uses_anonymous_args = 0
 1372              		@ link register save eliminated.
 1373              	.LVL63:
 1374 0000 7047     		bx	lr
 1375              		.cfi_endproc
 1376              	.LFE177:
 1378 0002 00BF     		.section	.text.EvrRtxTimerStarted,"ax",%progbits
 1379              		.align	2
 1380              		.weak	EvrRtxTimerStarted
 1381              		.thumb
 1382              		.thumb_func
 1384              	EvrRtxTimerStarted:
 1385              	.LFB178:
1038:/usr/local/lib/ARM/CMSIS/5.4.0/CMSIS/RTOS2/RTX/Source/rtx_evr.c **** #if defined(RTE_Compiler_EventRecorder)
1039:/usr/local/lib/ARM/CMSIS/5.4.0/CMSIS/RTOS2/RTX/Source/rtx_evr.c ****   (void)EventRecord2(EvtRtxTimerStart, (uint32_t)timer_id, ticks);
1040:/usr/local/lib/ARM/CMSIS/5.4.0/CMSIS/RTOS2/RTX/Source/rtx_evr.c **** #else
1041:/usr/local/lib/ARM/CMSIS/5.4.0/CMSIS/RTOS2/RTX/Source/rtx_evr.c ****   (void)timer_id;
1042:/usr/local/lib/ARM/CMSIS/5.4.0/CMSIS/RTOS2/RTX/Source/rtx_evr.c ****   (void)ticks;
1043:/usr/local/lib/ARM/CMSIS/5.4.0/CMSIS/RTOS2/RTX/Source/rtx_evr.c **** #endif
1044:/usr/local/lib/ARM/CMSIS/5.4.0/CMSIS/RTOS2/RTX/Source/rtx_evr.c **** }
1045:/usr/local/lib/ARM/CMSIS/5.4.0/CMSIS/RTOS2/RTX/Source/rtx_evr.c **** #endif
1046:/usr/local/lib/ARM/CMSIS/5.4.0/CMSIS/RTOS2/RTX/Source/rtx_evr.c **** 
1047:/usr/local/lib/ARM/CMSIS/5.4.0/CMSIS/RTOS2/RTX/Source/rtx_evr.c **** #if (!defined(EVR_RTX_DISABLE) && (OS_EVR_TIMER != 0) && !defined(EVR_RTX_TIMER_STARTED_DISABLE))
1048:/usr/local/lib/ARM/CMSIS/5.4.0/CMSIS/RTOS2/RTX/Source/rtx_evr.c **** __WEAK void EvrRtxTimerStarted (osTimerId_t timer_id) {
ARM GAS  /tmp/ccrysPfs.s 			page 41


 1386              		.loc 1 1048 0
 1387              		.cfi_startproc
 1388              		@ args = 0, pretend = 0, frame = 0
 1389              		@ frame_needed = 0, uses_anonymous_args = 0
 1390              		@ link register save eliminated.
 1391              	.LVL64:
 1392 0000 7047     		bx	lr
 1393              		.cfi_endproc
 1394              	.LFE178:
 1396 0002 00BF     		.section	.text.EvrRtxTimerStop,"ax",%progbits
 1397              		.align	2
 1398              		.weak	EvrRtxTimerStop
 1399              		.thumb
 1400              		.thumb_func
 1402              	EvrRtxTimerStop:
 1403              	.LFB179:
1049:/usr/local/lib/ARM/CMSIS/5.4.0/CMSIS/RTOS2/RTX/Source/rtx_evr.c **** #if defined(RTE_Compiler_EventRecorder)
1050:/usr/local/lib/ARM/CMSIS/5.4.0/CMSIS/RTOS2/RTX/Source/rtx_evr.c ****   (void)EventRecord2(EvtRtxTimerStarted, (uint32_t)timer_id, 0U);
1051:/usr/local/lib/ARM/CMSIS/5.4.0/CMSIS/RTOS2/RTX/Source/rtx_evr.c **** #else
1052:/usr/local/lib/ARM/CMSIS/5.4.0/CMSIS/RTOS2/RTX/Source/rtx_evr.c ****   (void)timer_id;
1053:/usr/local/lib/ARM/CMSIS/5.4.0/CMSIS/RTOS2/RTX/Source/rtx_evr.c **** #endif
1054:/usr/local/lib/ARM/CMSIS/5.4.0/CMSIS/RTOS2/RTX/Source/rtx_evr.c **** }
1055:/usr/local/lib/ARM/CMSIS/5.4.0/CMSIS/RTOS2/RTX/Source/rtx_evr.c **** #endif
1056:/usr/local/lib/ARM/CMSIS/5.4.0/CMSIS/RTOS2/RTX/Source/rtx_evr.c **** 
1057:/usr/local/lib/ARM/CMSIS/5.4.0/CMSIS/RTOS2/RTX/Source/rtx_evr.c **** #if (!defined(EVR_RTX_DISABLE) && (OS_EVR_TIMER != 0) && !defined(EVR_RTX_TIMER_STOP_DISABLE))
1058:/usr/local/lib/ARM/CMSIS/5.4.0/CMSIS/RTOS2/RTX/Source/rtx_evr.c **** __WEAK void EvrRtxTimerStop (osTimerId_t timer_id) {
 1404              		.loc 1 1058 0
 1405              		.cfi_startproc
 1406              		@ args = 0, pretend = 0, frame = 0
 1407              		@ frame_needed = 0, uses_anonymous_args = 0
 1408              		@ link register save eliminated.
 1409              	.LVL65:
 1410 0000 7047     		bx	lr
 1411              		.cfi_endproc
 1412              	.LFE179:
 1414 0002 00BF     		.section	.text.EvrRtxTimerStopped,"ax",%progbits
 1415              		.align	2
 1416              		.weak	EvrRtxTimerStopped
 1417              		.thumb
 1418              		.thumb_func
 1420              	EvrRtxTimerStopped:
 1421              	.LFB180:
1059:/usr/local/lib/ARM/CMSIS/5.4.0/CMSIS/RTOS2/RTX/Source/rtx_evr.c **** #if defined(RTE_Compiler_EventRecorder)
1060:/usr/local/lib/ARM/CMSIS/5.4.0/CMSIS/RTOS2/RTX/Source/rtx_evr.c ****   (void)EventRecord2(EvtRtxTimerStop, (uint32_t)timer_id, 0U);
1061:/usr/local/lib/ARM/CMSIS/5.4.0/CMSIS/RTOS2/RTX/Source/rtx_evr.c **** #else
1062:/usr/local/lib/ARM/CMSIS/5.4.0/CMSIS/RTOS2/RTX/Source/rtx_evr.c ****   (void)timer_id;
1063:/usr/local/lib/ARM/CMSIS/5.4.0/CMSIS/RTOS2/RTX/Source/rtx_evr.c **** #endif
1064:/usr/local/lib/ARM/CMSIS/5.4.0/CMSIS/RTOS2/RTX/Source/rtx_evr.c **** }
1065:/usr/local/lib/ARM/CMSIS/5.4.0/CMSIS/RTOS2/RTX/Source/rtx_evr.c **** #endif
1066:/usr/local/lib/ARM/CMSIS/5.4.0/CMSIS/RTOS2/RTX/Source/rtx_evr.c **** 
1067:/usr/local/lib/ARM/CMSIS/5.4.0/CMSIS/RTOS2/RTX/Source/rtx_evr.c **** #if (!defined(EVR_RTX_DISABLE) && (OS_EVR_TIMER != 0) && !defined(EVR_RTX_TIMER_STOPPED_DISABLE))
1068:/usr/local/lib/ARM/CMSIS/5.4.0/CMSIS/RTOS2/RTX/Source/rtx_evr.c **** __WEAK void EvrRtxTimerStopped (osTimerId_t timer_id) {
 1422              		.loc 1 1068 0
 1423              		.cfi_startproc
 1424              		@ args = 0, pretend = 0, frame = 0
 1425              		@ frame_needed = 0, uses_anonymous_args = 0
 1426              		@ link register save eliminated.
ARM GAS  /tmp/ccrysPfs.s 			page 42


 1427              	.LVL66:
 1428 0000 7047     		bx	lr
 1429              		.cfi_endproc
 1430              	.LFE180:
 1432 0002 00BF     		.section	.text.EvrRtxTimerIsRunning,"ax",%progbits
 1433              		.align	2
 1434              		.weak	EvrRtxTimerIsRunning
 1435              		.thumb
 1436              		.thumb_func
 1438              	EvrRtxTimerIsRunning:
 1439              	.LFB181:
1069:/usr/local/lib/ARM/CMSIS/5.4.0/CMSIS/RTOS2/RTX/Source/rtx_evr.c **** #if defined(RTE_Compiler_EventRecorder)
1070:/usr/local/lib/ARM/CMSIS/5.4.0/CMSIS/RTOS2/RTX/Source/rtx_evr.c ****   (void)EventRecord2(EvtRtxTimerStopped, (uint32_t)timer_id, 0U);
1071:/usr/local/lib/ARM/CMSIS/5.4.0/CMSIS/RTOS2/RTX/Source/rtx_evr.c **** #else
1072:/usr/local/lib/ARM/CMSIS/5.4.0/CMSIS/RTOS2/RTX/Source/rtx_evr.c ****   (void)timer_id;
1073:/usr/local/lib/ARM/CMSIS/5.4.0/CMSIS/RTOS2/RTX/Source/rtx_evr.c **** #endif
1074:/usr/local/lib/ARM/CMSIS/5.4.0/CMSIS/RTOS2/RTX/Source/rtx_evr.c **** }
1075:/usr/local/lib/ARM/CMSIS/5.4.0/CMSIS/RTOS2/RTX/Source/rtx_evr.c **** #endif
1076:/usr/local/lib/ARM/CMSIS/5.4.0/CMSIS/RTOS2/RTX/Source/rtx_evr.c **** 
1077:/usr/local/lib/ARM/CMSIS/5.4.0/CMSIS/RTOS2/RTX/Source/rtx_evr.c **** #if (!defined(EVR_RTX_DISABLE) && (OS_EVR_TIMER != 0) && !defined(EVR_RTX_TIMER_IS_RUNNING_DISABLE)
1078:/usr/local/lib/ARM/CMSIS/5.4.0/CMSIS/RTOS2/RTX/Source/rtx_evr.c **** __WEAK void EvrRtxTimerIsRunning (osTimerId_t timer_id, uint32_t running) {
 1440              		.loc 1 1078 0
 1441              		.cfi_startproc
 1442              		@ args = 0, pretend = 0, frame = 0
 1443              		@ frame_needed = 0, uses_anonymous_args = 0
 1444              		@ link register save eliminated.
 1445              	.LVL67:
 1446 0000 7047     		bx	lr
 1447              		.cfi_endproc
 1448              	.LFE181:
 1450 0002 00BF     		.section	.text.EvrRtxTimerDelete,"ax",%progbits
 1451              		.align	2
 1452              		.weak	EvrRtxTimerDelete
 1453              		.thumb
 1454              		.thumb_func
 1456              	EvrRtxTimerDelete:
 1457              	.LFB182:
1079:/usr/local/lib/ARM/CMSIS/5.4.0/CMSIS/RTOS2/RTX/Source/rtx_evr.c **** #if defined(RTE_Compiler_EventRecorder)
1080:/usr/local/lib/ARM/CMSIS/5.4.0/CMSIS/RTOS2/RTX/Source/rtx_evr.c ****   (void)EventRecord2(EvtRtxTimerIsRunning, (uint32_t)timer_id, running);
1081:/usr/local/lib/ARM/CMSIS/5.4.0/CMSIS/RTOS2/RTX/Source/rtx_evr.c **** #else
1082:/usr/local/lib/ARM/CMSIS/5.4.0/CMSIS/RTOS2/RTX/Source/rtx_evr.c ****   (void)timer_id;
1083:/usr/local/lib/ARM/CMSIS/5.4.0/CMSIS/RTOS2/RTX/Source/rtx_evr.c ****   (void)running;
1084:/usr/local/lib/ARM/CMSIS/5.4.0/CMSIS/RTOS2/RTX/Source/rtx_evr.c **** #endif
1085:/usr/local/lib/ARM/CMSIS/5.4.0/CMSIS/RTOS2/RTX/Source/rtx_evr.c **** }
1086:/usr/local/lib/ARM/CMSIS/5.4.0/CMSIS/RTOS2/RTX/Source/rtx_evr.c **** #endif
1087:/usr/local/lib/ARM/CMSIS/5.4.0/CMSIS/RTOS2/RTX/Source/rtx_evr.c **** 
1088:/usr/local/lib/ARM/CMSIS/5.4.0/CMSIS/RTOS2/RTX/Source/rtx_evr.c **** #if (!defined(EVR_RTX_DISABLE) && (OS_EVR_TIMER != 0) && !defined(EVR_RTX_TIMER_DELETE_DISABLE))
1089:/usr/local/lib/ARM/CMSIS/5.4.0/CMSIS/RTOS2/RTX/Source/rtx_evr.c **** __WEAK void EvrRtxTimerDelete (osTimerId_t timer_id) {
 1458              		.loc 1 1089 0
 1459              		.cfi_startproc
 1460              		@ args = 0, pretend = 0, frame = 0
 1461              		@ frame_needed = 0, uses_anonymous_args = 0
 1462              		@ link register save eliminated.
 1463              	.LVL68:
 1464 0000 7047     		bx	lr
 1465              		.cfi_endproc
 1466              	.LFE182:
ARM GAS  /tmp/ccrysPfs.s 			page 43


 1468 0002 00BF     		.section	.text.EvrRtxTimerDestroyed,"ax",%progbits
 1469              		.align	2
 1470              		.weak	EvrRtxTimerDestroyed
 1471              		.thumb
 1472              		.thumb_func
 1474              	EvrRtxTimerDestroyed:
 1475              	.LFB183:
1090:/usr/local/lib/ARM/CMSIS/5.4.0/CMSIS/RTOS2/RTX/Source/rtx_evr.c **** #if defined(RTE_Compiler_EventRecorder)
1091:/usr/local/lib/ARM/CMSIS/5.4.0/CMSIS/RTOS2/RTX/Source/rtx_evr.c ****   (void)EventRecord2(EvtRtxTimerDelete, (uint32_t)timer_id, 0U);
1092:/usr/local/lib/ARM/CMSIS/5.4.0/CMSIS/RTOS2/RTX/Source/rtx_evr.c **** #else
1093:/usr/local/lib/ARM/CMSIS/5.4.0/CMSIS/RTOS2/RTX/Source/rtx_evr.c ****   (void)timer_id;
1094:/usr/local/lib/ARM/CMSIS/5.4.0/CMSIS/RTOS2/RTX/Source/rtx_evr.c **** #endif
1095:/usr/local/lib/ARM/CMSIS/5.4.0/CMSIS/RTOS2/RTX/Source/rtx_evr.c **** }
1096:/usr/local/lib/ARM/CMSIS/5.4.0/CMSIS/RTOS2/RTX/Source/rtx_evr.c **** #endif
1097:/usr/local/lib/ARM/CMSIS/5.4.0/CMSIS/RTOS2/RTX/Source/rtx_evr.c **** 
1098:/usr/local/lib/ARM/CMSIS/5.4.0/CMSIS/RTOS2/RTX/Source/rtx_evr.c **** #if (!defined(EVR_RTX_DISABLE) && (OS_EVR_TIMER != 0) && !defined(EVR_RTX_TIMER_DESTROYED_DISABLE))
1099:/usr/local/lib/ARM/CMSIS/5.4.0/CMSIS/RTOS2/RTX/Source/rtx_evr.c **** __WEAK void EvrRtxTimerDestroyed (osTimerId_t timer_id) {
 1476              		.loc 1 1099 0
 1477              		.cfi_startproc
 1478              		@ args = 0, pretend = 0, frame = 0
 1479              		@ frame_needed = 0, uses_anonymous_args = 0
 1480              		@ link register save eliminated.
 1481              	.LVL69:
 1482 0000 7047     		bx	lr
 1483              		.cfi_endproc
 1484              	.LFE183:
 1486 0002 00BF     		.section	.text.EvrRtxEventFlagsError,"ax",%progbits
 1487              		.align	2
 1488              		.weak	EvrRtxEventFlagsError
 1489              		.thumb
 1490              		.thumb_func
 1492              	EvrRtxEventFlagsError:
 1493              	.LFB184:
1100:/usr/local/lib/ARM/CMSIS/5.4.0/CMSIS/RTOS2/RTX/Source/rtx_evr.c **** #if defined(RTE_Compiler_EventRecorder)
1101:/usr/local/lib/ARM/CMSIS/5.4.0/CMSIS/RTOS2/RTX/Source/rtx_evr.c ****   (void)EventRecord2(EvtRtxTimerDestroyed, (uint32_t)timer_id, 0U);
1102:/usr/local/lib/ARM/CMSIS/5.4.0/CMSIS/RTOS2/RTX/Source/rtx_evr.c **** #else
1103:/usr/local/lib/ARM/CMSIS/5.4.0/CMSIS/RTOS2/RTX/Source/rtx_evr.c ****   (void)timer_id;
1104:/usr/local/lib/ARM/CMSIS/5.4.0/CMSIS/RTOS2/RTX/Source/rtx_evr.c **** #endif
1105:/usr/local/lib/ARM/CMSIS/5.4.0/CMSIS/RTOS2/RTX/Source/rtx_evr.c **** }
1106:/usr/local/lib/ARM/CMSIS/5.4.0/CMSIS/RTOS2/RTX/Source/rtx_evr.c **** #endif
1107:/usr/local/lib/ARM/CMSIS/5.4.0/CMSIS/RTOS2/RTX/Source/rtx_evr.c **** 
1108:/usr/local/lib/ARM/CMSIS/5.4.0/CMSIS/RTOS2/RTX/Source/rtx_evr.c **** 
1109:/usr/local/lib/ARM/CMSIS/5.4.0/CMSIS/RTOS2/RTX/Source/rtx_evr.c **** //  ==== Event Flags Events ====
1110:/usr/local/lib/ARM/CMSIS/5.4.0/CMSIS/RTOS2/RTX/Source/rtx_evr.c **** 
1111:/usr/local/lib/ARM/CMSIS/5.4.0/CMSIS/RTOS2/RTX/Source/rtx_evr.c **** #if (!defined(EVR_RTX_DISABLE) && (OS_EVR_EVFLAGS != 0) && !defined(EVR_RTX_EVENT_FLAGS_ERROR_DISAB
1112:/usr/local/lib/ARM/CMSIS/5.4.0/CMSIS/RTOS2/RTX/Source/rtx_evr.c **** __WEAK void EvrRtxEventFlagsError (osEventFlagsId_t ef_id, int32_t status) {
 1494              		.loc 1 1112 0
 1495              		.cfi_startproc
 1496              		@ args = 0, pretend = 0, frame = 0
 1497              		@ frame_needed = 0, uses_anonymous_args = 0
 1498              		@ link register save eliminated.
 1499              	.LVL70:
 1500 0000 7047     		bx	lr
 1501              		.cfi_endproc
 1502              	.LFE184:
 1504 0002 00BF     		.section	.text.EvrRtxEventFlagsNew,"ax",%progbits
 1505              		.align	2
ARM GAS  /tmp/ccrysPfs.s 			page 44


 1506              		.weak	EvrRtxEventFlagsNew
 1507              		.thumb
 1508              		.thumb_func
 1510              	EvrRtxEventFlagsNew:
 1511              	.LFB185:
1113:/usr/local/lib/ARM/CMSIS/5.4.0/CMSIS/RTOS2/RTX/Source/rtx_evr.c **** #if defined(RTE_Compiler_EventRecorder)
1114:/usr/local/lib/ARM/CMSIS/5.4.0/CMSIS/RTOS2/RTX/Source/rtx_evr.c ****   (void)EventRecord2(EvtRtxEventFlagsError, (uint32_t)ef_id, (uint32_t)status);
1115:/usr/local/lib/ARM/CMSIS/5.4.0/CMSIS/RTOS2/RTX/Source/rtx_evr.c **** #else
1116:/usr/local/lib/ARM/CMSIS/5.4.0/CMSIS/RTOS2/RTX/Source/rtx_evr.c ****   (void)ef_id;
1117:/usr/local/lib/ARM/CMSIS/5.4.0/CMSIS/RTOS2/RTX/Source/rtx_evr.c ****   (void)status;
1118:/usr/local/lib/ARM/CMSIS/5.4.0/CMSIS/RTOS2/RTX/Source/rtx_evr.c **** #endif
1119:/usr/local/lib/ARM/CMSIS/5.4.0/CMSIS/RTOS2/RTX/Source/rtx_evr.c **** }
1120:/usr/local/lib/ARM/CMSIS/5.4.0/CMSIS/RTOS2/RTX/Source/rtx_evr.c **** #endif
1121:/usr/local/lib/ARM/CMSIS/5.4.0/CMSIS/RTOS2/RTX/Source/rtx_evr.c **** 
1122:/usr/local/lib/ARM/CMSIS/5.4.0/CMSIS/RTOS2/RTX/Source/rtx_evr.c **** #if (!defined(EVR_RTX_DISABLE) && (OS_EVR_EVFLAGS != 0) && !defined(EVR_RTX_EVENT_FLAGS_NEW_DISABLE
1123:/usr/local/lib/ARM/CMSIS/5.4.0/CMSIS/RTOS2/RTX/Source/rtx_evr.c **** __WEAK void EvrRtxEventFlagsNew (const osEventFlagsAttr_t *attr) {
 1512              		.loc 1 1123 0
 1513              		.cfi_startproc
 1514              		@ args = 0, pretend = 0, frame = 0
 1515              		@ frame_needed = 0, uses_anonymous_args = 0
 1516              		@ link register save eliminated.
 1517              	.LVL71:
 1518 0000 7047     		bx	lr
 1519              		.cfi_endproc
 1520              	.LFE185:
 1522 0002 00BF     		.section	.text.EvrRtxEventFlagsCreated,"ax",%progbits
 1523              		.align	2
 1524              		.weak	EvrRtxEventFlagsCreated
 1525              		.thumb
 1526              		.thumb_func
 1528              	EvrRtxEventFlagsCreated:
 1529              	.LFB186:
1124:/usr/local/lib/ARM/CMSIS/5.4.0/CMSIS/RTOS2/RTX/Source/rtx_evr.c **** #if defined(RTE_Compiler_EventRecorder)
1125:/usr/local/lib/ARM/CMSIS/5.4.0/CMSIS/RTOS2/RTX/Source/rtx_evr.c ****   (void)EventRecord2(EvtRtxEventFlagsNew, (uint32_t)attr, 0U);
1126:/usr/local/lib/ARM/CMSIS/5.4.0/CMSIS/RTOS2/RTX/Source/rtx_evr.c ****   if (attr != NULL) {
1127:/usr/local/lib/ARM/CMSIS/5.4.0/CMSIS/RTOS2/RTX/Source/rtx_evr.c ****     (void)EventRecordData(EvtRtxEventFlagsNew_Detail, attr, sizeof (osEventFlagsAttr_t));
1128:/usr/local/lib/ARM/CMSIS/5.4.0/CMSIS/RTOS2/RTX/Source/rtx_evr.c ****   }
1129:/usr/local/lib/ARM/CMSIS/5.4.0/CMSIS/RTOS2/RTX/Source/rtx_evr.c **** #else
1130:/usr/local/lib/ARM/CMSIS/5.4.0/CMSIS/RTOS2/RTX/Source/rtx_evr.c ****   (void)attr;
1131:/usr/local/lib/ARM/CMSIS/5.4.0/CMSIS/RTOS2/RTX/Source/rtx_evr.c **** #endif
1132:/usr/local/lib/ARM/CMSIS/5.4.0/CMSIS/RTOS2/RTX/Source/rtx_evr.c **** }
1133:/usr/local/lib/ARM/CMSIS/5.4.0/CMSIS/RTOS2/RTX/Source/rtx_evr.c **** #endif
1134:/usr/local/lib/ARM/CMSIS/5.4.0/CMSIS/RTOS2/RTX/Source/rtx_evr.c **** 
1135:/usr/local/lib/ARM/CMSIS/5.4.0/CMSIS/RTOS2/RTX/Source/rtx_evr.c **** #if (!defined(EVR_RTX_DISABLE) && (OS_EVR_EVFLAGS != 0) && !defined(EVR_RTX_EVENT_FLAGS_CREATED_DIS
1136:/usr/local/lib/ARM/CMSIS/5.4.0/CMSIS/RTOS2/RTX/Source/rtx_evr.c **** __WEAK void EvrRtxEventFlagsCreated (osEventFlagsId_t ef_id, const char *name) {
 1530              		.loc 1 1136 0
 1531              		.cfi_startproc
 1532              		@ args = 0, pretend = 0, frame = 0
 1533              		@ frame_needed = 0, uses_anonymous_args = 0
 1534              		@ link register save eliminated.
 1535              	.LVL72:
 1536 0000 7047     		bx	lr
 1537              		.cfi_endproc
 1538              	.LFE186:
 1540 0002 00BF     		.section	.text.EvrRtxEventFlagsGetName,"ax",%progbits
 1541              		.align	2
 1542              		.weak	EvrRtxEventFlagsGetName
ARM GAS  /tmp/ccrysPfs.s 			page 45


 1543              		.thumb
 1544              		.thumb_func
 1546              	EvrRtxEventFlagsGetName:
 1547              	.LFB187:
1137:/usr/local/lib/ARM/CMSIS/5.4.0/CMSIS/RTOS2/RTX/Source/rtx_evr.c **** #if defined(RTE_Compiler_EventRecorder)
1138:/usr/local/lib/ARM/CMSIS/5.4.0/CMSIS/RTOS2/RTX/Source/rtx_evr.c ****   (void)EventRecord2(EvtRtxEventFlagsCreated, (uint32_t)ef_id, (uint32_t)name);
1139:/usr/local/lib/ARM/CMSIS/5.4.0/CMSIS/RTOS2/RTX/Source/rtx_evr.c **** #else
1140:/usr/local/lib/ARM/CMSIS/5.4.0/CMSIS/RTOS2/RTX/Source/rtx_evr.c ****   (void)ef_id;
1141:/usr/local/lib/ARM/CMSIS/5.4.0/CMSIS/RTOS2/RTX/Source/rtx_evr.c ****   (void)name;
1142:/usr/local/lib/ARM/CMSIS/5.4.0/CMSIS/RTOS2/RTX/Source/rtx_evr.c **** #endif
1143:/usr/local/lib/ARM/CMSIS/5.4.0/CMSIS/RTOS2/RTX/Source/rtx_evr.c **** }
1144:/usr/local/lib/ARM/CMSIS/5.4.0/CMSIS/RTOS2/RTX/Source/rtx_evr.c **** #endif
1145:/usr/local/lib/ARM/CMSIS/5.4.0/CMSIS/RTOS2/RTX/Source/rtx_evr.c **** 
1146:/usr/local/lib/ARM/CMSIS/5.4.0/CMSIS/RTOS2/RTX/Source/rtx_evr.c **** #if (!defined(EVR_RTX_DISABLE) && (OS_EVR_EVFLAGS != 0) && !defined(EVR_RTX_EVENT_FLAGS_GET_NAME_DI
1147:/usr/local/lib/ARM/CMSIS/5.4.0/CMSIS/RTOS2/RTX/Source/rtx_evr.c **** __WEAK void EvrRtxEventFlagsGetName (osEventFlagsId_t ef_id, const char *name) {
 1548              		.loc 1 1147 0
 1549              		.cfi_startproc
 1550              		@ args = 0, pretend = 0, frame = 0
 1551              		@ frame_needed = 0, uses_anonymous_args = 0
 1552              		@ link register save eliminated.
 1553              	.LVL73:
 1554 0000 7047     		bx	lr
 1555              		.cfi_endproc
 1556              	.LFE187:
 1558 0002 00BF     		.section	.text.EvrRtxEventFlagsSet,"ax",%progbits
 1559              		.align	2
 1560              		.weak	EvrRtxEventFlagsSet
 1561              		.thumb
 1562              		.thumb_func
 1564              	EvrRtxEventFlagsSet:
 1565              	.LFB188:
1148:/usr/local/lib/ARM/CMSIS/5.4.0/CMSIS/RTOS2/RTX/Source/rtx_evr.c **** #if defined(RTE_Compiler_EventRecorder)
1149:/usr/local/lib/ARM/CMSIS/5.4.0/CMSIS/RTOS2/RTX/Source/rtx_evr.c ****   (void)EventRecord2(EvtRtxEventFlagsGetName, (uint32_t)ef_id, (uint32_t)name);
1150:/usr/local/lib/ARM/CMSIS/5.4.0/CMSIS/RTOS2/RTX/Source/rtx_evr.c **** #else
1151:/usr/local/lib/ARM/CMSIS/5.4.0/CMSIS/RTOS2/RTX/Source/rtx_evr.c ****   (void)ef_id;
1152:/usr/local/lib/ARM/CMSIS/5.4.0/CMSIS/RTOS2/RTX/Source/rtx_evr.c ****   (void)name;
1153:/usr/local/lib/ARM/CMSIS/5.4.0/CMSIS/RTOS2/RTX/Source/rtx_evr.c **** #endif
1154:/usr/local/lib/ARM/CMSIS/5.4.0/CMSIS/RTOS2/RTX/Source/rtx_evr.c **** }
1155:/usr/local/lib/ARM/CMSIS/5.4.0/CMSIS/RTOS2/RTX/Source/rtx_evr.c **** #endif
1156:/usr/local/lib/ARM/CMSIS/5.4.0/CMSIS/RTOS2/RTX/Source/rtx_evr.c **** 
1157:/usr/local/lib/ARM/CMSIS/5.4.0/CMSIS/RTOS2/RTX/Source/rtx_evr.c **** #if (!defined(EVR_RTX_DISABLE) && (OS_EVR_EVFLAGS != 0) && !defined(EVR_RTX_EVENT_FLAGS_SET_DISABLE
1158:/usr/local/lib/ARM/CMSIS/5.4.0/CMSIS/RTOS2/RTX/Source/rtx_evr.c **** __WEAK void EvrRtxEventFlagsSet (osEventFlagsId_t ef_id, uint32_t flags) {
 1566              		.loc 1 1158 0
 1567              		.cfi_startproc
 1568              		@ args = 0, pretend = 0, frame = 0
 1569              		@ frame_needed = 0, uses_anonymous_args = 0
 1570              		@ link register save eliminated.
 1571              	.LVL74:
 1572 0000 7047     		bx	lr
 1573              		.cfi_endproc
 1574              	.LFE188:
 1576 0002 00BF     		.section	.text.EvrRtxEventFlagsSetDone,"ax",%progbits
 1577              		.align	2
 1578              		.weak	EvrRtxEventFlagsSetDone
 1579              		.thumb
 1580              		.thumb_func
 1582              	EvrRtxEventFlagsSetDone:
ARM GAS  /tmp/ccrysPfs.s 			page 46


 1583              	.LFB189:
1159:/usr/local/lib/ARM/CMSIS/5.4.0/CMSIS/RTOS2/RTX/Source/rtx_evr.c **** #if defined(RTE_Compiler_EventRecorder)
1160:/usr/local/lib/ARM/CMSIS/5.4.0/CMSIS/RTOS2/RTX/Source/rtx_evr.c ****   (void)EventRecord2(EvtRtxEventFlagsSet, (uint32_t)ef_id, flags);
1161:/usr/local/lib/ARM/CMSIS/5.4.0/CMSIS/RTOS2/RTX/Source/rtx_evr.c **** #else
1162:/usr/local/lib/ARM/CMSIS/5.4.0/CMSIS/RTOS2/RTX/Source/rtx_evr.c ****   (void)ef_id;
1163:/usr/local/lib/ARM/CMSIS/5.4.0/CMSIS/RTOS2/RTX/Source/rtx_evr.c ****   (void)flags;
1164:/usr/local/lib/ARM/CMSIS/5.4.0/CMSIS/RTOS2/RTX/Source/rtx_evr.c **** #endif
1165:/usr/local/lib/ARM/CMSIS/5.4.0/CMSIS/RTOS2/RTX/Source/rtx_evr.c **** }
1166:/usr/local/lib/ARM/CMSIS/5.4.0/CMSIS/RTOS2/RTX/Source/rtx_evr.c **** #endif
1167:/usr/local/lib/ARM/CMSIS/5.4.0/CMSIS/RTOS2/RTX/Source/rtx_evr.c **** 
1168:/usr/local/lib/ARM/CMSIS/5.4.0/CMSIS/RTOS2/RTX/Source/rtx_evr.c **** #if (!defined(EVR_RTX_DISABLE) && (OS_EVR_EVFLAGS != 0) && !defined(EVR_RTX_EVENT_FLAGS_SET_DONE_DI
1169:/usr/local/lib/ARM/CMSIS/5.4.0/CMSIS/RTOS2/RTX/Source/rtx_evr.c **** __WEAK void EvrRtxEventFlagsSetDone (osEventFlagsId_t ef_id, uint32_t event_flags) {
 1584              		.loc 1 1169 0
 1585              		.cfi_startproc
 1586              		@ args = 0, pretend = 0, frame = 0
 1587              		@ frame_needed = 0, uses_anonymous_args = 0
 1588              		@ link register save eliminated.
 1589              	.LVL75:
 1590 0000 7047     		bx	lr
 1591              		.cfi_endproc
 1592              	.LFE189:
 1594 0002 00BF     		.section	.text.EvrRtxEventFlagsClear,"ax",%progbits
 1595              		.align	2
 1596              		.weak	EvrRtxEventFlagsClear
 1597              		.thumb
 1598              		.thumb_func
 1600              	EvrRtxEventFlagsClear:
 1601              	.LFB190:
1170:/usr/local/lib/ARM/CMSIS/5.4.0/CMSIS/RTOS2/RTX/Source/rtx_evr.c **** #if defined(RTE_Compiler_EventRecorder)
1171:/usr/local/lib/ARM/CMSIS/5.4.0/CMSIS/RTOS2/RTX/Source/rtx_evr.c ****   (void)EventRecord2(EvtRtxEventFlagsSetDone, (uint32_t)ef_id, event_flags);
1172:/usr/local/lib/ARM/CMSIS/5.4.0/CMSIS/RTOS2/RTX/Source/rtx_evr.c **** #else
1173:/usr/local/lib/ARM/CMSIS/5.4.0/CMSIS/RTOS2/RTX/Source/rtx_evr.c ****   (void)ef_id;
1174:/usr/local/lib/ARM/CMSIS/5.4.0/CMSIS/RTOS2/RTX/Source/rtx_evr.c ****   (void)event_flags;
1175:/usr/local/lib/ARM/CMSIS/5.4.0/CMSIS/RTOS2/RTX/Source/rtx_evr.c **** #endif
1176:/usr/local/lib/ARM/CMSIS/5.4.0/CMSIS/RTOS2/RTX/Source/rtx_evr.c **** }
1177:/usr/local/lib/ARM/CMSIS/5.4.0/CMSIS/RTOS2/RTX/Source/rtx_evr.c **** #endif
1178:/usr/local/lib/ARM/CMSIS/5.4.0/CMSIS/RTOS2/RTX/Source/rtx_evr.c **** 
1179:/usr/local/lib/ARM/CMSIS/5.4.0/CMSIS/RTOS2/RTX/Source/rtx_evr.c **** #if (!defined(EVR_RTX_DISABLE) && (OS_EVR_EVFLAGS != 0) && !defined(EVR_RTX_EVENT_FLAGS_CLEAR_DISAB
1180:/usr/local/lib/ARM/CMSIS/5.4.0/CMSIS/RTOS2/RTX/Source/rtx_evr.c **** __WEAK void EvrRtxEventFlagsClear (osEventFlagsId_t ef_id, uint32_t flags) {
 1602              		.loc 1 1180 0
 1603              		.cfi_startproc
 1604              		@ args = 0, pretend = 0, frame = 0
 1605              		@ frame_needed = 0, uses_anonymous_args = 0
 1606              		@ link register save eliminated.
 1607              	.LVL76:
 1608 0000 7047     		bx	lr
 1609              		.cfi_endproc
 1610              	.LFE190:
 1612 0002 00BF     		.section	.text.EvrRtxEventFlagsClearDone,"ax",%progbits
 1613              		.align	2
 1614              		.weak	EvrRtxEventFlagsClearDone
 1615              		.thumb
 1616              		.thumb_func
 1618              	EvrRtxEventFlagsClearDone:
 1619              	.LFB191:
1181:/usr/local/lib/ARM/CMSIS/5.4.0/CMSIS/RTOS2/RTX/Source/rtx_evr.c **** #if defined(RTE_Compiler_EventRecorder)
1182:/usr/local/lib/ARM/CMSIS/5.4.0/CMSIS/RTOS2/RTX/Source/rtx_evr.c ****   (void)EventRecord2(EvtRtxEventFlagsClear, (uint32_t)ef_id, flags);
ARM GAS  /tmp/ccrysPfs.s 			page 47


1183:/usr/local/lib/ARM/CMSIS/5.4.0/CMSIS/RTOS2/RTX/Source/rtx_evr.c **** #else
1184:/usr/local/lib/ARM/CMSIS/5.4.0/CMSIS/RTOS2/RTX/Source/rtx_evr.c ****   (void)ef_id;
1185:/usr/local/lib/ARM/CMSIS/5.4.0/CMSIS/RTOS2/RTX/Source/rtx_evr.c ****   (void)flags;
1186:/usr/local/lib/ARM/CMSIS/5.4.0/CMSIS/RTOS2/RTX/Source/rtx_evr.c **** #endif
1187:/usr/local/lib/ARM/CMSIS/5.4.0/CMSIS/RTOS2/RTX/Source/rtx_evr.c **** }
1188:/usr/local/lib/ARM/CMSIS/5.4.0/CMSIS/RTOS2/RTX/Source/rtx_evr.c **** #endif
1189:/usr/local/lib/ARM/CMSIS/5.4.0/CMSIS/RTOS2/RTX/Source/rtx_evr.c **** 
1190:/usr/local/lib/ARM/CMSIS/5.4.0/CMSIS/RTOS2/RTX/Source/rtx_evr.c **** #if (!defined(EVR_RTX_DISABLE) && (OS_EVR_EVFLAGS != 0) && !defined(EVR_RTX_EVENT_FLAGS_CLEAR_DONE_
1191:/usr/local/lib/ARM/CMSIS/5.4.0/CMSIS/RTOS2/RTX/Source/rtx_evr.c **** __WEAK void EvrRtxEventFlagsClearDone (osEventFlagsId_t ef_id, uint32_t event_flags) {
 1620              		.loc 1 1191 0
 1621              		.cfi_startproc
 1622              		@ args = 0, pretend = 0, frame = 0
 1623              		@ frame_needed = 0, uses_anonymous_args = 0
 1624              		@ link register save eliminated.
 1625              	.LVL77:
 1626 0000 7047     		bx	lr
 1627              		.cfi_endproc
 1628              	.LFE191:
 1630 0002 00BF     		.section	.text.EvrRtxEventFlagsGet,"ax",%progbits
 1631              		.align	2
 1632              		.weak	EvrRtxEventFlagsGet
 1633              		.thumb
 1634              		.thumb_func
 1636              	EvrRtxEventFlagsGet:
 1637              	.LFB192:
1192:/usr/local/lib/ARM/CMSIS/5.4.0/CMSIS/RTOS2/RTX/Source/rtx_evr.c **** #if defined(RTE_Compiler_EventRecorder)
1193:/usr/local/lib/ARM/CMSIS/5.4.0/CMSIS/RTOS2/RTX/Source/rtx_evr.c ****   (void)EventRecord2(EvtRtxEventFlagsClearDone, (uint32_t)ef_id, event_flags);
1194:/usr/local/lib/ARM/CMSIS/5.4.0/CMSIS/RTOS2/RTX/Source/rtx_evr.c **** #else
1195:/usr/local/lib/ARM/CMSIS/5.4.0/CMSIS/RTOS2/RTX/Source/rtx_evr.c ****   (void)ef_id;
1196:/usr/local/lib/ARM/CMSIS/5.4.0/CMSIS/RTOS2/RTX/Source/rtx_evr.c ****   (void)event_flags;
1197:/usr/local/lib/ARM/CMSIS/5.4.0/CMSIS/RTOS2/RTX/Source/rtx_evr.c **** #endif
1198:/usr/local/lib/ARM/CMSIS/5.4.0/CMSIS/RTOS2/RTX/Source/rtx_evr.c **** }
1199:/usr/local/lib/ARM/CMSIS/5.4.0/CMSIS/RTOS2/RTX/Source/rtx_evr.c **** #endif
1200:/usr/local/lib/ARM/CMSIS/5.4.0/CMSIS/RTOS2/RTX/Source/rtx_evr.c **** 
1201:/usr/local/lib/ARM/CMSIS/5.4.0/CMSIS/RTOS2/RTX/Source/rtx_evr.c **** #if (!defined(EVR_RTX_DISABLE) && (OS_EVR_EVFLAGS != 0) && !defined(EVR_RTX_EVENT_FLAGS_GET_DISABLE
1202:/usr/local/lib/ARM/CMSIS/5.4.0/CMSIS/RTOS2/RTX/Source/rtx_evr.c **** __WEAK void EvrRtxEventFlagsGet (osEventFlagsId_t ef_id, uint32_t event_flags) {
 1638              		.loc 1 1202 0
 1639              		.cfi_startproc
 1640              		@ args = 0, pretend = 0, frame = 0
 1641              		@ frame_needed = 0, uses_anonymous_args = 0
 1642              		@ link register save eliminated.
 1643              	.LVL78:
 1644 0000 7047     		bx	lr
 1645              		.cfi_endproc
 1646              	.LFE192:
 1648 0002 00BF     		.section	.text.EvrRtxEventFlagsWait,"ax",%progbits
 1649              		.align	2
 1650              		.weak	EvrRtxEventFlagsWait
 1651              		.thumb
 1652              		.thumb_func
 1654              	EvrRtxEventFlagsWait:
 1655              	.LFB193:
1203:/usr/local/lib/ARM/CMSIS/5.4.0/CMSIS/RTOS2/RTX/Source/rtx_evr.c **** #if defined(RTE_Compiler_EventRecorder)
1204:/usr/local/lib/ARM/CMSIS/5.4.0/CMSIS/RTOS2/RTX/Source/rtx_evr.c ****   (void)EventRecord2(EvtRtxEventFlagsGet, (uint32_t)ef_id, event_flags);
1205:/usr/local/lib/ARM/CMSIS/5.4.0/CMSIS/RTOS2/RTX/Source/rtx_evr.c **** #else
1206:/usr/local/lib/ARM/CMSIS/5.4.0/CMSIS/RTOS2/RTX/Source/rtx_evr.c ****   (void)ef_id;
1207:/usr/local/lib/ARM/CMSIS/5.4.0/CMSIS/RTOS2/RTX/Source/rtx_evr.c ****   (void)event_flags;
ARM GAS  /tmp/ccrysPfs.s 			page 48


1208:/usr/local/lib/ARM/CMSIS/5.4.0/CMSIS/RTOS2/RTX/Source/rtx_evr.c **** #endif
1209:/usr/local/lib/ARM/CMSIS/5.4.0/CMSIS/RTOS2/RTX/Source/rtx_evr.c **** }
1210:/usr/local/lib/ARM/CMSIS/5.4.0/CMSIS/RTOS2/RTX/Source/rtx_evr.c **** #endif
1211:/usr/local/lib/ARM/CMSIS/5.4.0/CMSIS/RTOS2/RTX/Source/rtx_evr.c **** 
1212:/usr/local/lib/ARM/CMSIS/5.4.0/CMSIS/RTOS2/RTX/Source/rtx_evr.c **** #if (!defined(EVR_RTX_DISABLE) && (OS_EVR_EVFLAGS != 0) && !defined(EVR_RTX_EVENT_FLAGS_WAIT_DISABL
1213:/usr/local/lib/ARM/CMSIS/5.4.0/CMSIS/RTOS2/RTX/Source/rtx_evr.c **** __WEAK void EvrRtxEventFlagsWait (osEventFlagsId_t ef_id, uint32_t flags, uint32_t options, uint32_
 1656              		.loc 1 1213 0
 1657              		.cfi_startproc
 1658              		@ args = 0, pretend = 0, frame = 0
 1659              		@ frame_needed = 0, uses_anonymous_args = 0
 1660              		@ link register save eliminated.
 1661              	.LVL79:
 1662 0000 7047     		bx	lr
 1663              		.cfi_endproc
 1664              	.LFE193:
 1666 0002 00BF     		.section	.text.EvrRtxEventFlagsWaitPending,"ax",%progbits
 1667              		.align	2
 1668              		.weak	EvrRtxEventFlagsWaitPending
 1669              		.thumb
 1670              		.thumb_func
 1672              	EvrRtxEventFlagsWaitPending:
 1673              	.LFB194:
1214:/usr/local/lib/ARM/CMSIS/5.4.0/CMSIS/RTOS2/RTX/Source/rtx_evr.c **** #if defined(RTE_Compiler_EventRecorder)
1215:/usr/local/lib/ARM/CMSIS/5.4.0/CMSIS/RTOS2/RTX/Source/rtx_evr.c ****   (void)EventRecord4(EvtRtxEventFlagsWait, (uint32_t)ef_id, flags, options, timeout);
1216:/usr/local/lib/ARM/CMSIS/5.4.0/CMSIS/RTOS2/RTX/Source/rtx_evr.c **** #else
1217:/usr/local/lib/ARM/CMSIS/5.4.0/CMSIS/RTOS2/RTX/Source/rtx_evr.c ****   (void)ef_id;
1218:/usr/local/lib/ARM/CMSIS/5.4.0/CMSIS/RTOS2/RTX/Source/rtx_evr.c ****   (void)flags;
1219:/usr/local/lib/ARM/CMSIS/5.4.0/CMSIS/RTOS2/RTX/Source/rtx_evr.c ****   (void)options;
1220:/usr/local/lib/ARM/CMSIS/5.4.0/CMSIS/RTOS2/RTX/Source/rtx_evr.c ****   (void)timeout;
1221:/usr/local/lib/ARM/CMSIS/5.4.0/CMSIS/RTOS2/RTX/Source/rtx_evr.c **** #endif
1222:/usr/local/lib/ARM/CMSIS/5.4.0/CMSIS/RTOS2/RTX/Source/rtx_evr.c **** }
1223:/usr/local/lib/ARM/CMSIS/5.4.0/CMSIS/RTOS2/RTX/Source/rtx_evr.c **** #endif
1224:/usr/local/lib/ARM/CMSIS/5.4.0/CMSIS/RTOS2/RTX/Source/rtx_evr.c **** 
1225:/usr/local/lib/ARM/CMSIS/5.4.0/CMSIS/RTOS2/RTX/Source/rtx_evr.c **** #if (!defined(EVR_RTX_DISABLE) && (OS_EVR_EVFLAGS != 0) && !defined(EVR_RTX_EVENT_FLAGS_WAIT_PENDIN
1226:/usr/local/lib/ARM/CMSIS/5.4.0/CMSIS/RTOS2/RTX/Source/rtx_evr.c **** __WEAK void EvrRtxEventFlagsWaitPending (osEventFlagsId_t ef_id, uint32_t flags, uint32_t options, 
 1674              		.loc 1 1226 0
 1675              		.cfi_startproc
 1676              		@ args = 0, pretend = 0, frame = 0
 1677              		@ frame_needed = 0, uses_anonymous_args = 0
 1678              		@ link register save eliminated.
 1679              	.LVL80:
 1680 0000 7047     		bx	lr
 1681              		.cfi_endproc
 1682              	.LFE194:
 1684 0002 00BF     		.section	.text.EvrRtxEventFlagsWaitTimeout,"ax",%progbits
 1685              		.align	2
 1686              		.weak	EvrRtxEventFlagsWaitTimeout
 1687              		.thumb
 1688              		.thumb_func
 1690              	EvrRtxEventFlagsWaitTimeout:
 1691              	.LFB195:
1227:/usr/local/lib/ARM/CMSIS/5.4.0/CMSIS/RTOS2/RTX/Source/rtx_evr.c **** #if defined(RTE_Compiler_EventRecorder)
1228:/usr/local/lib/ARM/CMSIS/5.4.0/CMSIS/RTOS2/RTX/Source/rtx_evr.c ****   (void)EventRecord4(EvtRtxEventFlagsWaitPending, (uint32_t)ef_id, flags, options, timeout);
1229:/usr/local/lib/ARM/CMSIS/5.4.0/CMSIS/RTOS2/RTX/Source/rtx_evr.c **** #else
1230:/usr/local/lib/ARM/CMSIS/5.4.0/CMSIS/RTOS2/RTX/Source/rtx_evr.c ****   (void)ef_id;
1231:/usr/local/lib/ARM/CMSIS/5.4.0/CMSIS/RTOS2/RTX/Source/rtx_evr.c ****   (void)flags;
1232:/usr/local/lib/ARM/CMSIS/5.4.0/CMSIS/RTOS2/RTX/Source/rtx_evr.c ****   (void)options;
ARM GAS  /tmp/ccrysPfs.s 			page 49


1233:/usr/local/lib/ARM/CMSIS/5.4.0/CMSIS/RTOS2/RTX/Source/rtx_evr.c ****   (void)timeout;
1234:/usr/local/lib/ARM/CMSIS/5.4.0/CMSIS/RTOS2/RTX/Source/rtx_evr.c **** #endif
1235:/usr/local/lib/ARM/CMSIS/5.4.0/CMSIS/RTOS2/RTX/Source/rtx_evr.c **** }
1236:/usr/local/lib/ARM/CMSIS/5.4.0/CMSIS/RTOS2/RTX/Source/rtx_evr.c **** #endif
1237:/usr/local/lib/ARM/CMSIS/5.4.0/CMSIS/RTOS2/RTX/Source/rtx_evr.c **** 
1238:/usr/local/lib/ARM/CMSIS/5.4.0/CMSIS/RTOS2/RTX/Source/rtx_evr.c **** #if (!defined(EVR_RTX_DISABLE) && (OS_EVR_EVFLAGS != 0) && !defined(EVR_RTX_EVENT_FLAGS_WAIT_TIMEOU
1239:/usr/local/lib/ARM/CMSIS/5.4.0/CMSIS/RTOS2/RTX/Source/rtx_evr.c **** __WEAK void EvrRtxEventFlagsWaitTimeout (osEventFlagsId_t ef_id) {
 1692              		.loc 1 1239 0
 1693              		.cfi_startproc
 1694              		@ args = 0, pretend = 0, frame = 0
 1695              		@ frame_needed = 0, uses_anonymous_args = 0
 1696              		@ link register save eliminated.
 1697              	.LVL81:
 1698 0000 7047     		bx	lr
 1699              		.cfi_endproc
 1700              	.LFE195:
 1702 0002 00BF     		.section	.text.EvrRtxEventFlagsWaitCompleted,"ax",%progbits
 1703              		.align	2
 1704              		.weak	EvrRtxEventFlagsWaitCompleted
 1705              		.thumb
 1706              		.thumb_func
 1708              	EvrRtxEventFlagsWaitCompleted:
 1709              	.LFB196:
1240:/usr/local/lib/ARM/CMSIS/5.4.0/CMSIS/RTOS2/RTX/Source/rtx_evr.c **** #if defined(RTE_Compiler_EventRecorder)
1241:/usr/local/lib/ARM/CMSIS/5.4.0/CMSIS/RTOS2/RTX/Source/rtx_evr.c ****   (void)EventRecord2(EvtRtxEventFlagsWaitTimeout, (uint32_t)ef_id, 0U);
1242:/usr/local/lib/ARM/CMSIS/5.4.0/CMSIS/RTOS2/RTX/Source/rtx_evr.c **** #else
1243:/usr/local/lib/ARM/CMSIS/5.4.0/CMSIS/RTOS2/RTX/Source/rtx_evr.c ****   (void)ef_id;
1244:/usr/local/lib/ARM/CMSIS/5.4.0/CMSIS/RTOS2/RTX/Source/rtx_evr.c **** #endif
1245:/usr/local/lib/ARM/CMSIS/5.4.0/CMSIS/RTOS2/RTX/Source/rtx_evr.c **** }
1246:/usr/local/lib/ARM/CMSIS/5.4.0/CMSIS/RTOS2/RTX/Source/rtx_evr.c **** #endif
1247:/usr/local/lib/ARM/CMSIS/5.4.0/CMSIS/RTOS2/RTX/Source/rtx_evr.c **** 
1248:/usr/local/lib/ARM/CMSIS/5.4.0/CMSIS/RTOS2/RTX/Source/rtx_evr.c **** #if (!defined(EVR_RTX_DISABLE) && (OS_EVR_EVFLAGS != 0) && !defined(EVR_RTX_EVENT_FLAGS_WAIT_COMPLE
1249:/usr/local/lib/ARM/CMSIS/5.4.0/CMSIS/RTOS2/RTX/Source/rtx_evr.c **** __WEAK void EvrRtxEventFlagsWaitCompleted (osEventFlagsId_t ef_id, uint32_t flags, uint32_t options
 1710              		.loc 1 1249 0
 1711              		.cfi_startproc
 1712              		@ args = 0, pretend = 0, frame = 0
 1713              		@ frame_needed = 0, uses_anonymous_args = 0
 1714              		@ link register save eliminated.
 1715              	.LVL82:
 1716 0000 7047     		bx	lr
 1717              		.cfi_endproc
 1718              	.LFE196:
 1720 0002 00BF     		.section	.text.EvrRtxEventFlagsWaitNotCompleted,"ax",%progbits
 1721              		.align	2
 1722              		.weak	EvrRtxEventFlagsWaitNotCompleted
 1723              		.thumb
 1724              		.thumb_func
 1726              	EvrRtxEventFlagsWaitNotCompleted:
 1727              	.LFB197:
1250:/usr/local/lib/ARM/CMSIS/5.4.0/CMSIS/RTOS2/RTX/Source/rtx_evr.c **** #if defined(RTE_Compiler_EventRecorder)
1251:/usr/local/lib/ARM/CMSIS/5.4.0/CMSIS/RTOS2/RTX/Source/rtx_evr.c ****   (void)EventRecord4(EvtRtxEventFlagsWaitCompleted, (uint32_t)ef_id, flags, options, event_flags);
1252:/usr/local/lib/ARM/CMSIS/5.4.0/CMSIS/RTOS2/RTX/Source/rtx_evr.c **** #else
1253:/usr/local/lib/ARM/CMSIS/5.4.0/CMSIS/RTOS2/RTX/Source/rtx_evr.c ****   (void)ef_id;
1254:/usr/local/lib/ARM/CMSIS/5.4.0/CMSIS/RTOS2/RTX/Source/rtx_evr.c ****   (void)flags;
1255:/usr/local/lib/ARM/CMSIS/5.4.0/CMSIS/RTOS2/RTX/Source/rtx_evr.c ****   (void)options;
1256:/usr/local/lib/ARM/CMSIS/5.4.0/CMSIS/RTOS2/RTX/Source/rtx_evr.c ****   (void)event_flags;
1257:/usr/local/lib/ARM/CMSIS/5.4.0/CMSIS/RTOS2/RTX/Source/rtx_evr.c **** #endif
ARM GAS  /tmp/ccrysPfs.s 			page 50


1258:/usr/local/lib/ARM/CMSIS/5.4.0/CMSIS/RTOS2/RTX/Source/rtx_evr.c **** }
1259:/usr/local/lib/ARM/CMSIS/5.4.0/CMSIS/RTOS2/RTX/Source/rtx_evr.c **** #endif
1260:/usr/local/lib/ARM/CMSIS/5.4.0/CMSIS/RTOS2/RTX/Source/rtx_evr.c **** 
1261:/usr/local/lib/ARM/CMSIS/5.4.0/CMSIS/RTOS2/RTX/Source/rtx_evr.c **** #if (!defined(EVR_RTX_DISABLE) && (OS_EVR_EVFLAGS != 0) && !defined(EVR_RTX_EVENT_FLAGS_WAIT_NOT_CO
1262:/usr/local/lib/ARM/CMSIS/5.4.0/CMSIS/RTOS2/RTX/Source/rtx_evr.c **** __WEAK void EvrRtxEventFlagsWaitNotCompleted (osEventFlagsId_t ef_id, uint32_t flags, uint32_t opti
 1728              		.loc 1 1262 0
 1729              		.cfi_startproc
 1730              		@ args = 0, pretend = 0, frame = 0
 1731              		@ frame_needed = 0, uses_anonymous_args = 0
 1732              		@ link register save eliminated.
 1733              	.LVL83:
 1734 0000 7047     		bx	lr
 1735              		.cfi_endproc
 1736              	.LFE197:
 1738 0002 00BF     		.section	.text.EvrRtxEventFlagsDelete,"ax",%progbits
 1739              		.align	2
 1740              		.weak	EvrRtxEventFlagsDelete
 1741              		.thumb
 1742              		.thumb_func
 1744              	EvrRtxEventFlagsDelete:
 1745              	.LFB198:
1263:/usr/local/lib/ARM/CMSIS/5.4.0/CMSIS/RTOS2/RTX/Source/rtx_evr.c **** #if defined(RTE_Compiler_EventRecorder)
1264:/usr/local/lib/ARM/CMSIS/5.4.0/CMSIS/RTOS2/RTX/Source/rtx_evr.c ****   (void)EventRecord4(EvtRtxEventFlagsWaitNotCompleted, (uint32_t)ef_id, flags, options, 0U);
1265:/usr/local/lib/ARM/CMSIS/5.4.0/CMSIS/RTOS2/RTX/Source/rtx_evr.c **** #else
1266:/usr/local/lib/ARM/CMSIS/5.4.0/CMSIS/RTOS2/RTX/Source/rtx_evr.c ****   (void)ef_id;
1267:/usr/local/lib/ARM/CMSIS/5.4.0/CMSIS/RTOS2/RTX/Source/rtx_evr.c ****   (void)flags;
1268:/usr/local/lib/ARM/CMSIS/5.4.0/CMSIS/RTOS2/RTX/Source/rtx_evr.c ****   (void)options;
1269:/usr/local/lib/ARM/CMSIS/5.4.0/CMSIS/RTOS2/RTX/Source/rtx_evr.c **** #endif
1270:/usr/local/lib/ARM/CMSIS/5.4.0/CMSIS/RTOS2/RTX/Source/rtx_evr.c **** }
1271:/usr/local/lib/ARM/CMSIS/5.4.0/CMSIS/RTOS2/RTX/Source/rtx_evr.c **** #endif
1272:/usr/local/lib/ARM/CMSIS/5.4.0/CMSIS/RTOS2/RTX/Source/rtx_evr.c **** 
1273:/usr/local/lib/ARM/CMSIS/5.4.0/CMSIS/RTOS2/RTX/Source/rtx_evr.c **** #if (!defined(EVR_RTX_DISABLE) && (OS_EVR_EVFLAGS != 0) && !defined(EVR_RTX_EVENT_FLAGS_DELETE_DISA
1274:/usr/local/lib/ARM/CMSIS/5.4.0/CMSIS/RTOS2/RTX/Source/rtx_evr.c **** __WEAK void EvrRtxEventFlagsDelete (osEventFlagsId_t ef_id) {
 1746              		.loc 1 1274 0
 1747              		.cfi_startproc
 1748              		@ args = 0, pretend = 0, frame = 0
 1749              		@ frame_needed = 0, uses_anonymous_args = 0
 1750              		@ link register save eliminated.
 1751              	.LVL84:
 1752 0000 7047     		bx	lr
 1753              		.cfi_endproc
 1754              	.LFE198:
 1756 0002 00BF     		.section	.text.EvrRtxEventFlagsDestroyed,"ax",%progbits
 1757              		.align	2
 1758              		.weak	EvrRtxEventFlagsDestroyed
 1759              		.thumb
 1760              		.thumb_func
 1762              	EvrRtxEventFlagsDestroyed:
 1763              	.LFB199:
1275:/usr/local/lib/ARM/CMSIS/5.4.0/CMSIS/RTOS2/RTX/Source/rtx_evr.c **** #if defined(RTE_Compiler_EventRecorder)
1276:/usr/local/lib/ARM/CMSIS/5.4.0/CMSIS/RTOS2/RTX/Source/rtx_evr.c ****   (void)EventRecord2(EvtRtxEventFlagsDelete, (uint32_t)ef_id, 0U);
1277:/usr/local/lib/ARM/CMSIS/5.4.0/CMSIS/RTOS2/RTX/Source/rtx_evr.c **** #else
1278:/usr/local/lib/ARM/CMSIS/5.4.0/CMSIS/RTOS2/RTX/Source/rtx_evr.c ****   (void)ef_id;
1279:/usr/local/lib/ARM/CMSIS/5.4.0/CMSIS/RTOS2/RTX/Source/rtx_evr.c **** #endif
1280:/usr/local/lib/ARM/CMSIS/5.4.0/CMSIS/RTOS2/RTX/Source/rtx_evr.c **** }
1281:/usr/local/lib/ARM/CMSIS/5.4.0/CMSIS/RTOS2/RTX/Source/rtx_evr.c **** #endif
1282:/usr/local/lib/ARM/CMSIS/5.4.0/CMSIS/RTOS2/RTX/Source/rtx_evr.c **** 
ARM GAS  /tmp/ccrysPfs.s 			page 51


1283:/usr/local/lib/ARM/CMSIS/5.4.0/CMSIS/RTOS2/RTX/Source/rtx_evr.c **** #if (!defined(EVR_RTX_DISABLE) && (OS_EVR_EVFLAGS != 0) && !defined(EVR_RTX_EVENT_FLAGS_DESTROYED_D
1284:/usr/local/lib/ARM/CMSIS/5.4.0/CMSIS/RTOS2/RTX/Source/rtx_evr.c **** __WEAK void EvrRtxEventFlagsDestroyed (osEventFlagsId_t ef_id) {
 1764              		.loc 1 1284 0
 1765              		.cfi_startproc
 1766              		@ args = 0, pretend = 0, frame = 0
 1767              		@ frame_needed = 0, uses_anonymous_args = 0
 1768              		@ link register save eliminated.
 1769              	.LVL85:
 1770 0000 7047     		bx	lr
 1771              		.cfi_endproc
 1772              	.LFE199:
 1774 0002 00BF     		.section	.text.EvrRtxMutexError,"ax",%progbits
 1775              		.align	2
 1776              		.weak	EvrRtxMutexError
 1777              		.thumb
 1778              		.thumb_func
 1780              	EvrRtxMutexError:
 1781              	.LFB200:
1285:/usr/local/lib/ARM/CMSIS/5.4.0/CMSIS/RTOS2/RTX/Source/rtx_evr.c **** #if defined(RTE_Compiler_EventRecorder)
1286:/usr/local/lib/ARM/CMSIS/5.4.0/CMSIS/RTOS2/RTX/Source/rtx_evr.c ****   (void)EventRecord2(EvtRtxEventFlagsDestroyed, (uint32_t)ef_id, 0U);
1287:/usr/local/lib/ARM/CMSIS/5.4.0/CMSIS/RTOS2/RTX/Source/rtx_evr.c **** #else
1288:/usr/local/lib/ARM/CMSIS/5.4.0/CMSIS/RTOS2/RTX/Source/rtx_evr.c ****   (void)ef_id;
1289:/usr/local/lib/ARM/CMSIS/5.4.0/CMSIS/RTOS2/RTX/Source/rtx_evr.c **** #endif
1290:/usr/local/lib/ARM/CMSIS/5.4.0/CMSIS/RTOS2/RTX/Source/rtx_evr.c **** }
1291:/usr/local/lib/ARM/CMSIS/5.4.0/CMSIS/RTOS2/RTX/Source/rtx_evr.c **** #endif
1292:/usr/local/lib/ARM/CMSIS/5.4.0/CMSIS/RTOS2/RTX/Source/rtx_evr.c **** 
1293:/usr/local/lib/ARM/CMSIS/5.4.0/CMSIS/RTOS2/RTX/Source/rtx_evr.c **** 
1294:/usr/local/lib/ARM/CMSIS/5.4.0/CMSIS/RTOS2/RTX/Source/rtx_evr.c **** //  ==== Mutex Events ====
1295:/usr/local/lib/ARM/CMSIS/5.4.0/CMSIS/RTOS2/RTX/Source/rtx_evr.c **** 
1296:/usr/local/lib/ARM/CMSIS/5.4.0/CMSIS/RTOS2/RTX/Source/rtx_evr.c **** #if (!defined(EVR_RTX_DISABLE) && (OS_EVR_MUTEX != 0) && !defined(EVR_RTX_MUTEX_ERROR_DISABLE))
1297:/usr/local/lib/ARM/CMSIS/5.4.0/CMSIS/RTOS2/RTX/Source/rtx_evr.c **** __WEAK void EvrRtxMutexError (osMutexId_t mutex_id, int32_t status) {
 1782              		.loc 1 1297 0
 1783              		.cfi_startproc
 1784              		@ args = 0, pretend = 0, frame = 0
 1785              		@ frame_needed = 0, uses_anonymous_args = 0
 1786              		@ link register save eliminated.
 1787              	.LVL86:
 1788 0000 7047     		bx	lr
 1789              		.cfi_endproc
 1790              	.LFE200:
 1792 0002 00BF     		.section	.text.EvrRtxMutexNew,"ax",%progbits
 1793              		.align	2
 1794              		.weak	EvrRtxMutexNew
 1795              		.thumb
 1796              		.thumb_func
 1798              	EvrRtxMutexNew:
 1799              	.LFB201:
1298:/usr/local/lib/ARM/CMSIS/5.4.0/CMSIS/RTOS2/RTX/Source/rtx_evr.c **** #if defined(RTE_Compiler_EventRecorder)
1299:/usr/local/lib/ARM/CMSIS/5.4.0/CMSIS/RTOS2/RTX/Source/rtx_evr.c ****   (void)EventRecord2(EvtRtxMutexError, (uint32_t)mutex_id, (uint32_t)status);
1300:/usr/local/lib/ARM/CMSIS/5.4.0/CMSIS/RTOS2/RTX/Source/rtx_evr.c **** #else
1301:/usr/local/lib/ARM/CMSIS/5.4.0/CMSIS/RTOS2/RTX/Source/rtx_evr.c ****   (void)mutex_id;
1302:/usr/local/lib/ARM/CMSIS/5.4.0/CMSIS/RTOS2/RTX/Source/rtx_evr.c ****   (void)status;
1303:/usr/local/lib/ARM/CMSIS/5.4.0/CMSIS/RTOS2/RTX/Source/rtx_evr.c **** #endif
1304:/usr/local/lib/ARM/CMSIS/5.4.0/CMSIS/RTOS2/RTX/Source/rtx_evr.c **** }
1305:/usr/local/lib/ARM/CMSIS/5.4.0/CMSIS/RTOS2/RTX/Source/rtx_evr.c **** #endif
1306:/usr/local/lib/ARM/CMSIS/5.4.0/CMSIS/RTOS2/RTX/Source/rtx_evr.c **** 
1307:/usr/local/lib/ARM/CMSIS/5.4.0/CMSIS/RTOS2/RTX/Source/rtx_evr.c **** #if (!defined(EVR_RTX_DISABLE) && (OS_EVR_MUTEX != 0) && !defined(EVR_RTX_MUTEX_NEW_DISABLE))
ARM GAS  /tmp/ccrysPfs.s 			page 52


1308:/usr/local/lib/ARM/CMSIS/5.4.0/CMSIS/RTOS2/RTX/Source/rtx_evr.c **** __WEAK void EvrRtxMutexNew (const osMutexAttr_t *attr) {
 1800              		.loc 1 1308 0
 1801              		.cfi_startproc
 1802              		@ args = 0, pretend = 0, frame = 0
 1803              		@ frame_needed = 0, uses_anonymous_args = 0
 1804              		@ link register save eliminated.
 1805              	.LVL87:
 1806 0000 7047     		bx	lr
 1807              		.cfi_endproc
 1808              	.LFE201:
 1810 0002 00BF     		.section	.text.EvrRtxMutexCreated,"ax",%progbits
 1811              		.align	2
 1812              		.weak	EvrRtxMutexCreated
 1813              		.thumb
 1814              		.thumb_func
 1816              	EvrRtxMutexCreated:
 1817              	.LFB202:
1309:/usr/local/lib/ARM/CMSIS/5.4.0/CMSIS/RTOS2/RTX/Source/rtx_evr.c **** #if defined(RTE_Compiler_EventRecorder)
1310:/usr/local/lib/ARM/CMSIS/5.4.0/CMSIS/RTOS2/RTX/Source/rtx_evr.c ****   (void)EventRecord2(EvtRtxMutexNew, (uint32_t)attr, 0U);
1311:/usr/local/lib/ARM/CMSIS/5.4.0/CMSIS/RTOS2/RTX/Source/rtx_evr.c ****   if (attr != NULL) {
1312:/usr/local/lib/ARM/CMSIS/5.4.0/CMSIS/RTOS2/RTX/Source/rtx_evr.c ****     (void)EventRecordData(EvtRtxMutexNew_Detail, attr, sizeof (osMutexAttr_t));
1313:/usr/local/lib/ARM/CMSIS/5.4.0/CMSIS/RTOS2/RTX/Source/rtx_evr.c ****   }
1314:/usr/local/lib/ARM/CMSIS/5.4.0/CMSIS/RTOS2/RTX/Source/rtx_evr.c **** #else
1315:/usr/local/lib/ARM/CMSIS/5.4.0/CMSIS/RTOS2/RTX/Source/rtx_evr.c ****   (void)attr;
1316:/usr/local/lib/ARM/CMSIS/5.4.0/CMSIS/RTOS2/RTX/Source/rtx_evr.c **** #endif
1317:/usr/local/lib/ARM/CMSIS/5.4.0/CMSIS/RTOS2/RTX/Source/rtx_evr.c **** }
1318:/usr/local/lib/ARM/CMSIS/5.4.0/CMSIS/RTOS2/RTX/Source/rtx_evr.c **** #endif
1319:/usr/local/lib/ARM/CMSIS/5.4.0/CMSIS/RTOS2/RTX/Source/rtx_evr.c **** 
1320:/usr/local/lib/ARM/CMSIS/5.4.0/CMSIS/RTOS2/RTX/Source/rtx_evr.c **** #if (!defined(EVR_RTX_DISABLE) && (OS_EVR_MUTEX != 0) && !defined(EVR_RTX_MUTEX_CREATED_DISABLE))
1321:/usr/local/lib/ARM/CMSIS/5.4.0/CMSIS/RTOS2/RTX/Source/rtx_evr.c **** __WEAK void EvrRtxMutexCreated (osMutexId_t mutex_id, const char *name) {
 1818              		.loc 1 1321 0
 1819              		.cfi_startproc
 1820              		@ args = 0, pretend = 0, frame = 0
 1821              		@ frame_needed = 0, uses_anonymous_args = 0
 1822              		@ link register save eliminated.
 1823              	.LVL88:
 1824 0000 7047     		bx	lr
 1825              		.cfi_endproc
 1826              	.LFE202:
 1828 0002 00BF     		.section	.text.EvrRtxMutexGetName,"ax",%progbits
 1829              		.align	2
 1830              		.weak	EvrRtxMutexGetName
 1831              		.thumb
 1832              		.thumb_func
 1834              	EvrRtxMutexGetName:
 1835              	.LFB203:
1322:/usr/local/lib/ARM/CMSIS/5.4.0/CMSIS/RTOS2/RTX/Source/rtx_evr.c **** #if defined(RTE_Compiler_EventRecorder)
1323:/usr/local/lib/ARM/CMSIS/5.4.0/CMSIS/RTOS2/RTX/Source/rtx_evr.c ****   (void)EventRecord2(EvtRtxMutexCreated, (uint32_t)mutex_id, (uint32_t)name);
1324:/usr/local/lib/ARM/CMSIS/5.4.0/CMSIS/RTOS2/RTX/Source/rtx_evr.c **** #else
1325:/usr/local/lib/ARM/CMSIS/5.4.0/CMSIS/RTOS2/RTX/Source/rtx_evr.c ****   (void)mutex_id;
1326:/usr/local/lib/ARM/CMSIS/5.4.0/CMSIS/RTOS2/RTX/Source/rtx_evr.c ****   (void)name;
1327:/usr/local/lib/ARM/CMSIS/5.4.0/CMSIS/RTOS2/RTX/Source/rtx_evr.c **** #endif
1328:/usr/local/lib/ARM/CMSIS/5.4.0/CMSIS/RTOS2/RTX/Source/rtx_evr.c **** }
1329:/usr/local/lib/ARM/CMSIS/5.4.0/CMSIS/RTOS2/RTX/Source/rtx_evr.c **** #endif
1330:/usr/local/lib/ARM/CMSIS/5.4.0/CMSIS/RTOS2/RTX/Source/rtx_evr.c **** 
1331:/usr/local/lib/ARM/CMSIS/5.4.0/CMSIS/RTOS2/RTX/Source/rtx_evr.c **** #if (!defined(EVR_RTX_DISABLE) && (OS_EVR_MUTEX != 0) && !defined(EVR_RTX_MUTEX_GET_NAME_DISABLE))
1332:/usr/local/lib/ARM/CMSIS/5.4.0/CMSIS/RTOS2/RTX/Source/rtx_evr.c **** __WEAK void EvrRtxMutexGetName (osMutexId_t mutex_id, const char *name) {
ARM GAS  /tmp/ccrysPfs.s 			page 53


 1836              		.loc 1 1332 0
 1837              		.cfi_startproc
 1838              		@ args = 0, pretend = 0, frame = 0
 1839              		@ frame_needed = 0, uses_anonymous_args = 0
 1840              		@ link register save eliminated.
 1841              	.LVL89:
 1842 0000 7047     		bx	lr
 1843              		.cfi_endproc
 1844              	.LFE203:
 1846 0002 00BF     		.section	.text.EvrRtxMutexAcquire,"ax",%progbits
 1847              		.align	2
 1848              		.weak	EvrRtxMutexAcquire
 1849              		.thumb
 1850              		.thumb_func
 1852              	EvrRtxMutexAcquire:
 1853              	.LFB204:
1333:/usr/local/lib/ARM/CMSIS/5.4.0/CMSIS/RTOS2/RTX/Source/rtx_evr.c **** #if defined(RTE_Compiler_EventRecorder)
1334:/usr/local/lib/ARM/CMSIS/5.4.0/CMSIS/RTOS2/RTX/Source/rtx_evr.c ****   (void)EventRecord2(EvtRtxMutexGetName, (uint32_t)mutex_id, (uint32_t)name);
1335:/usr/local/lib/ARM/CMSIS/5.4.0/CMSIS/RTOS2/RTX/Source/rtx_evr.c **** #else
1336:/usr/local/lib/ARM/CMSIS/5.4.0/CMSIS/RTOS2/RTX/Source/rtx_evr.c ****   (void)mutex_id;
1337:/usr/local/lib/ARM/CMSIS/5.4.0/CMSIS/RTOS2/RTX/Source/rtx_evr.c ****   (void)name;
1338:/usr/local/lib/ARM/CMSIS/5.4.0/CMSIS/RTOS2/RTX/Source/rtx_evr.c **** #endif
1339:/usr/local/lib/ARM/CMSIS/5.4.0/CMSIS/RTOS2/RTX/Source/rtx_evr.c **** }
1340:/usr/local/lib/ARM/CMSIS/5.4.0/CMSIS/RTOS2/RTX/Source/rtx_evr.c **** #endif
1341:/usr/local/lib/ARM/CMSIS/5.4.0/CMSIS/RTOS2/RTX/Source/rtx_evr.c **** 
1342:/usr/local/lib/ARM/CMSIS/5.4.0/CMSIS/RTOS2/RTX/Source/rtx_evr.c **** #if (!defined(EVR_RTX_DISABLE) && (OS_EVR_MUTEX != 0) && !defined(EVR_RTX_MUTEX_ACQUIRE_DISABLE))
1343:/usr/local/lib/ARM/CMSIS/5.4.0/CMSIS/RTOS2/RTX/Source/rtx_evr.c **** __WEAK void EvrRtxMutexAcquire (osMutexId_t mutex_id, uint32_t timeout) {
 1854              		.loc 1 1343 0
 1855              		.cfi_startproc
 1856              		@ args = 0, pretend = 0, frame = 0
 1857              		@ frame_needed = 0, uses_anonymous_args = 0
 1858              		@ link register save eliminated.
 1859              	.LVL90:
 1860 0000 7047     		bx	lr
 1861              		.cfi_endproc
 1862              	.LFE204:
 1864 0002 00BF     		.section	.text.EvrRtxMutexAcquirePending,"ax",%progbits
 1865              		.align	2
 1866              		.weak	EvrRtxMutexAcquirePending
 1867              		.thumb
 1868              		.thumb_func
 1870              	EvrRtxMutexAcquirePending:
 1871              	.LFB205:
1344:/usr/local/lib/ARM/CMSIS/5.4.0/CMSIS/RTOS2/RTX/Source/rtx_evr.c **** #if defined(RTE_Compiler_EventRecorder)
1345:/usr/local/lib/ARM/CMSIS/5.4.0/CMSIS/RTOS2/RTX/Source/rtx_evr.c ****   (void)EventRecord2(EvtRtxMutexAcquire, (uint32_t)mutex_id, timeout);
1346:/usr/local/lib/ARM/CMSIS/5.4.0/CMSIS/RTOS2/RTX/Source/rtx_evr.c **** #else
1347:/usr/local/lib/ARM/CMSIS/5.4.0/CMSIS/RTOS2/RTX/Source/rtx_evr.c ****   (void)mutex_id;
1348:/usr/local/lib/ARM/CMSIS/5.4.0/CMSIS/RTOS2/RTX/Source/rtx_evr.c ****   (void)timeout;
1349:/usr/local/lib/ARM/CMSIS/5.4.0/CMSIS/RTOS2/RTX/Source/rtx_evr.c **** #endif
1350:/usr/local/lib/ARM/CMSIS/5.4.0/CMSIS/RTOS2/RTX/Source/rtx_evr.c **** }
1351:/usr/local/lib/ARM/CMSIS/5.4.0/CMSIS/RTOS2/RTX/Source/rtx_evr.c **** #endif
1352:/usr/local/lib/ARM/CMSIS/5.4.0/CMSIS/RTOS2/RTX/Source/rtx_evr.c **** 
1353:/usr/local/lib/ARM/CMSIS/5.4.0/CMSIS/RTOS2/RTX/Source/rtx_evr.c **** #if (!defined(EVR_RTX_DISABLE) && (OS_EVR_MUTEX != 0) && !defined(EVR_RTX_MUTEX_ACQUIRE_PENDING_DIS
1354:/usr/local/lib/ARM/CMSIS/5.4.0/CMSIS/RTOS2/RTX/Source/rtx_evr.c **** __WEAK void EvrRtxMutexAcquirePending (osMutexId_t mutex_id, uint32_t timeout) {
 1872              		.loc 1 1354 0
 1873              		.cfi_startproc
 1874              		@ args = 0, pretend = 0, frame = 0
ARM GAS  /tmp/ccrysPfs.s 			page 54


 1875              		@ frame_needed = 0, uses_anonymous_args = 0
 1876              		@ link register save eliminated.
 1877              	.LVL91:
 1878 0000 7047     		bx	lr
 1879              		.cfi_endproc
 1880              	.LFE205:
 1882 0002 00BF     		.section	.text.EvrRtxMutexAcquireTimeout,"ax",%progbits
 1883              		.align	2
 1884              		.weak	EvrRtxMutexAcquireTimeout
 1885              		.thumb
 1886              		.thumb_func
 1888              	EvrRtxMutexAcquireTimeout:
 1889              	.LFB206:
1355:/usr/local/lib/ARM/CMSIS/5.4.0/CMSIS/RTOS2/RTX/Source/rtx_evr.c **** #if defined(RTE_Compiler_EventRecorder)
1356:/usr/local/lib/ARM/CMSIS/5.4.0/CMSIS/RTOS2/RTX/Source/rtx_evr.c ****   (void)EventRecord2(EvtRtxMutexAcquirePending, (uint32_t)mutex_id, timeout);
1357:/usr/local/lib/ARM/CMSIS/5.4.0/CMSIS/RTOS2/RTX/Source/rtx_evr.c **** #else
1358:/usr/local/lib/ARM/CMSIS/5.4.0/CMSIS/RTOS2/RTX/Source/rtx_evr.c ****   (void)mutex_id;
1359:/usr/local/lib/ARM/CMSIS/5.4.0/CMSIS/RTOS2/RTX/Source/rtx_evr.c ****   (void)timeout;
1360:/usr/local/lib/ARM/CMSIS/5.4.0/CMSIS/RTOS2/RTX/Source/rtx_evr.c **** #endif
1361:/usr/local/lib/ARM/CMSIS/5.4.0/CMSIS/RTOS2/RTX/Source/rtx_evr.c **** }
1362:/usr/local/lib/ARM/CMSIS/5.4.0/CMSIS/RTOS2/RTX/Source/rtx_evr.c **** #endif
1363:/usr/local/lib/ARM/CMSIS/5.4.0/CMSIS/RTOS2/RTX/Source/rtx_evr.c **** 
1364:/usr/local/lib/ARM/CMSIS/5.4.0/CMSIS/RTOS2/RTX/Source/rtx_evr.c **** #if (!defined(EVR_RTX_DISABLE) && (OS_EVR_MUTEX != 0) && !defined(EVR_RTX_MUTEX_ACQUIRE_TIMEOUT_DIS
1365:/usr/local/lib/ARM/CMSIS/5.4.0/CMSIS/RTOS2/RTX/Source/rtx_evr.c **** __WEAK void EvrRtxMutexAcquireTimeout (osMutexId_t mutex_id) {
 1890              		.loc 1 1365 0
 1891              		.cfi_startproc
 1892              		@ args = 0, pretend = 0, frame = 0
 1893              		@ frame_needed = 0, uses_anonymous_args = 0
 1894              		@ link register save eliminated.
 1895              	.LVL92:
 1896 0000 7047     		bx	lr
 1897              		.cfi_endproc
 1898              	.LFE206:
 1900 0002 00BF     		.section	.text.EvrRtxMutexAcquired,"ax",%progbits
 1901              		.align	2
 1902              		.weak	EvrRtxMutexAcquired
 1903              		.thumb
 1904              		.thumb_func
 1906              	EvrRtxMutexAcquired:
 1907              	.LFB207:
1366:/usr/local/lib/ARM/CMSIS/5.4.0/CMSIS/RTOS2/RTX/Source/rtx_evr.c **** #if defined(RTE_Compiler_EventRecorder)
1367:/usr/local/lib/ARM/CMSIS/5.4.0/CMSIS/RTOS2/RTX/Source/rtx_evr.c ****   (void)EventRecord2(EvtRtxMutexAcquireTimeout, (uint32_t)mutex_id, 0U);
1368:/usr/local/lib/ARM/CMSIS/5.4.0/CMSIS/RTOS2/RTX/Source/rtx_evr.c **** #else
1369:/usr/local/lib/ARM/CMSIS/5.4.0/CMSIS/RTOS2/RTX/Source/rtx_evr.c ****   (void)mutex_id;
1370:/usr/local/lib/ARM/CMSIS/5.4.0/CMSIS/RTOS2/RTX/Source/rtx_evr.c **** #endif
1371:/usr/local/lib/ARM/CMSIS/5.4.0/CMSIS/RTOS2/RTX/Source/rtx_evr.c **** }
1372:/usr/local/lib/ARM/CMSIS/5.4.0/CMSIS/RTOS2/RTX/Source/rtx_evr.c **** #endif
1373:/usr/local/lib/ARM/CMSIS/5.4.0/CMSIS/RTOS2/RTX/Source/rtx_evr.c **** 
1374:/usr/local/lib/ARM/CMSIS/5.4.0/CMSIS/RTOS2/RTX/Source/rtx_evr.c **** #if (!defined(EVR_RTX_DISABLE) && (OS_EVR_MUTEX != 0) && !defined(EVR_RTX_MUTEX_ACQUIRED_DISABLE))
1375:/usr/local/lib/ARM/CMSIS/5.4.0/CMSIS/RTOS2/RTX/Source/rtx_evr.c **** __WEAK void EvrRtxMutexAcquired (osMutexId_t mutex_id, uint32_t lock) {
 1908              		.loc 1 1375 0
 1909              		.cfi_startproc
 1910              		@ args = 0, pretend = 0, frame = 0
 1911              		@ frame_needed = 0, uses_anonymous_args = 0
 1912              		@ link register save eliminated.
 1913              	.LVL93:
 1914 0000 7047     		bx	lr
ARM GAS  /tmp/ccrysPfs.s 			page 55


 1915              		.cfi_endproc
 1916              	.LFE207:
 1918 0002 00BF     		.section	.text.EvrRtxMutexNotAcquired,"ax",%progbits
 1919              		.align	2
 1920              		.weak	EvrRtxMutexNotAcquired
 1921              		.thumb
 1922              		.thumb_func
 1924              	EvrRtxMutexNotAcquired:
 1925              	.LFB208:
1376:/usr/local/lib/ARM/CMSIS/5.4.0/CMSIS/RTOS2/RTX/Source/rtx_evr.c **** #if defined(RTE_Compiler_EventRecorder)
1377:/usr/local/lib/ARM/CMSIS/5.4.0/CMSIS/RTOS2/RTX/Source/rtx_evr.c ****   (void)EventRecord2(EvtRtxMutexAcquired, (uint32_t)mutex_id, lock);
1378:/usr/local/lib/ARM/CMSIS/5.4.0/CMSIS/RTOS2/RTX/Source/rtx_evr.c **** #else
1379:/usr/local/lib/ARM/CMSIS/5.4.0/CMSIS/RTOS2/RTX/Source/rtx_evr.c ****   (void)mutex_id;
1380:/usr/local/lib/ARM/CMSIS/5.4.0/CMSIS/RTOS2/RTX/Source/rtx_evr.c ****   (void)lock;
1381:/usr/local/lib/ARM/CMSIS/5.4.0/CMSIS/RTOS2/RTX/Source/rtx_evr.c **** #endif
1382:/usr/local/lib/ARM/CMSIS/5.4.0/CMSIS/RTOS2/RTX/Source/rtx_evr.c **** }
1383:/usr/local/lib/ARM/CMSIS/5.4.0/CMSIS/RTOS2/RTX/Source/rtx_evr.c **** #endif
1384:/usr/local/lib/ARM/CMSIS/5.4.0/CMSIS/RTOS2/RTX/Source/rtx_evr.c **** 
1385:/usr/local/lib/ARM/CMSIS/5.4.0/CMSIS/RTOS2/RTX/Source/rtx_evr.c **** #if (!defined(EVR_RTX_DISABLE) && (OS_EVR_MUTEX != 0) && !defined(EVR_RTX_MUTEX_NOT_ACQUIRED_DISABL
1386:/usr/local/lib/ARM/CMSIS/5.4.0/CMSIS/RTOS2/RTX/Source/rtx_evr.c **** __WEAK void EvrRtxMutexNotAcquired (osMutexId_t mutex_id) {
 1926              		.loc 1 1386 0
 1927              		.cfi_startproc
 1928              		@ args = 0, pretend = 0, frame = 0
 1929              		@ frame_needed = 0, uses_anonymous_args = 0
 1930              		@ link register save eliminated.
 1931              	.LVL94:
 1932 0000 7047     		bx	lr
 1933              		.cfi_endproc
 1934              	.LFE208:
 1936 0002 00BF     		.section	.text.EvrRtxMutexRelease,"ax",%progbits
 1937              		.align	2
 1938              		.weak	EvrRtxMutexRelease
 1939              		.thumb
 1940              		.thumb_func
 1942              	EvrRtxMutexRelease:
 1943              	.LFB209:
1387:/usr/local/lib/ARM/CMSIS/5.4.0/CMSIS/RTOS2/RTX/Source/rtx_evr.c **** #if defined(RTE_Compiler_EventRecorder)
1388:/usr/local/lib/ARM/CMSIS/5.4.0/CMSIS/RTOS2/RTX/Source/rtx_evr.c ****   (void)EventRecord2(EvtRtxMutexNotAcquired, (uint32_t)mutex_id, 0U);
1389:/usr/local/lib/ARM/CMSIS/5.4.0/CMSIS/RTOS2/RTX/Source/rtx_evr.c **** #else
1390:/usr/local/lib/ARM/CMSIS/5.4.0/CMSIS/RTOS2/RTX/Source/rtx_evr.c ****   (void)mutex_id;
1391:/usr/local/lib/ARM/CMSIS/5.4.0/CMSIS/RTOS2/RTX/Source/rtx_evr.c **** #endif
1392:/usr/local/lib/ARM/CMSIS/5.4.0/CMSIS/RTOS2/RTX/Source/rtx_evr.c **** }
1393:/usr/local/lib/ARM/CMSIS/5.4.0/CMSIS/RTOS2/RTX/Source/rtx_evr.c **** #endif
1394:/usr/local/lib/ARM/CMSIS/5.4.0/CMSIS/RTOS2/RTX/Source/rtx_evr.c **** 
1395:/usr/local/lib/ARM/CMSIS/5.4.0/CMSIS/RTOS2/RTX/Source/rtx_evr.c **** #if (!defined(EVR_RTX_DISABLE) && (OS_EVR_MUTEX != 0) && !defined(EVR_RTX_MUTEX_RELEASE_DISABLE))
1396:/usr/local/lib/ARM/CMSIS/5.4.0/CMSIS/RTOS2/RTX/Source/rtx_evr.c **** __WEAK void EvrRtxMutexRelease (osMutexId_t mutex_id) {
 1944              		.loc 1 1396 0
 1945              		.cfi_startproc
 1946              		@ args = 0, pretend = 0, frame = 0
 1947              		@ frame_needed = 0, uses_anonymous_args = 0
 1948              		@ link register save eliminated.
 1949              	.LVL95:
 1950 0000 7047     		bx	lr
 1951              		.cfi_endproc
 1952              	.LFE209:
 1954 0002 00BF     		.section	.text.EvrRtxMutexReleased,"ax",%progbits
 1955              		.align	2
ARM GAS  /tmp/ccrysPfs.s 			page 56


 1956              		.weak	EvrRtxMutexReleased
 1957              		.thumb
 1958              		.thumb_func
 1960              	EvrRtxMutexReleased:
 1961              	.LFB210:
1397:/usr/local/lib/ARM/CMSIS/5.4.0/CMSIS/RTOS2/RTX/Source/rtx_evr.c **** #if defined(RTE_Compiler_EventRecorder)
1398:/usr/local/lib/ARM/CMSIS/5.4.0/CMSIS/RTOS2/RTX/Source/rtx_evr.c ****   (void)EventRecord2(EvtRtxMutexRelease, (uint32_t)mutex_id, 0U);
1399:/usr/local/lib/ARM/CMSIS/5.4.0/CMSIS/RTOS2/RTX/Source/rtx_evr.c **** #else
1400:/usr/local/lib/ARM/CMSIS/5.4.0/CMSIS/RTOS2/RTX/Source/rtx_evr.c ****   (void)mutex_id;
1401:/usr/local/lib/ARM/CMSIS/5.4.0/CMSIS/RTOS2/RTX/Source/rtx_evr.c **** #endif
1402:/usr/local/lib/ARM/CMSIS/5.4.0/CMSIS/RTOS2/RTX/Source/rtx_evr.c **** }
1403:/usr/local/lib/ARM/CMSIS/5.4.0/CMSIS/RTOS2/RTX/Source/rtx_evr.c **** #endif
1404:/usr/local/lib/ARM/CMSIS/5.4.0/CMSIS/RTOS2/RTX/Source/rtx_evr.c **** 
1405:/usr/local/lib/ARM/CMSIS/5.4.0/CMSIS/RTOS2/RTX/Source/rtx_evr.c **** #if (!defined(EVR_RTX_DISABLE) && (OS_EVR_MUTEX != 0) && !defined(EVR_RTX_MUTEX_RELEASED_DISABLE))
1406:/usr/local/lib/ARM/CMSIS/5.4.0/CMSIS/RTOS2/RTX/Source/rtx_evr.c **** __WEAK void EvrRtxMutexReleased (osMutexId_t mutex_id, uint32_t lock) {
 1962              		.loc 1 1406 0
 1963              		.cfi_startproc
 1964              		@ args = 0, pretend = 0, frame = 0
 1965              		@ frame_needed = 0, uses_anonymous_args = 0
 1966              		@ link register save eliminated.
 1967              	.LVL96:
 1968 0000 7047     		bx	lr
 1969              		.cfi_endproc
 1970              	.LFE210:
 1972 0002 00BF     		.section	.text.EvrRtxMutexGetOwner,"ax",%progbits
 1973              		.align	2
 1974              		.weak	EvrRtxMutexGetOwner
 1975              		.thumb
 1976              		.thumb_func
 1978              	EvrRtxMutexGetOwner:
 1979              	.LFB211:
1407:/usr/local/lib/ARM/CMSIS/5.4.0/CMSIS/RTOS2/RTX/Source/rtx_evr.c **** #if defined(RTE_Compiler_EventRecorder)
1408:/usr/local/lib/ARM/CMSIS/5.4.0/CMSIS/RTOS2/RTX/Source/rtx_evr.c ****   (void)EventRecord2(EvtRtxMutexReleased, (uint32_t)mutex_id, lock);
1409:/usr/local/lib/ARM/CMSIS/5.4.0/CMSIS/RTOS2/RTX/Source/rtx_evr.c **** #else
1410:/usr/local/lib/ARM/CMSIS/5.4.0/CMSIS/RTOS2/RTX/Source/rtx_evr.c ****   (void)mutex_id;
1411:/usr/local/lib/ARM/CMSIS/5.4.0/CMSIS/RTOS2/RTX/Source/rtx_evr.c ****   (void)lock;
1412:/usr/local/lib/ARM/CMSIS/5.4.0/CMSIS/RTOS2/RTX/Source/rtx_evr.c **** #endif
1413:/usr/local/lib/ARM/CMSIS/5.4.0/CMSIS/RTOS2/RTX/Source/rtx_evr.c **** }
1414:/usr/local/lib/ARM/CMSIS/5.4.0/CMSIS/RTOS2/RTX/Source/rtx_evr.c **** #endif
1415:/usr/local/lib/ARM/CMSIS/5.4.0/CMSIS/RTOS2/RTX/Source/rtx_evr.c **** 
1416:/usr/local/lib/ARM/CMSIS/5.4.0/CMSIS/RTOS2/RTX/Source/rtx_evr.c **** #if (!defined(EVR_RTX_DISABLE) && (OS_EVR_MUTEX != 0) && !defined(EVR_RTX_MUTEX_GET_OWNER_DISABLE))
1417:/usr/local/lib/ARM/CMSIS/5.4.0/CMSIS/RTOS2/RTX/Source/rtx_evr.c **** __WEAK void EvrRtxMutexGetOwner (osMutexId_t mutex_id, osThreadId_t thread_id) {
 1980              		.loc 1 1417 0
 1981              		.cfi_startproc
 1982              		@ args = 0, pretend = 0, frame = 0
 1983              		@ frame_needed = 0, uses_anonymous_args = 0
 1984              		@ link register save eliminated.
 1985              	.LVL97:
 1986 0000 7047     		bx	lr
 1987              		.cfi_endproc
 1988              	.LFE211:
 1990 0002 00BF     		.section	.text.EvrRtxMutexDelete,"ax",%progbits
 1991              		.align	2
 1992              		.weak	EvrRtxMutexDelete
 1993              		.thumb
 1994              		.thumb_func
 1996              	EvrRtxMutexDelete:
ARM GAS  /tmp/ccrysPfs.s 			page 57


 1997              	.LFB212:
1418:/usr/local/lib/ARM/CMSIS/5.4.0/CMSIS/RTOS2/RTX/Source/rtx_evr.c **** #if defined(RTE_Compiler_EventRecorder)
1419:/usr/local/lib/ARM/CMSIS/5.4.0/CMSIS/RTOS2/RTX/Source/rtx_evr.c ****   (void)EventRecord2(EvtRtxMutexGetOwner, (uint32_t)mutex_id, (uint32_t)thread_id);
1420:/usr/local/lib/ARM/CMSIS/5.4.0/CMSIS/RTOS2/RTX/Source/rtx_evr.c **** #else
1421:/usr/local/lib/ARM/CMSIS/5.4.0/CMSIS/RTOS2/RTX/Source/rtx_evr.c ****   (void)mutex_id;
1422:/usr/local/lib/ARM/CMSIS/5.4.0/CMSIS/RTOS2/RTX/Source/rtx_evr.c ****   (void)thread_id;
1423:/usr/local/lib/ARM/CMSIS/5.4.0/CMSIS/RTOS2/RTX/Source/rtx_evr.c **** #endif
1424:/usr/local/lib/ARM/CMSIS/5.4.0/CMSIS/RTOS2/RTX/Source/rtx_evr.c **** }
1425:/usr/local/lib/ARM/CMSIS/5.4.0/CMSIS/RTOS2/RTX/Source/rtx_evr.c **** #endif
1426:/usr/local/lib/ARM/CMSIS/5.4.0/CMSIS/RTOS2/RTX/Source/rtx_evr.c **** 
1427:/usr/local/lib/ARM/CMSIS/5.4.0/CMSIS/RTOS2/RTX/Source/rtx_evr.c **** #if (!defined(EVR_RTX_DISABLE) && (OS_EVR_MUTEX != 0) && !defined(EVR_RTX_MUTEX_DELETE_DISABLE))
1428:/usr/local/lib/ARM/CMSIS/5.4.0/CMSIS/RTOS2/RTX/Source/rtx_evr.c **** __WEAK void EvrRtxMutexDelete (osMutexId_t mutex_id) {
 1998              		.loc 1 1428 0
 1999              		.cfi_startproc
 2000              		@ args = 0, pretend = 0, frame = 0
 2001              		@ frame_needed = 0, uses_anonymous_args = 0
 2002              		@ link register save eliminated.
 2003              	.LVL98:
 2004 0000 7047     		bx	lr
 2005              		.cfi_endproc
 2006              	.LFE212:
 2008 0002 00BF     		.section	.text.EvrRtxMutexDestroyed,"ax",%progbits
 2009              		.align	2
 2010              		.weak	EvrRtxMutexDestroyed
 2011              		.thumb
 2012              		.thumb_func
 2014              	EvrRtxMutexDestroyed:
 2015              	.LFB213:
1429:/usr/local/lib/ARM/CMSIS/5.4.0/CMSIS/RTOS2/RTX/Source/rtx_evr.c **** #if defined(RTE_Compiler_EventRecorder)
1430:/usr/local/lib/ARM/CMSIS/5.4.0/CMSIS/RTOS2/RTX/Source/rtx_evr.c ****   (void)EventRecord2(EvtRtxMutexDelete, (uint32_t)mutex_id, 0U);
1431:/usr/local/lib/ARM/CMSIS/5.4.0/CMSIS/RTOS2/RTX/Source/rtx_evr.c **** #else
1432:/usr/local/lib/ARM/CMSIS/5.4.0/CMSIS/RTOS2/RTX/Source/rtx_evr.c ****   (void)mutex_id;
1433:/usr/local/lib/ARM/CMSIS/5.4.0/CMSIS/RTOS2/RTX/Source/rtx_evr.c **** #endif
1434:/usr/local/lib/ARM/CMSIS/5.4.0/CMSIS/RTOS2/RTX/Source/rtx_evr.c **** }
1435:/usr/local/lib/ARM/CMSIS/5.4.0/CMSIS/RTOS2/RTX/Source/rtx_evr.c **** #endif
1436:/usr/local/lib/ARM/CMSIS/5.4.0/CMSIS/RTOS2/RTX/Source/rtx_evr.c **** 
1437:/usr/local/lib/ARM/CMSIS/5.4.0/CMSIS/RTOS2/RTX/Source/rtx_evr.c **** #if (!defined(EVR_RTX_DISABLE) && (OS_EVR_MUTEX != 0) && !defined(EVR_RTX_MUTEX_DESTROYED_DISABLE))
1438:/usr/local/lib/ARM/CMSIS/5.4.0/CMSIS/RTOS2/RTX/Source/rtx_evr.c **** __WEAK void EvrRtxMutexDestroyed (osMutexId_t mutex_id) {
 2016              		.loc 1 1438 0
 2017              		.cfi_startproc
 2018              		@ args = 0, pretend = 0, frame = 0
 2019              		@ frame_needed = 0, uses_anonymous_args = 0
 2020              		@ link register save eliminated.
 2021              	.LVL99:
 2022 0000 7047     		bx	lr
 2023              		.cfi_endproc
 2024              	.LFE213:
 2026 0002 00BF     		.section	.text.EvrRtxSemaphoreError,"ax",%progbits
 2027              		.align	2
 2028              		.weak	EvrRtxSemaphoreError
 2029              		.thumb
 2030              		.thumb_func
 2032              	EvrRtxSemaphoreError:
 2033              	.LFB214:
1439:/usr/local/lib/ARM/CMSIS/5.4.0/CMSIS/RTOS2/RTX/Source/rtx_evr.c **** #if defined(RTE_Compiler_EventRecorder)
1440:/usr/local/lib/ARM/CMSIS/5.4.0/CMSIS/RTOS2/RTX/Source/rtx_evr.c ****   (void)EventRecord2(EvtRtxMutexDestroyed, (uint32_t)mutex_id, 0U);
1441:/usr/local/lib/ARM/CMSIS/5.4.0/CMSIS/RTOS2/RTX/Source/rtx_evr.c **** #else
ARM GAS  /tmp/ccrysPfs.s 			page 58


1442:/usr/local/lib/ARM/CMSIS/5.4.0/CMSIS/RTOS2/RTX/Source/rtx_evr.c ****   (void)mutex_id;
1443:/usr/local/lib/ARM/CMSIS/5.4.0/CMSIS/RTOS2/RTX/Source/rtx_evr.c **** #endif
1444:/usr/local/lib/ARM/CMSIS/5.4.0/CMSIS/RTOS2/RTX/Source/rtx_evr.c **** }
1445:/usr/local/lib/ARM/CMSIS/5.4.0/CMSIS/RTOS2/RTX/Source/rtx_evr.c **** #endif
1446:/usr/local/lib/ARM/CMSIS/5.4.0/CMSIS/RTOS2/RTX/Source/rtx_evr.c **** 
1447:/usr/local/lib/ARM/CMSIS/5.4.0/CMSIS/RTOS2/RTX/Source/rtx_evr.c **** 
1448:/usr/local/lib/ARM/CMSIS/5.4.0/CMSIS/RTOS2/RTX/Source/rtx_evr.c **** //  ==== Semaphore Events ====
1449:/usr/local/lib/ARM/CMSIS/5.4.0/CMSIS/RTOS2/RTX/Source/rtx_evr.c **** 
1450:/usr/local/lib/ARM/CMSIS/5.4.0/CMSIS/RTOS2/RTX/Source/rtx_evr.c **** #if (!defined(EVR_RTX_DISABLE) && (OS_EVR_SEMAPHORE != 0) && !defined(EVR_RTX_SEMAPHORE_ERROR_DISAB
1451:/usr/local/lib/ARM/CMSIS/5.4.0/CMSIS/RTOS2/RTX/Source/rtx_evr.c **** __WEAK void EvrRtxSemaphoreError (osSemaphoreId_t semaphore_id, int32_t status) {
 2034              		.loc 1 1451 0
 2035              		.cfi_startproc
 2036              		@ args = 0, pretend = 0, frame = 0
 2037              		@ frame_needed = 0, uses_anonymous_args = 0
 2038              		@ link register save eliminated.
 2039              	.LVL100:
 2040 0000 7047     		bx	lr
 2041              		.cfi_endproc
 2042              	.LFE214:
 2044 0002 00BF     		.section	.text.EvrRtxSemaphoreNew,"ax",%progbits
 2045              		.align	2
 2046              		.weak	EvrRtxSemaphoreNew
 2047              		.thumb
 2048              		.thumb_func
 2050              	EvrRtxSemaphoreNew:
 2051              	.LFB215:
1452:/usr/local/lib/ARM/CMSIS/5.4.0/CMSIS/RTOS2/RTX/Source/rtx_evr.c **** #if defined(RTE_Compiler_EventRecorder)
1453:/usr/local/lib/ARM/CMSIS/5.4.0/CMSIS/RTOS2/RTX/Source/rtx_evr.c ****   (void)EventRecord2(EvtRtxSemaphoreError, (uint32_t)semaphore_id, (uint32_t)status);
1454:/usr/local/lib/ARM/CMSIS/5.4.0/CMSIS/RTOS2/RTX/Source/rtx_evr.c **** #else
1455:/usr/local/lib/ARM/CMSIS/5.4.0/CMSIS/RTOS2/RTX/Source/rtx_evr.c ****   (void)semaphore_id;
1456:/usr/local/lib/ARM/CMSIS/5.4.0/CMSIS/RTOS2/RTX/Source/rtx_evr.c ****   (void)status;
1457:/usr/local/lib/ARM/CMSIS/5.4.0/CMSIS/RTOS2/RTX/Source/rtx_evr.c **** #endif
1458:/usr/local/lib/ARM/CMSIS/5.4.0/CMSIS/RTOS2/RTX/Source/rtx_evr.c **** }
1459:/usr/local/lib/ARM/CMSIS/5.4.0/CMSIS/RTOS2/RTX/Source/rtx_evr.c **** #endif
1460:/usr/local/lib/ARM/CMSIS/5.4.0/CMSIS/RTOS2/RTX/Source/rtx_evr.c **** 
1461:/usr/local/lib/ARM/CMSIS/5.4.0/CMSIS/RTOS2/RTX/Source/rtx_evr.c **** #if (!defined(EVR_RTX_DISABLE) && (OS_EVR_SEMAPHORE != 0) && !defined(EVR_RTX_SEMAPHORE_NEW_DISABLE
1462:/usr/local/lib/ARM/CMSIS/5.4.0/CMSIS/RTOS2/RTX/Source/rtx_evr.c **** __WEAK void EvrRtxSemaphoreNew (uint32_t max_count, uint32_t initial_count, const osSemaphoreAttr_t
 2052              		.loc 1 1462 0
 2053              		.cfi_startproc
 2054              		@ args = 0, pretend = 0, frame = 0
 2055              		@ frame_needed = 0, uses_anonymous_args = 0
 2056              		@ link register save eliminated.
 2057              	.LVL101:
 2058 0000 7047     		bx	lr
 2059              		.cfi_endproc
 2060              	.LFE215:
 2062 0002 00BF     		.section	.text.EvrRtxSemaphoreCreated,"ax",%progbits
 2063              		.align	2
 2064              		.weak	EvrRtxSemaphoreCreated
 2065              		.thumb
 2066              		.thumb_func
 2068              	EvrRtxSemaphoreCreated:
 2069              	.LFB216:
1463:/usr/local/lib/ARM/CMSIS/5.4.0/CMSIS/RTOS2/RTX/Source/rtx_evr.c **** #if defined(RTE_Compiler_EventRecorder)
1464:/usr/local/lib/ARM/CMSIS/5.4.0/CMSIS/RTOS2/RTX/Source/rtx_evr.c ****   (void)EventRecord4(EvtRtxSemaphoreNew, max_count, initial_count, (uint32_t)attr, 0U);
1465:/usr/local/lib/ARM/CMSIS/5.4.0/CMSIS/RTOS2/RTX/Source/rtx_evr.c ****   if (attr != NULL) {
1466:/usr/local/lib/ARM/CMSIS/5.4.0/CMSIS/RTOS2/RTX/Source/rtx_evr.c ****     (void)EventRecordData(EvtRtxSemaphoreNew_Detail, attr, sizeof (osSemaphoreAttr_t));
ARM GAS  /tmp/ccrysPfs.s 			page 59


1467:/usr/local/lib/ARM/CMSIS/5.4.0/CMSIS/RTOS2/RTX/Source/rtx_evr.c ****   }
1468:/usr/local/lib/ARM/CMSIS/5.4.0/CMSIS/RTOS2/RTX/Source/rtx_evr.c **** #else
1469:/usr/local/lib/ARM/CMSIS/5.4.0/CMSIS/RTOS2/RTX/Source/rtx_evr.c ****   (void)max_count;
1470:/usr/local/lib/ARM/CMSIS/5.4.0/CMSIS/RTOS2/RTX/Source/rtx_evr.c ****   (void)initial_count;
1471:/usr/local/lib/ARM/CMSIS/5.4.0/CMSIS/RTOS2/RTX/Source/rtx_evr.c ****   (void)attr;
1472:/usr/local/lib/ARM/CMSIS/5.4.0/CMSIS/RTOS2/RTX/Source/rtx_evr.c **** #endif
1473:/usr/local/lib/ARM/CMSIS/5.4.0/CMSIS/RTOS2/RTX/Source/rtx_evr.c **** }
1474:/usr/local/lib/ARM/CMSIS/5.4.0/CMSIS/RTOS2/RTX/Source/rtx_evr.c **** #endif
1475:/usr/local/lib/ARM/CMSIS/5.4.0/CMSIS/RTOS2/RTX/Source/rtx_evr.c **** 
1476:/usr/local/lib/ARM/CMSIS/5.4.0/CMSIS/RTOS2/RTX/Source/rtx_evr.c **** #if (!defined(EVR_RTX_DISABLE) && (OS_EVR_SEMAPHORE != 0) && !defined(EVR_RTX_SEMAPHORE_CREATED_DIS
1477:/usr/local/lib/ARM/CMSIS/5.4.0/CMSIS/RTOS2/RTX/Source/rtx_evr.c **** __WEAK void EvrRtxSemaphoreCreated (osSemaphoreId_t semaphore_id, const char *name) {
 2070              		.loc 1 1477 0
 2071              		.cfi_startproc
 2072              		@ args = 0, pretend = 0, frame = 0
 2073              		@ frame_needed = 0, uses_anonymous_args = 0
 2074              		@ link register save eliminated.
 2075              	.LVL102:
 2076 0000 7047     		bx	lr
 2077              		.cfi_endproc
 2078              	.LFE216:
 2080 0002 00BF     		.section	.text.EvrRtxSemaphoreGetName,"ax",%progbits
 2081              		.align	2
 2082              		.weak	EvrRtxSemaphoreGetName
 2083              		.thumb
 2084              		.thumb_func
 2086              	EvrRtxSemaphoreGetName:
 2087              	.LFB217:
1478:/usr/local/lib/ARM/CMSIS/5.4.0/CMSIS/RTOS2/RTX/Source/rtx_evr.c **** #if defined(RTE_Compiler_EventRecorder)
1479:/usr/local/lib/ARM/CMSIS/5.4.0/CMSIS/RTOS2/RTX/Source/rtx_evr.c ****   (void)EventRecord2(EvtRtxSemaphoreCreated, (uint32_t)semaphore_id, (uint32_t)name);
1480:/usr/local/lib/ARM/CMSIS/5.4.0/CMSIS/RTOS2/RTX/Source/rtx_evr.c **** #else
1481:/usr/local/lib/ARM/CMSIS/5.4.0/CMSIS/RTOS2/RTX/Source/rtx_evr.c ****   (void)semaphore_id;
1482:/usr/local/lib/ARM/CMSIS/5.4.0/CMSIS/RTOS2/RTX/Source/rtx_evr.c ****   (void)name;
1483:/usr/local/lib/ARM/CMSIS/5.4.0/CMSIS/RTOS2/RTX/Source/rtx_evr.c **** #endif
1484:/usr/local/lib/ARM/CMSIS/5.4.0/CMSIS/RTOS2/RTX/Source/rtx_evr.c **** }
1485:/usr/local/lib/ARM/CMSIS/5.4.0/CMSIS/RTOS2/RTX/Source/rtx_evr.c **** #endif
1486:/usr/local/lib/ARM/CMSIS/5.4.0/CMSIS/RTOS2/RTX/Source/rtx_evr.c **** 
1487:/usr/local/lib/ARM/CMSIS/5.4.0/CMSIS/RTOS2/RTX/Source/rtx_evr.c **** #if (!defined(EVR_RTX_DISABLE) && (OS_EVR_SEMAPHORE != 0) && !defined(EVR_RTX_SEMAPHORE_GET_NAME_DI
1488:/usr/local/lib/ARM/CMSIS/5.4.0/CMSIS/RTOS2/RTX/Source/rtx_evr.c **** __WEAK void EvrRtxSemaphoreGetName (osSemaphoreId_t semaphore_id, const char *name) {
 2088              		.loc 1 1488 0
 2089              		.cfi_startproc
 2090              		@ args = 0, pretend = 0, frame = 0
 2091              		@ frame_needed = 0, uses_anonymous_args = 0
 2092              		@ link register save eliminated.
 2093              	.LVL103:
 2094 0000 7047     		bx	lr
 2095              		.cfi_endproc
 2096              	.LFE217:
 2098 0002 00BF     		.section	.text.EvrRtxSemaphoreAcquire,"ax",%progbits
 2099              		.align	2
 2100              		.weak	EvrRtxSemaphoreAcquire
 2101              		.thumb
 2102              		.thumb_func
 2104              	EvrRtxSemaphoreAcquire:
 2105              	.LFB218:
1489:/usr/local/lib/ARM/CMSIS/5.4.0/CMSIS/RTOS2/RTX/Source/rtx_evr.c **** #if defined(RTE_Compiler_EventRecorder)
1490:/usr/local/lib/ARM/CMSIS/5.4.0/CMSIS/RTOS2/RTX/Source/rtx_evr.c ****   (void)EventRecord2(EvtRtxSemaphoreGetName, (uint32_t)semaphore_id, (uint32_t)name);
1491:/usr/local/lib/ARM/CMSIS/5.4.0/CMSIS/RTOS2/RTX/Source/rtx_evr.c **** #else
ARM GAS  /tmp/ccrysPfs.s 			page 60


1492:/usr/local/lib/ARM/CMSIS/5.4.0/CMSIS/RTOS2/RTX/Source/rtx_evr.c **** #endif
1493:/usr/local/lib/ARM/CMSIS/5.4.0/CMSIS/RTOS2/RTX/Source/rtx_evr.c ****   (void)semaphore_id;
1494:/usr/local/lib/ARM/CMSIS/5.4.0/CMSIS/RTOS2/RTX/Source/rtx_evr.c ****   (void)name;
1495:/usr/local/lib/ARM/CMSIS/5.4.0/CMSIS/RTOS2/RTX/Source/rtx_evr.c **** }
1496:/usr/local/lib/ARM/CMSIS/5.4.0/CMSIS/RTOS2/RTX/Source/rtx_evr.c **** #endif
1497:/usr/local/lib/ARM/CMSIS/5.4.0/CMSIS/RTOS2/RTX/Source/rtx_evr.c **** 
1498:/usr/local/lib/ARM/CMSIS/5.4.0/CMSIS/RTOS2/RTX/Source/rtx_evr.c **** #if (!defined(EVR_RTX_DISABLE) && (OS_EVR_SEMAPHORE != 0) && !defined(EVR_RTX_SEMAPHORE_ACQUIRE_DIS
1499:/usr/local/lib/ARM/CMSIS/5.4.0/CMSIS/RTOS2/RTX/Source/rtx_evr.c **** __WEAK void EvrRtxSemaphoreAcquire (osSemaphoreId_t semaphore_id, uint32_t timeout) {
 2106              		.loc 1 1499 0
 2107              		.cfi_startproc
 2108              		@ args = 0, pretend = 0, frame = 0
 2109              		@ frame_needed = 0, uses_anonymous_args = 0
 2110              		@ link register save eliminated.
 2111              	.LVL104:
 2112 0000 7047     		bx	lr
 2113              		.cfi_endproc
 2114              	.LFE218:
 2116 0002 00BF     		.section	.text.EvrRtxSemaphoreAcquirePending,"ax",%progbits
 2117              		.align	2
 2118              		.weak	EvrRtxSemaphoreAcquirePending
 2119              		.thumb
 2120              		.thumb_func
 2122              	EvrRtxSemaphoreAcquirePending:
 2123              	.LFB219:
1500:/usr/local/lib/ARM/CMSIS/5.4.0/CMSIS/RTOS2/RTX/Source/rtx_evr.c **** #if defined(RTE_Compiler_EventRecorder)
1501:/usr/local/lib/ARM/CMSIS/5.4.0/CMSIS/RTOS2/RTX/Source/rtx_evr.c ****   (void)EventRecord2(EvtRtxSemaphoreAcquire, (uint32_t)semaphore_id, timeout);
1502:/usr/local/lib/ARM/CMSIS/5.4.0/CMSIS/RTOS2/RTX/Source/rtx_evr.c **** #else
1503:/usr/local/lib/ARM/CMSIS/5.4.0/CMSIS/RTOS2/RTX/Source/rtx_evr.c ****   (void)semaphore_id;
1504:/usr/local/lib/ARM/CMSIS/5.4.0/CMSIS/RTOS2/RTX/Source/rtx_evr.c ****   (void)timeout;
1505:/usr/local/lib/ARM/CMSIS/5.4.0/CMSIS/RTOS2/RTX/Source/rtx_evr.c **** #endif
1506:/usr/local/lib/ARM/CMSIS/5.4.0/CMSIS/RTOS2/RTX/Source/rtx_evr.c **** }
1507:/usr/local/lib/ARM/CMSIS/5.4.0/CMSIS/RTOS2/RTX/Source/rtx_evr.c **** #endif
1508:/usr/local/lib/ARM/CMSIS/5.4.0/CMSIS/RTOS2/RTX/Source/rtx_evr.c **** 
1509:/usr/local/lib/ARM/CMSIS/5.4.0/CMSIS/RTOS2/RTX/Source/rtx_evr.c **** #if (!defined(EVR_RTX_DISABLE) && (OS_EVR_SEMAPHORE != 0) && !defined(EVR_RTX_SEMAPHORE_ACQUIRE_PEN
1510:/usr/local/lib/ARM/CMSIS/5.4.0/CMSIS/RTOS2/RTX/Source/rtx_evr.c **** __WEAK void EvrRtxSemaphoreAcquirePending (osSemaphoreId_t semaphore_id, uint32_t timeout) {
 2124              		.loc 1 1510 0
 2125              		.cfi_startproc
 2126              		@ args = 0, pretend = 0, frame = 0
 2127              		@ frame_needed = 0, uses_anonymous_args = 0
 2128              		@ link register save eliminated.
 2129              	.LVL105:
 2130 0000 7047     		bx	lr
 2131              		.cfi_endproc
 2132              	.LFE219:
 2134 0002 00BF     		.section	.text.EvrRtxSemaphoreAcquireTimeout,"ax",%progbits
 2135              		.align	2
 2136              		.weak	EvrRtxSemaphoreAcquireTimeout
 2137              		.thumb
 2138              		.thumb_func
 2140              	EvrRtxSemaphoreAcquireTimeout:
 2141              	.LFB220:
1511:/usr/local/lib/ARM/CMSIS/5.4.0/CMSIS/RTOS2/RTX/Source/rtx_evr.c **** #if defined(RTE_Compiler_EventRecorder)
1512:/usr/local/lib/ARM/CMSIS/5.4.0/CMSIS/RTOS2/RTX/Source/rtx_evr.c ****   (void)EventRecord2(EvtRtxSemaphoreAcquirePending, (uint32_t)semaphore_id, (uint32_t)timeout);
1513:/usr/local/lib/ARM/CMSIS/5.4.0/CMSIS/RTOS2/RTX/Source/rtx_evr.c **** #else
1514:/usr/local/lib/ARM/CMSIS/5.4.0/CMSIS/RTOS2/RTX/Source/rtx_evr.c ****   (void)semaphore_id;
1515:/usr/local/lib/ARM/CMSIS/5.4.0/CMSIS/RTOS2/RTX/Source/rtx_evr.c ****   (void)timeout;
1516:/usr/local/lib/ARM/CMSIS/5.4.0/CMSIS/RTOS2/RTX/Source/rtx_evr.c **** #endif
ARM GAS  /tmp/ccrysPfs.s 			page 61


1517:/usr/local/lib/ARM/CMSIS/5.4.0/CMSIS/RTOS2/RTX/Source/rtx_evr.c **** }
1518:/usr/local/lib/ARM/CMSIS/5.4.0/CMSIS/RTOS2/RTX/Source/rtx_evr.c **** #endif
1519:/usr/local/lib/ARM/CMSIS/5.4.0/CMSIS/RTOS2/RTX/Source/rtx_evr.c **** 
1520:/usr/local/lib/ARM/CMSIS/5.4.0/CMSIS/RTOS2/RTX/Source/rtx_evr.c **** #if (!defined(EVR_RTX_DISABLE) && (OS_EVR_SEMAPHORE != 0) && !defined(EVR_RTX_SEMAPHORE_ACQUIRE_TIM
1521:/usr/local/lib/ARM/CMSIS/5.4.0/CMSIS/RTOS2/RTX/Source/rtx_evr.c **** __WEAK void EvrRtxSemaphoreAcquireTimeout (osSemaphoreId_t semaphore_id) {
 2142              		.loc 1 1521 0
 2143              		.cfi_startproc
 2144              		@ args = 0, pretend = 0, frame = 0
 2145              		@ frame_needed = 0, uses_anonymous_args = 0
