ARM GAS  /tmp/cc4RTizm.s 			page 1


   1              		.syntax unified
   2              		.cpu cortex-m4
   3              		.eabi_attribute 27, 1
   4              		.eabi_attribute 28, 1
   5              		.fpu fpv4-sp-d16
   6              		.eabi_attribute 20, 1
   7              		.eabi_attribute 21, 1
   8              		.eabi_attribute 23, 3
   9              		.eabi_attribute 24, 1
  10              		.eabi_attribute 25, 1
  11              		.eabi_attribute 26, 1
  12              		.eabi_attribute 30, 1
  13              		.eabi_attribute 34, 1
  14              		.eabi_attribute 18, 4
  15              		.thumb
  16              		.syntax unified
  17              		.file	"rtx_evflags.c"
  18              		.text
  19              	.Ltext0:
  20              		.cfi_sections	.debug_frame
  21              		.section	.text.EventFlagsSet,"ax",%progbits
  22              		.align	2
  23              		.thumb
  24              		.thumb_func
  26              	EventFlagsSet:
  27              	.LFB174:
  28              		.file 1 "/usr/local/lib/ARM/CMSIS/5.4.0/CMSIS/RTOS2/RTX/Source/rtx_evflags.c"
   1:/usr/local/lib/ARM/CMSIS/5.4.0/CMSIS/RTOS2/RTX/Source/rtx_evflags.c **** /*
   2:/usr/local/lib/ARM/CMSIS/5.4.0/CMSIS/RTOS2/RTX/Source/rtx_evflags.c ****  * Copyright (c) 2013-2018 Arm Limited. All rights reserved.
   3:/usr/local/lib/ARM/CMSIS/5.4.0/CMSIS/RTOS2/RTX/Source/rtx_evflags.c ****  *
   4:/usr/local/lib/ARM/CMSIS/5.4.0/CMSIS/RTOS2/RTX/Source/rtx_evflags.c ****  * SPDX-License-Identifier: Apache-2.0
   5:/usr/local/lib/ARM/CMSIS/5.4.0/CMSIS/RTOS2/RTX/Source/rtx_evflags.c ****  *
   6:/usr/local/lib/ARM/CMSIS/5.4.0/CMSIS/RTOS2/RTX/Source/rtx_evflags.c ****  * Licensed under the Apache License, Version 2.0 (the License); you may
   7:/usr/local/lib/ARM/CMSIS/5.4.0/CMSIS/RTOS2/RTX/Source/rtx_evflags.c ****  * not use this file except in compliance with the License.
   8:/usr/local/lib/ARM/CMSIS/5.4.0/CMSIS/RTOS2/RTX/Source/rtx_evflags.c ****  * You may obtain a copy of the License at
   9:/usr/local/lib/ARM/CMSIS/5.4.0/CMSIS/RTOS2/RTX/Source/rtx_evflags.c ****  *
  10:/usr/local/lib/ARM/CMSIS/5.4.0/CMSIS/RTOS2/RTX/Source/rtx_evflags.c ****  * www.apache.org/licenses/LICENSE-2.0
  11:/usr/local/lib/ARM/CMSIS/5.4.0/CMSIS/RTOS2/RTX/Source/rtx_evflags.c ****  *
  12:/usr/local/lib/ARM/CMSIS/5.4.0/CMSIS/RTOS2/RTX/Source/rtx_evflags.c ****  * Unless required by applicable law or agreed to in writing, software
  13:/usr/local/lib/ARM/CMSIS/5.4.0/CMSIS/RTOS2/RTX/Source/rtx_evflags.c ****  * distributed under the License is distributed on an AS IS BASIS, WITHOUT
  14:/usr/local/lib/ARM/CMSIS/5.4.0/CMSIS/RTOS2/RTX/Source/rtx_evflags.c ****  * WARRANTIES OR CONDITIONS OF ANY KIND, either express or implied.
  15:/usr/local/lib/ARM/CMSIS/5.4.0/CMSIS/RTOS2/RTX/Source/rtx_evflags.c ****  * See the License for the specific language governing permissions and
  16:/usr/local/lib/ARM/CMSIS/5.4.0/CMSIS/RTOS2/RTX/Source/rtx_evflags.c ****  * limitations under the License.
  17:/usr/local/lib/ARM/CMSIS/5.4.0/CMSIS/RTOS2/RTX/Source/rtx_evflags.c ****  *
  18:/usr/local/lib/ARM/CMSIS/5.4.0/CMSIS/RTOS2/RTX/Source/rtx_evflags.c ****  * -----------------------------------------------------------------------------
  19:/usr/local/lib/ARM/CMSIS/5.4.0/CMSIS/RTOS2/RTX/Source/rtx_evflags.c ****  *
  20:/usr/local/lib/ARM/CMSIS/5.4.0/CMSIS/RTOS2/RTX/Source/rtx_evflags.c ****  * Project:     CMSIS-RTOS RTX
  21:/usr/local/lib/ARM/CMSIS/5.4.0/CMSIS/RTOS2/RTX/Source/rtx_evflags.c ****  * Title:       Event Flags functions
  22:/usr/local/lib/ARM/CMSIS/5.4.0/CMSIS/RTOS2/RTX/Source/rtx_evflags.c ****  *
  23:/usr/local/lib/ARM/CMSIS/5.4.0/CMSIS/RTOS2/RTX/Source/rtx_evflags.c ****  * -----------------------------------------------------------------------------
  24:/usr/local/lib/ARM/CMSIS/5.4.0/CMSIS/RTOS2/RTX/Source/rtx_evflags.c ****  */
  25:/usr/local/lib/ARM/CMSIS/5.4.0/CMSIS/RTOS2/RTX/Source/rtx_evflags.c **** 
  26:/usr/local/lib/ARM/CMSIS/5.4.0/CMSIS/RTOS2/RTX/Source/rtx_evflags.c **** #include "rtx_lib.h"
  27:/usr/local/lib/ARM/CMSIS/5.4.0/CMSIS/RTOS2/RTX/Source/rtx_evflags.c **** 
  28:/usr/local/lib/ARM/CMSIS/5.4.0/CMSIS/RTOS2/RTX/Source/rtx_evflags.c **** 
  29:/usr/local/lib/ARM/CMSIS/5.4.0/CMSIS/RTOS2/RTX/Source/rtx_evflags.c **** //  OS Runtime Object Memory Usage
  30:/usr/local/lib/ARM/CMSIS/5.4.0/CMSIS/RTOS2/RTX/Source/rtx_evflags.c **** #if ((defined(OS_OBJ_MEM_USAGE) && (OS_OBJ_MEM_USAGE != 0)))
ARM GAS  /tmp/cc4RTizm.s 			page 2


  31:/usr/local/lib/ARM/CMSIS/5.4.0/CMSIS/RTOS2/RTX/Source/rtx_evflags.c **** osRtxObjectMemUsage_t osRtxEventFlagsMemUsage \
  32:/usr/local/lib/ARM/CMSIS/5.4.0/CMSIS/RTOS2/RTX/Source/rtx_evflags.c **** __attribute__((section(".data.os.evflags.obj"))) =
  33:/usr/local/lib/ARM/CMSIS/5.4.0/CMSIS/RTOS2/RTX/Source/rtx_evflags.c **** { 0U, 0U, 0U };
  34:/usr/local/lib/ARM/CMSIS/5.4.0/CMSIS/RTOS2/RTX/Source/rtx_evflags.c **** #endif
  35:/usr/local/lib/ARM/CMSIS/5.4.0/CMSIS/RTOS2/RTX/Source/rtx_evflags.c **** 
  36:/usr/local/lib/ARM/CMSIS/5.4.0/CMSIS/RTOS2/RTX/Source/rtx_evflags.c **** 
  37:/usr/local/lib/ARM/CMSIS/5.4.0/CMSIS/RTOS2/RTX/Source/rtx_evflags.c **** //  ==== Helper functions ====
  38:/usr/local/lib/ARM/CMSIS/5.4.0/CMSIS/RTOS2/RTX/Source/rtx_evflags.c **** 
  39:/usr/local/lib/ARM/CMSIS/5.4.0/CMSIS/RTOS2/RTX/Source/rtx_evflags.c **** /// Set Event Flags.
  40:/usr/local/lib/ARM/CMSIS/5.4.0/CMSIS/RTOS2/RTX/Source/rtx_evflags.c **** /// \param[in]  ef              event flags object.
  41:/usr/local/lib/ARM/CMSIS/5.4.0/CMSIS/RTOS2/RTX/Source/rtx_evflags.c **** /// \param[in]  flags           specifies the flags to set.
  42:/usr/local/lib/ARM/CMSIS/5.4.0/CMSIS/RTOS2/RTX/Source/rtx_evflags.c **** /// \return event flags after setting.
  43:/usr/local/lib/ARM/CMSIS/5.4.0/CMSIS/RTOS2/RTX/Source/rtx_evflags.c **** static uint32_t EventFlagsSet (os_event_flags_t *ef, uint32_t flags) {
  29              		.loc 1 43 0
  30              		.cfi_startproc
  31              		@ args = 0, pretend = 0, frame = 0
  32              		@ frame_needed = 0, uses_anonymous_args = 0
  33              		@ link register save eliminated.
  34              	.LVL0:
  35 0000 10B4     		push	{r4}
  36              	.LCFI0:
  37              		.cfi_def_cfa_offset 4
  38              		.cfi_offset 4, -4
  44:/usr/local/lib/ARM/CMSIS/5.4.0/CMSIS/RTOS2/RTX/Source/rtx_evflags.c **** #if (EXCLUSIVE_ACCESS == 0)
  45:/usr/local/lib/ARM/CMSIS/5.4.0/CMSIS/RTOS2/RTX/Source/rtx_evflags.c ****   uint32_t primask = __get_PRIMASK();
  46:/usr/local/lib/ARM/CMSIS/5.4.0/CMSIS/RTOS2/RTX/Source/rtx_evflags.c **** #endif
  47:/usr/local/lib/ARM/CMSIS/5.4.0/CMSIS/RTOS2/RTX/Source/rtx_evflags.c ****   uint32_t event_flags;
  48:/usr/local/lib/ARM/CMSIS/5.4.0/CMSIS/RTOS2/RTX/Source/rtx_evflags.c **** 
  49:/usr/local/lib/ARM/CMSIS/5.4.0/CMSIS/RTOS2/RTX/Source/rtx_evflags.c **** #if (EXCLUSIVE_ACCESS == 0)
  50:/usr/local/lib/ARM/CMSIS/5.4.0/CMSIS/RTOS2/RTX/Source/rtx_evflags.c ****   __disable_irq();
  51:/usr/local/lib/ARM/CMSIS/5.4.0/CMSIS/RTOS2/RTX/Source/rtx_evflags.c **** 
  52:/usr/local/lib/ARM/CMSIS/5.4.0/CMSIS/RTOS2/RTX/Source/rtx_evflags.c ****   ef->event_flags |= flags;
  53:/usr/local/lib/ARM/CMSIS/5.4.0/CMSIS/RTOS2/RTX/Source/rtx_evflags.c ****   event_flags = ef->event_flags;
  54:/usr/local/lib/ARM/CMSIS/5.4.0/CMSIS/RTOS2/RTX/Source/rtx_evflags.c **** 
  55:/usr/local/lib/ARM/CMSIS/5.4.0/CMSIS/RTOS2/RTX/Source/rtx_evflags.c ****   if (primask == 0U) {
  56:/usr/local/lib/ARM/CMSIS/5.4.0/CMSIS/RTOS2/RTX/Source/rtx_evflags.c ****     __enable_irq();
  57:/usr/local/lib/ARM/CMSIS/5.4.0/CMSIS/RTOS2/RTX/Source/rtx_evflags.c ****   }
  58:/usr/local/lib/ARM/CMSIS/5.4.0/CMSIS/RTOS2/RTX/Source/rtx_evflags.c **** #else
  59:/usr/local/lib/ARM/CMSIS/5.4.0/CMSIS/RTOS2/RTX/Source/rtx_evflags.c ****   event_flags = atomic_set32(&ef->event_flags, flags);
  39              		.loc 1 59 0
  40 0002 00F10C03 		add	r3, r0, #12
  41              	.LVL1:
  42              	.LBB138:
  43              	.LBB139:
  44              		.file 2 "/usr/local/lib/ARM/CMSIS/5.4.0/CMSIS/RTOS2/RTX/Source/rtx_core_cm.h"
   1:/usr/local/lib/ARM/CMSIS/5.4.0/CMSIS/RTOS2/RTX/Source/rtx_core_cm.h **** /*
   2:/usr/local/lib/ARM/CMSIS/5.4.0/CMSIS/RTOS2/RTX/Source/rtx_core_cm.h ****  * Copyright (c) 2013-2018 Arm Limited. All rights reserved.
   3:/usr/local/lib/ARM/CMSIS/5.4.0/CMSIS/RTOS2/RTX/Source/rtx_core_cm.h ****  *
   4:/usr/local/lib/ARM/CMSIS/5.4.0/CMSIS/RTOS2/RTX/Source/rtx_core_cm.h ****  * SPDX-License-Identifier: Apache-2.0
   5:/usr/local/lib/ARM/CMSIS/5.4.0/CMSIS/RTOS2/RTX/Source/rtx_core_cm.h ****  *
   6:/usr/local/lib/ARM/CMSIS/5.4.0/CMSIS/RTOS2/RTX/Source/rtx_core_cm.h ****  * Licensed under the Apache License, Version 2.0 (the License); you may
   7:/usr/local/lib/ARM/CMSIS/5.4.0/CMSIS/RTOS2/RTX/Source/rtx_core_cm.h ****  * not use this file except in compliance with the License.
   8:/usr/local/lib/ARM/CMSIS/5.4.0/CMSIS/RTOS2/RTX/Source/rtx_core_cm.h ****  * You may obtain a copy of the License at
   9:/usr/local/lib/ARM/CMSIS/5.4.0/CMSIS/RTOS2/RTX/Source/rtx_core_cm.h ****  *
  10:/usr/local/lib/ARM/CMSIS/5.4.0/CMSIS/RTOS2/RTX/Source/rtx_core_cm.h ****  * www.apache.org/licenses/LICENSE-2.0
  11:/usr/local/lib/ARM/CMSIS/5.4.0/CMSIS/RTOS2/RTX/Source/rtx_core_cm.h ****  *
  12:/usr/local/lib/ARM/CMSIS/5.4.0/CMSIS/RTOS2/RTX/Source/rtx_core_cm.h ****  * Unless required by applicable law or agreed to in writing, software
ARM GAS  /tmp/cc4RTizm.s 			page 3


  13:/usr/local/lib/ARM/CMSIS/5.4.0/CMSIS/RTOS2/RTX/Source/rtx_core_cm.h ****  * distributed under the License is distributed on an AS IS BASIS, WITHOUT
  14:/usr/local/lib/ARM/CMSIS/5.4.0/CMSIS/RTOS2/RTX/Source/rtx_core_cm.h ****  * WARRANTIES OR CONDITIONS OF ANY KIND, either express or implied.
  15:/usr/local/lib/ARM/CMSIS/5.4.0/CMSIS/RTOS2/RTX/Source/rtx_core_cm.h ****  * See the License for the specific language governing permissions and
  16:/usr/local/lib/ARM/CMSIS/5.4.0/CMSIS/RTOS2/RTX/Source/rtx_core_cm.h ****  * limitations under the License.
  17:/usr/local/lib/ARM/CMSIS/5.4.0/CMSIS/RTOS2/RTX/Source/rtx_core_cm.h ****  *
  18:/usr/local/lib/ARM/CMSIS/5.4.0/CMSIS/RTOS2/RTX/Source/rtx_core_cm.h ****  * -----------------------------------------------------------------------------
  19:/usr/local/lib/ARM/CMSIS/5.4.0/CMSIS/RTOS2/RTX/Source/rtx_core_cm.h ****  *
  20:/usr/local/lib/ARM/CMSIS/5.4.0/CMSIS/RTOS2/RTX/Source/rtx_core_cm.h ****  * Project:     CMSIS-RTOS RTX
  21:/usr/local/lib/ARM/CMSIS/5.4.0/CMSIS/RTOS2/RTX/Source/rtx_core_cm.h ****  * Title:       Cortex-M Core definitions
  22:/usr/local/lib/ARM/CMSIS/5.4.0/CMSIS/RTOS2/RTX/Source/rtx_core_cm.h ****  *
  23:/usr/local/lib/ARM/CMSIS/5.4.0/CMSIS/RTOS2/RTX/Source/rtx_core_cm.h ****  * -----------------------------------------------------------------------------
  24:/usr/local/lib/ARM/CMSIS/5.4.0/CMSIS/RTOS2/RTX/Source/rtx_core_cm.h ****  */
  25:/usr/local/lib/ARM/CMSIS/5.4.0/CMSIS/RTOS2/RTX/Source/rtx_core_cm.h **** 
  26:/usr/local/lib/ARM/CMSIS/5.4.0/CMSIS/RTOS2/RTX/Source/rtx_core_cm.h **** #ifndef RTX_CORE_CM_H_
  27:/usr/local/lib/ARM/CMSIS/5.4.0/CMSIS/RTOS2/RTX/Source/rtx_core_cm.h **** #define RTX_CORE_CM_H_
  28:/usr/local/lib/ARM/CMSIS/5.4.0/CMSIS/RTOS2/RTX/Source/rtx_core_cm.h **** 
  29:/usr/local/lib/ARM/CMSIS/5.4.0/CMSIS/RTOS2/RTX/Source/rtx_core_cm.h **** #ifndef RTX_CORE_C_H_
  30:/usr/local/lib/ARM/CMSIS/5.4.0/CMSIS/RTOS2/RTX/Source/rtx_core_cm.h **** #include "RTE_Components.h"
  31:/usr/local/lib/ARM/CMSIS/5.4.0/CMSIS/RTOS2/RTX/Source/rtx_core_cm.h **** #include CMSIS_device_header
  32:/usr/local/lib/ARM/CMSIS/5.4.0/CMSIS/RTOS2/RTX/Source/rtx_core_cm.h **** #endif
  33:/usr/local/lib/ARM/CMSIS/5.4.0/CMSIS/RTOS2/RTX/Source/rtx_core_cm.h **** 
  34:/usr/local/lib/ARM/CMSIS/5.4.0/CMSIS/RTOS2/RTX/Source/rtx_core_cm.h **** #include <stdbool.h>
  35:/usr/local/lib/ARM/CMSIS/5.4.0/CMSIS/RTOS2/RTX/Source/rtx_core_cm.h **** typedef bool bool_t;
  36:/usr/local/lib/ARM/CMSIS/5.4.0/CMSIS/RTOS2/RTX/Source/rtx_core_cm.h **** #define FALSE                   ((bool_t)0)
  37:/usr/local/lib/ARM/CMSIS/5.4.0/CMSIS/RTOS2/RTX/Source/rtx_core_cm.h **** #define TRUE                    ((bool_t)1)
  38:/usr/local/lib/ARM/CMSIS/5.4.0/CMSIS/RTOS2/RTX/Source/rtx_core_cm.h **** 
  39:/usr/local/lib/ARM/CMSIS/5.4.0/CMSIS/RTOS2/RTX/Source/rtx_core_cm.h **** #ifdef  RTE_CMSIS_RTOS2_RTX5_ARMV8M_NS
  40:/usr/local/lib/ARM/CMSIS/5.4.0/CMSIS/RTOS2/RTX/Source/rtx_core_cm.h **** #define DOMAIN_NS               1
  41:/usr/local/lib/ARM/CMSIS/5.4.0/CMSIS/RTOS2/RTX/Source/rtx_core_cm.h **** #endif
  42:/usr/local/lib/ARM/CMSIS/5.4.0/CMSIS/RTOS2/RTX/Source/rtx_core_cm.h **** 
  43:/usr/local/lib/ARM/CMSIS/5.4.0/CMSIS/RTOS2/RTX/Source/rtx_core_cm.h **** #ifndef DOMAIN_NS
  44:/usr/local/lib/ARM/CMSIS/5.4.0/CMSIS/RTOS2/RTX/Source/rtx_core_cm.h **** #define DOMAIN_NS               0
  45:/usr/local/lib/ARM/CMSIS/5.4.0/CMSIS/RTOS2/RTX/Source/rtx_core_cm.h **** #endif
  46:/usr/local/lib/ARM/CMSIS/5.4.0/CMSIS/RTOS2/RTX/Source/rtx_core_cm.h **** 
  47:/usr/local/lib/ARM/CMSIS/5.4.0/CMSIS/RTOS2/RTX/Source/rtx_core_cm.h **** #if    (DOMAIN_NS == 1)
  48:/usr/local/lib/ARM/CMSIS/5.4.0/CMSIS/RTOS2/RTX/Source/rtx_core_cm.h **** #if   ((!defined(__ARM_ARCH_8M_BASE__) || (__ARM_ARCH_8M_BASE__ == 0)) && \
  49:/usr/local/lib/ARM/CMSIS/5.4.0/CMSIS/RTOS2/RTX/Source/rtx_core_cm.h ****        (!defined(__ARM_ARCH_8M_MAIN__) || (__ARM_ARCH_8M_MAIN__ == 0)))
  50:/usr/local/lib/ARM/CMSIS/5.4.0/CMSIS/RTOS2/RTX/Source/rtx_core_cm.h **** #error "Non-secure domain requires ARMv8-M Architecture!"
  51:/usr/local/lib/ARM/CMSIS/5.4.0/CMSIS/RTOS2/RTX/Source/rtx_core_cm.h **** #endif
  52:/usr/local/lib/ARM/CMSIS/5.4.0/CMSIS/RTOS2/RTX/Source/rtx_core_cm.h **** #endif
  53:/usr/local/lib/ARM/CMSIS/5.4.0/CMSIS/RTOS2/RTX/Source/rtx_core_cm.h **** 
  54:/usr/local/lib/ARM/CMSIS/5.4.0/CMSIS/RTOS2/RTX/Source/rtx_core_cm.h **** #ifndef EXCLUSIVE_ACCESS
  55:/usr/local/lib/ARM/CMSIS/5.4.0/CMSIS/RTOS2/RTX/Source/rtx_core_cm.h **** #if    ((defined(__ARM_ARCH_7M__)      && (__ARM_ARCH_7M__      != 0)) || \
  56:/usr/local/lib/ARM/CMSIS/5.4.0/CMSIS/RTOS2/RTX/Source/rtx_core_cm.h ****         (defined(__ARM_ARCH_7EM__)     && (__ARM_ARCH_7EM__     != 0)) || \
  57:/usr/local/lib/ARM/CMSIS/5.4.0/CMSIS/RTOS2/RTX/Source/rtx_core_cm.h ****         (defined(__ARM_ARCH_8M_BASE__) && (__ARM_ARCH_8M_BASE__ != 0)) || \
  58:/usr/local/lib/ARM/CMSIS/5.4.0/CMSIS/RTOS2/RTX/Source/rtx_core_cm.h ****         (defined(__ARM_ARCH_8M_MAIN__) && (__ARM_ARCH_8M_MAIN__ != 0)))
  59:/usr/local/lib/ARM/CMSIS/5.4.0/CMSIS/RTOS2/RTX/Source/rtx_core_cm.h **** #define EXCLUSIVE_ACCESS        1
  60:/usr/local/lib/ARM/CMSIS/5.4.0/CMSIS/RTOS2/RTX/Source/rtx_core_cm.h **** #else
  61:/usr/local/lib/ARM/CMSIS/5.4.0/CMSIS/RTOS2/RTX/Source/rtx_core_cm.h **** #define EXCLUSIVE_ACCESS        0
  62:/usr/local/lib/ARM/CMSIS/5.4.0/CMSIS/RTOS2/RTX/Source/rtx_core_cm.h **** #endif
  63:/usr/local/lib/ARM/CMSIS/5.4.0/CMSIS/RTOS2/RTX/Source/rtx_core_cm.h **** #endif
  64:/usr/local/lib/ARM/CMSIS/5.4.0/CMSIS/RTOS2/RTX/Source/rtx_core_cm.h **** 
  65:/usr/local/lib/ARM/CMSIS/5.4.0/CMSIS/RTOS2/RTX/Source/rtx_core_cm.h **** #define OS_TICK_HANDLER         SysTick_Handler
  66:/usr/local/lib/ARM/CMSIS/5.4.0/CMSIS/RTOS2/RTX/Source/rtx_core_cm.h **** 
  67:/usr/local/lib/ARM/CMSIS/5.4.0/CMSIS/RTOS2/RTX/Source/rtx_core_cm.h **** /// xPSR_Initialization Value
  68:/usr/local/lib/ARM/CMSIS/5.4.0/CMSIS/RTOS2/RTX/Source/rtx_core_cm.h **** /// \param[in]  privileged      true=privileged, false=unprivileged
  69:/usr/local/lib/ARM/CMSIS/5.4.0/CMSIS/RTOS2/RTX/Source/rtx_core_cm.h **** /// \param[in]  thumb           true=Thumb, false=ARM
ARM GAS  /tmp/cc4RTizm.s 			page 4


  70:/usr/local/lib/ARM/CMSIS/5.4.0/CMSIS/RTOS2/RTX/Source/rtx_core_cm.h **** /// \return                     xPSR Init Value
  71:/usr/local/lib/ARM/CMSIS/5.4.0/CMSIS/RTOS2/RTX/Source/rtx_core_cm.h **** __STATIC_INLINE uint32_t xPSR_InitVal (bool_t privileged, bool_t thumb) {
  72:/usr/local/lib/ARM/CMSIS/5.4.0/CMSIS/RTOS2/RTX/Source/rtx_core_cm.h ****   (void)privileged;
  73:/usr/local/lib/ARM/CMSIS/5.4.0/CMSIS/RTOS2/RTX/Source/rtx_core_cm.h ****   (void)thumb;
  74:/usr/local/lib/ARM/CMSIS/5.4.0/CMSIS/RTOS2/RTX/Source/rtx_core_cm.h ****   return (0x01000000U);
  75:/usr/local/lib/ARM/CMSIS/5.4.0/CMSIS/RTOS2/RTX/Source/rtx_core_cm.h **** }
  76:/usr/local/lib/ARM/CMSIS/5.4.0/CMSIS/RTOS2/RTX/Source/rtx_core_cm.h **** 
  77:/usr/local/lib/ARM/CMSIS/5.4.0/CMSIS/RTOS2/RTX/Source/rtx_core_cm.h **** // Stack Frame:
  78:/usr/local/lib/ARM/CMSIS/5.4.0/CMSIS/RTOS2/RTX/Source/rtx_core_cm.h **** //  - Extended: S16-S31, R4-R11, R0-R3, R12, LR, PC, xPSR, S0-S15, FPSCR
  79:/usr/local/lib/ARM/CMSIS/5.4.0/CMSIS/RTOS2/RTX/Source/rtx_core_cm.h **** //  - Basic:             R4-R11, R0-R3, R12, LR, PC, xPSR
  80:/usr/local/lib/ARM/CMSIS/5.4.0/CMSIS/RTOS2/RTX/Source/rtx_core_cm.h **** 
  81:/usr/local/lib/ARM/CMSIS/5.4.0/CMSIS/RTOS2/RTX/Source/rtx_core_cm.h **** /// Stack Frame Initialization Value (EXC_RETURN[7..0])
  82:/usr/local/lib/ARM/CMSIS/5.4.0/CMSIS/RTOS2/RTX/Source/rtx_core_cm.h **** #if (DOMAIN_NS == 1)
  83:/usr/local/lib/ARM/CMSIS/5.4.0/CMSIS/RTOS2/RTX/Source/rtx_core_cm.h **** #define STACK_FRAME_INIT_VAL    0xBCU
  84:/usr/local/lib/ARM/CMSIS/5.4.0/CMSIS/RTOS2/RTX/Source/rtx_core_cm.h **** #else
  85:/usr/local/lib/ARM/CMSIS/5.4.0/CMSIS/RTOS2/RTX/Source/rtx_core_cm.h **** #define STACK_FRAME_INIT_VAL    0xFDU
  86:/usr/local/lib/ARM/CMSIS/5.4.0/CMSIS/RTOS2/RTX/Source/rtx_core_cm.h **** #endif
  87:/usr/local/lib/ARM/CMSIS/5.4.0/CMSIS/RTOS2/RTX/Source/rtx_core_cm.h **** 
  88:/usr/local/lib/ARM/CMSIS/5.4.0/CMSIS/RTOS2/RTX/Source/rtx_core_cm.h **** /// Stack Offset of Register R0
  89:/usr/local/lib/ARM/CMSIS/5.4.0/CMSIS/RTOS2/RTX/Source/rtx_core_cm.h **** /// \param[in]  stack_frame     Stack Frame (EXC_RETURN[7..0])
  90:/usr/local/lib/ARM/CMSIS/5.4.0/CMSIS/RTOS2/RTX/Source/rtx_core_cm.h **** /// \return                     R0 Offset
  91:/usr/local/lib/ARM/CMSIS/5.4.0/CMSIS/RTOS2/RTX/Source/rtx_core_cm.h **** __STATIC_INLINE uint32_t StackOffsetR0 (uint8_t stack_frame) {
  92:/usr/local/lib/ARM/CMSIS/5.4.0/CMSIS/RTOS2/RTX/Source/rtx_core_cm.h **** #if (__FPU_USED == 1U)
  93:/usr/local/lib/ARM/CMSIS/5.4.0/CMSIS/RTOS2/RTX/Source/rtx_core_cm.h ****   return (((stack_frame & 0x10U) == 0U) ? ((16U+8U)*4U) : (8U*4U));
  94:/usr/local/lib/ARM/CMSIS/5.4.0/CMSIS/RTOS2/RTX/Source/rtx_core_cm.h **** #else
  95:/usr/local/lib/ARM/CMSIS/5.4.0/CMSIS/RTOS2/RTX/Source/rtx_core_cm.h ****   (void)stack_frame;
  96:/usr/local/lib/ARM/CMSIS/5.4.0/CMSIS/RTOS2/RTX/Source/rtx_core_cm.h ****   return (8U*4U);
  97:/usr/local/lib/ARM/CMSIS/5.4.0/CMSIS/RTOS2/RTX/Source/rtx_core_cm.h **** #endif
  98:/usr/local/lib/ARM/CMSIS/5.4.0/CMSIS/RTOS2/RTX/Source/rtx_core_cm.h **** }
  99:/usr/local/lib/ARM/CMSIS/5.4.0/CMSIS/RTOS2/RTX/Source/rtx_core_cm.h **** 
 100:/usr/local/lib/ARM/CMSIS/5.4.0/CMSIS/RTOS2/RTX/Source/rtx_core_cm.h **** 
 101:/usr/local/lib/ARM/CMSIS/5.4.0/CMSIS/RTOS2/RTX/Source/rtx_core_cm.h **** //  ==== Core functions ====
 102:/usr/local/lib/ARM/CMSIS/5.4.0/CMSIS/RTOS2/RTX/Source/rtx_core_cm.h **** 
 103:/usr/local/lib/ARM/CMSIS/5.4.0/CMSIS/RTOS2/RTX/Source/rtx_core_cm.h **** //lint -sem(__get_CONTROL, pure)
 104:/usr/local/lib/ARM/CMSIS/5.4.0/CMSIS/RTOS2/RTX/Source/rtx_core_cm.h **** //lint -sem(__get_IPSR,    pure)
 105:/usr/local/lib/ARM/CMSIS/5.4.0/CMSIS/RTOS2/RTX/Source/rtx_core_cm.h **** //lint -sem(__get_PRIMASK, pure)
 106:/usr/local/lib/ARM/CMSIS/5.4.0/CMSIS/RTOS2/RTX/Source/rtx_core_cm.h **** //lint -sem(__get_BASEPRI, pure)
 107:/usr/local/lib/ARM/CMSIS/5.4.0/CMSIS/RTOS2/RTX/Source/rtx_core_cm.h **** 
 108:/usr/local/lib/ARM/CMSIS/5.4.0/CMSIS/RTOS2/RTX/Source/rtx_core_cm.h **** /// Check if running Privileged
 109:/usr/local/lib/ARM/CMSIS/5.4.0/CMSIS/RTOS2/RTX/Source/rtx_core_cm.h **** /// \return     true=privileged, false=unprivileged
 110:/usr/local/lib/ARM/CMSIS/5.4.0/CMSIS/RTOS2/RTX/Source/rtx_core_cm.h **** __STATIC_INLINE bool_t IsPrivileged (void) {
 111:/usr/local/lib/ARM/CMSIS/5.4.0/CMSIS/RTOS2/RTX/Source/rtx_core_cm.h ****   return ((__get_CONTROL() & 1U) == 0U);
 112:/usr/local/lib/ARM/CMSIS/5.4.0/CMSIS/RTOS2/RTX/Source/rtx_core_cm.h **** }
 113:/usr/local/lib/ARM/CMSIS/5.4.0/CMSIS/RTOS2/RTX/Source/rtx_core_cm.h **** 
 114:/usr/local/lib/ARM/CMSIS/5.4.0/CMSIS/RTOS2/RTX/Source/rtx_core_cm.h **** /// Check if in IRQ Mode
 115:/usr/local/lib/ARM/CMSIS/5.4.0/CMSIS/RTOS2/RTX/Source/rtx_core_cm.h **** /// \return     true=IRQ, false=thread
 116:/usr/local/lib/ARM/CMSIS/5.4.0/CMSIS/RTOS2/RTX/Source/rtx_core_cm.h **** __STATIC_INLINE bool_t IsIrqMode (void) {
 117:/usr/local/lib/ARM/CMSIS/5.4.0/CMSIS/RTOS2/RTX/Source/rtx_core_cm.h ****   return (__get_IPSR() != 0U);
 118:/usr/local/lib/ARM/CMSIS/5.4.0/CMSIS/RTOS2/RTX/Source/rtx_core_cm.h **** }
 119:/usr/local/lib/ARM/CMSIS/5.4.0/CMSIS/RTOS2/RTX/Source/rtx_core_cm.h **** 
 120:/usr/local/lib/ARM/CMSIS/5.4.0/CMSIS/RTOS2/RTX/Source/rtx_core_cm.h **** /// Check if IRQ is Masked
 121:/usr/local/lib/ARM/CMSIS/5.4.0/CMSIS/RTOS2/RTX/Source/rtx_core_cm.h **** /// \return     true=masked, false=not masked
 122:/usr/local/lib/ARM/CMSIS/5.4.0/CMSIS/RTOS2/RTX/Source/rtx_core_cm.h **** __STATIC_INLINE bool_t IsIrqMasked (void) {
 123:/usr/local/lib/ARM/CMSIS/5.4.0/CMSIS/RTOS2/RTX/Source/rtx_core_cm.h **** #if   ((defined(__ARM_ARCH_7M__)      && (__ARM_ARCH_7M__      != 0)) || \
 124:/usr/local/lib/ARM/CMSIS/5.4.0/CMSIS/RTOS2/RTX/Source/rtx_core_cm.h ****        (defined(__ARM_ARCH_7EM__)     && (__ARM_ARCH_7EM__     != 0)) || \
 125:/usr/local/lib/ARM/CMSIS/5.4.0/CMSIS/RTOS2/RTX/Source/rtx_core_cm.h ****        (defined(__ARM_ARCH_8M_MAIN__) && (__ARM_ARCH_8M_MAIN__ != 0)))
 126:/usr/local/lib/ARM/CMSIS/5.4.0/CMSIS/RTOS2/RTX/Source/rtx_core_cm.h ****   return ((__get_PRIMASK() != 0U) || (__get_BASEPRI() != 0U));
ARM GAS  /tmp/cc4RTizm.s 			page 5


 127:/usr/local/lib/ARM/CMSIS/5.4.0/CMSIS/RTOS2/RTX/Source/rtx_core_cm.h **** #else
 128:/usr/local/lib/ARM/CMSIS/5.4.0/CMSIS/RTOS2/RTX/Source/rtx_core_cm.h ****   return  (__get_PRIMASK() != 0U);
 129:/usr/local/lib/ARM/CMSIS/5.4.0/CMSIS/RTOS2/RTX/Source/rtx_core_cm.h **** #endif
 130:/usr/local/lib/ARM/CMSIS/5.4.0/CMSIS/RTOS2/RTX/Source/rtx_core_cm.h **** }
 131:/usr/local/lib/ARM/CMSIS/5.4.0/CMSIS/RTOS2/RTX/Source/rtx_core_cm.h **** 
 132:/usr/local/lib/ARM/CMSIS/5.4.0/CMSIS/RTOS2/RTX/Source/rtx_core_cm.h **** 
 133:/usr/local/lib/ARM/CMSIS/5.4.0/CMSIS/RTOS2/RTX/Source/rtx_core_cm.h **** //  ==== Core Peripherals functions ====
 134:/usr/local/lib/ARM/CMSIS/5.4.0/CMSIS/RTOS2/RTX/Source/rtx_core_cm.h **** 
 135:/usr/local/lib/ARM/CMSIS/5.4.0/CMSIS/RTOS2/RTX/Source/rtx_core_cm.h **** /// Setup SVC and PendSV System Service Calls
 136:/usr/local/lib/ARM/CMSIS/5.4.0/CMSIS/RTOS2/RTX/Source/rtx_core_cm.h **** __STATIC_INLINE void SVC_Setup (void) {
 137:/usr/local/lib/ARM/CMSIS/5.4.0/CMSIS/RTOS2/RTX/Source/rtx_core_cm.h **** #if   ((defined(__ARM_ARCH_8M_MAIN__) && (__ARM_ARCH_8M_MAIN__ != 0)) || \
 138:/usr/local/lib/ARM/CMSIS/5.4.0/CMSIS/RTOS2/RTX/Source/rtx_core_cm.h ****        (defined(__CORTEX_M)           && (__CORTEX_M == 7U)))
 139:/usr/local/lib/ARM/CMSIS/5.4.0/CMSIS/RTOS2/RTX/Source/rtx_core_cm.h ****   uint32_t p, n;
 140:/usr/local/lib/ARM/CMSIS/5.4.0/CMSIS/RTOS2/RTX/Source/rtx_core_cm.h **** 
 141:/usr/local/lib/ARM/CMSIS/5.4.0/CMSIS/RTOS2/RTX/Source/rtx_core_cm.h ****   SCB->SHPR[10] = 0xFFU;
 142:/usr/local/lib/ARM/CMSIS/5.4.0/CMSIS/RTOS2/RTX/Source/rtx_core_cm.h ****   n = 32U - (uint32_t)__CLZ(~(SCB->SHPR[10] | 0xFFFFFF00U));
 143:/usr/local/lib/ARM/CMSIS/5.4.0/CMSIS/RTOS2/RTX/Source/rtx_core_cm.h ****   p = NVIC_GetPriorityGrouping();
 144:/usr/local/lib/ARM/CMSIS/5.4.0/CMSIS/RTOS2/RTX/Source/rtx_core_cm.h ****   if (p >= n) {
 145:/usr/local/lib/ARM/CMSIS/5.4.0/CMSIS/RTOS2/RTX/Source/rtx_core_cm.h ****     n = p + 1U;
 146:/usr/local/lib/ARM/CMSIS/5.4.0/CMSIS/RTOS2/RTX/Source/rtx_core_cm.h ****   }
 147:/usr/local/lib/ARM/CMSIS/5.4.0/CMSIS/RTOS2/RTX/Source/rtx_core_cm.h ****   SCB->SHPR[7] = (uint8_t)(0xFEU << n);
 148:/usr/local/lib/ARM/CMSIS/5.4.0/CMSIS/RTOS2/RTX/Source/rtx_core_cm.h **** #elif  (defined(__ARM_ARCH_8M_BASE__) && (__ARM_ARCH_8M_BASE__ != 0))
 149:/usr/local/lib/ARM/CMSIS/5.4.0/CMSIS/RTOS2/RTX/Source/rtx_core_cm.h ****   uint32_t n;
 150:/usr/local/lib/ARM/CMSIS/5.4.0/CMSIS/RTOS2/RTX/Source/rtx_core_cm.h **** 
 151:/usr/local/lib/ARM/CMSIS/5.4.0/CMSIS/RTOS2/RTX/Source/rtx_core_cm.h ****   SCB->SHPR[1] |= 0x00FF0000U;
 152:/usr/local/lib/ARM/CMSIS/5.4.0/CMSIS/RTOS2/RTX/Source/rtx_core_cm.h ****   n = SCB->SHPR[1];
 153:/usr/local/lib/ARM/CMSIS/5.4.0/CMSIS/RTOS2/RTX/Source/rtx_core_cm.h ****   SCB->SHPR[0] |= (n << (8+1)) & 0xFC000000U;
 154:/usr/local/lib/ARM/CMSIS/5.4.0/CMSIS/RTOS2/RTX/Source/rtx_core_cm.h **** #elif ((defined(__ARM_ARCH_7M__)      && (__ARM_ARCH_7M__      != 0)) || \
 155:/usr/local/lib/ARM/CMSIS/5.4.0/CMSIS/RTOS2/RTX/Source/rtx_core_cm.h ****        (defined(__ARM_ARCH_7EM__)     && (__ARM_ARCH_7EM__     != 0)))
 156:/usr/local/lib/ARM/CMSIS/5.4.0/CMSIS/RTOS2/RTX/Source/rtx_core_cm.h ****   uint32_t p, n;
 157:/usr/local/lib/ARM/CMSIS/5.4.0/CMSIS/RTOS2/RTX/Source/rtx_core_cm.h **** 
 158:/usr/local/lib/ARM/CMSIS/5.4.0/CMSIS/RTOS2/RTX/Source/rtx_core_cm.h ****   SCB->SHP[10] = 0xFFU;
 159:/usr/local/lib/ARM/CMSIS/5.4.0/CMSIS/RTOS2/RTX/Source/rtx_core_cm.h ****   n = 32U - (uint32_t)__CLZ(~(SCB->SHP[10] | 0xFFFFFF00U));
 160:/usr/local/lib/ARM/CMSIS/5.4.0/CMSIS/RTOS2/RTX/Source/rtx_core_cm.h ****   p = NVIC_GetPriorityGrouping();
 161:/usr/local/lib/ARM/CMSIS/5.4.0/CMSIS/RTOS2/RTX/Source/rtx_core_cm.h ****   if (p >= n) {
 162:/usr/local/lib/ARM/CMSIS/5.4.0/CMSIS/RTOS2/RTX/Source/rtx_core_cm.h ****     n = p + 1U;
 163:/usr/local/lib/ARM/CMSIS/5.4.0/CMSIS/RTOS2/RTX/Source/rtx_core_cm.h ****   }
 164:/usr/local/lib/ARM/CMSIS/5.4.0/CMSIS/RTOS2/RTX/Source/rtx_core_cm.h ****   SCB->SHP[7] = (uint8_t)(0xFEU << n);
 165:/usr/local/lib/ARM/CMSIS/5.4.0/CMSIS/RTOS2/RTX/Source/rtx_core_cm.h **** #elif  (defined(__ARM_ARCH_6M__)      && (__ARM_ARCH_6M__      != 0))
 166:/usr/local/lib/ARM/CMSIS/5.4.0/CMSIS/RTOS2/RTX/Source/rtx_core_cm.h ****   uint32_t n;
 167:/usr/local/lib/ARM/CMSIS/5.4.0/CMSIS/RTOS2/RTX/Source/rtx_core_cm.h **** 
 168:/usr/local/lib/ARM/CMSIS/5.4.0/CMSIS/RTOS2/RTX/Source/rtx_core_cm.h ****   SCB->SHP[1] |= 0x00FF0000U;
 169:/usr/local/lib/ARM/CMSIS/5.4.0/CMSIS/RTOS2/RTX/Source/rtx_core_cm.h ****   n = SCB->SHP[1];
 170:/usr/local/lib/ARM/CMSIS/5.4.0/CMSIS/RTOS2/RTX/Source/rtx_core_cm.h ****   SCB->SHP[0] |= (n << (8+1)) & 0xFC000000U;
 171:/usr/local/lib/ARM/CMSIS/5.4.0/CMSIS/RTOS2/RTX/Source/rtx_core_cm.h **** #endif
 172:/usr/local/lib/ARM/CMSIS/5.4.0/CMSIS/RTOS2/RTX/Source/rtx_core_cm.h **** }
 173:/usr/local/lib/ARM/CMSIS/5.4.0/CMSIS/RTOS2/RTX/Source/rtx_core_cm.h **** 
 174:/usr/local/lib/ARM/CMSIS/5.4.0/CMSIS/RTOS2/RTX/Source/rtx_core_cm.h **** /// Get Pending SV (Service Call) Flag
 175:/usr/local/lib/ARM/CMSIS/5.4.0/CMSIS/RTOS2/RTX/Source/rtx_core_cm.h **** /// \return     Pending SV Flag
 176:/usr/local/lib/ARM/CMSIS/5.4.0/CMSIS/RTOS2/RTX/Source/rtx_core_cm.h **** __STATIC_INLINE uint8_t GetPendSV (void) {
 177:/usr/local/lib/ARM/CMSIS/5.4.0/CMSIS/RTOS2/RTX/Source/rtx_core_cm.h ****   return ((uint8_t)((SCB->ICSR & (SCB_ICSR_PENDSVSET_Msk)) >> 24));
 178:/usr/local/lib/ARM/CMSIS/5.4.0/CMSIS/RTOS2/RTX/Source/rtx_core_cm.h **** }
 179:/usr/local/lib/ARM/CMSIS/5.4.0/CMSIS/RTOS2/RTX/Source/rtx_core_cm.h **** 
 180:/usr/local/lib/ARM/CMSIS/5.4.0/CMSIS/RTOS2/RTX/Source/rtx_core_cm.h **** /// Clear Pending SV (Service Call) Flag
 181:/usr/local/lib/ARM/CMSIS/5.4.0/CMSIS/RTOS2/RTX/Source/rtx_core_cm.h **** __STATIC_INLINE void ClrPendSV (void) {
 182:/usr/local/lib/ARM/CMSIS/5.4.0/CMSIS/RTOS2/RTX/Source/rtx_core_cm.h ****   SCB->ICSR = SCB_ICSR_PENDSVCLR_Msk;
 183:/usr/local/lib/ARM/CMSIS/5.4.0/CMSIS/RTOS2/RTX/Source/rtx_core_cm.h **** }
ARM GAS  /tmp/cc4RTizm.s 			page 6


 184:/usr/local/lib/ARM/CMSIS/5.4.0/CMSIS/RTOS2/RTX/Source/rtx_core_cm.h **** 
 185:/usr/local/lib/ARM/CMSIS/5.4.0/CMSIS/RTOS2/RTX/Source/rtx_core_cm.h **** /// Set Pending SV (Service Call) Flag
 186:/usr/local/lib/ARM/CMSIS/5.4.0/CMSIS/RTOS2/RTX/Source/rtx_core_cm.h **** __STATIC_INLINE void SetPendSV (void) {
 187:/usr/local/lib/ARM/CMSIS/5.4.0/CMSIS/RTOS2/RTX/Source/rtx_core_cm.h ****   SCB->ICSR = SCB_ICSR_PENDSVSET_Msk;
 188:/usr/local/lib/ARM/CMSIS/5.4.0/CMSIS/RTOS2/RTX/Source/rtx_core_cm.h **** }
 189:/usr/local/lib/ARM/CMSIS/5.4.0/CMSIS/RTOS2/RTX/Source/rtx_core_cm.h **** 
 190:/usr/local/lib/ARM/CMSIS/5.4.0/CMSIS/RTOS2/RTX/Source/rtx_core_cm.h **** 
 191:/usr/local/lib/ARM/CMSIS/5.4.0/CMSIS/RTOS2/RTX/Source/rtx_core_cm.h **** //  ==== Service Calls definitions ====
 192:/usr/local/lib/ARM/CMSIS/5.4.0/CMSIS/RTOS2/RTX/Source/rtx_core_cm.h **** 
 193:/usr/local/lib/ARM/CMSIS/5.4.0/CMSIS/RTOS2/RTX/Source/rtx_core_cm.h **** //lint -save -e9023 -e9024 -e9026 "Function-like macros using '#/##'" [MISRA Note 10]
 194:/usr/local/lib/ARM/CMSIS/5.4.0/CMSIS/RTOS2/RTX/Source/rtx_core_cm.h **** 
 195:/usr/local/lib/ARM/CMSIS/5.4.0/CMSIS/RTOS2/RTX/Source/rtx_core_cm.h **** #if defined(__CC_ARM)
 196:/usr/local/lib/ARM/CMSIS/5.4.0/CMSIS/RTOS2/RTX/Source/rtx_core_cm.h **** 
 197:/usr/local/lib/ARM/CMSIS/5.4.0/CMSIS/RTOS2/RTX/Source/rtx_core_cm.h **** #if   ((defined(__ARM_ARCH_7M__)      && (__ARM_ARCH_7M__      != 0)) ||       \
 198:/usr/local/lib/ARM/CMSIS/5.4.0/CMSIS/RTOS2/RTX/Source/rtx_core_cm.h ****        (defined(__ARM_ARCH_7EM__)     && (__ARM_ARCH_7EM__     != 0)) ||       \
 199:/usr/local/lib/ARM/CMSIS/5.4.0/CMSIS/RTOS2/RTX/Source/rtx_core_cm.h ****        (defined(__ARM_ARCH_8M_MAIN__) && (__ARM_ARCH_8M_MAIN__ != 0)))
 200:/usr/local/lib/ARM/CMSIS/5.4.0/CMSIS/RTOS2/RTX/Source/rtx_core_cm.h **** #define __SVC_INDIRECT(n) __svc_indirect(n)
 201:/usr/local/lib/ARM/CMSIS/5.4.0/CMSIS/RTOS2/RTX/Source/rtx_core_cm.h **** #elif ((defined(__ARM_ARCH_6M__)      && (__ARM_ARCH_6M__      != 0)) ||       \
 202:/usr/local/lib/ARM/CMSIS/5.4.0/CMSIS/RTOS2/RTX/Source/rtx_core_cm.h ****        (defined(__ARM_ARCH_8M_BASE__) && (__ARM_ARCH_8M_BASE__ != 0)))
 203:/usr/local/lib/ARM/CMSIS/5.4.0/CMSIS/RTOS2/RTX/Source/rtx_core_cm.h **** #define __SVC_INDIRECT(n) __svc_indirect_r7(n)
 204:/usr/local/lib/ARM/CMSIS/5.4.0/CMSIS/RTOS2/RTX/Source/rtx_core_cm.h **** #endif
 205:/usr/local/lib/ARM/CMSIS/5.4.0/CMSIS/RTOS2/RTX/Source/rtx_core_cm.h **** 
 206:/usr/local/lib/ARM/CMSIS/5.4.0/CMSIS/RTOS2/RTX/Source/rtx_core_cm.h **** #define SVC0_0N(f,t)                                                           \
 207:/usr/local/lib/ARM/CMSIS/5.4.0/CMSIS/RTOS2/RTX/Source/rtx_core_cm.h **** __SVC_INDIRECT(0) t    svc##f (t(*)());                                        \
 208:/usr/local/lib/ARM/CMSIS/5.4.0/CMSIS/RTOS2/RTX/Source/rtx_core_cm.h **** __attribute__((always_inline))                                                 \
 209:/usr/local/lib/ARM/CMSIS/5.4.0/CMSIS/RTOS2/RTX/Source/rtx_core_cm.h **** __STATIC_INLINE   t  __svc##f (void) {                                         \
 210:/usr/local/lib/ARM/CMSIS/5.4.0/CMSIS/RTOS2/RTX/Source/rtx_core_cm.h ****   svc##f(svcRtx##f);                                                           \
 211:/usr/local/lib/ARM/CMSIS/5.4.0/CMSIS/RTOS2/RTX/Source/rtx_core_cm.h **** }
 212:/usr/local/lib/ARM/CMSIS/5.4.0/CMSIS/RTOS2/RTX/Source/rtx_core_cm.h **** 
 213:/usr/local/lib/ARM/CMSIS/5.4.0/CMSIS/RTOS2/RTX/Source/rtx_core_cm.h **** #define SVC0_0(f,t)                                                            \
 214:/usr/local/lib/ARM/CMSIS/5.4.0/CMSIS/RTOS2/RTX/Source/rtx_core_cm.h **** __SVC_INDIRECT(0) t    svc##f (t(*)());                                        \
 215:/usr/local/lib/ARM/CMSIS/5.4.0/CMSIS/RTOS2/RTX/Source/rtx_core_cm.h **** __attribute__((always_inline))                                                 \
 216:/usr/local/lib/ARM/CMSIS/5.4.0/CMSIS/RTOS2/RTX/Source/rtx_core_cm.h **** __STATIC_INLINE   t  __svc##f (void) {                                         \
 217:/usr/local/lib/ARM/CMSIS/5.4.0/CMSIS/RTOS2/RTX/Source/rtx_core_cm.h ****   return svc##f(svcRtx##f);                                                    \
 218:/usr/local/lib/ARM/CMSIS/5.4.0/CMSIS/RTOS2/RTX/Source/rtx_core_cm.h **** }
 219:/usr/local/lib/ARM/CMSIS/5.4.0/CMSIS/RTOS2/RTX/Source/rtx_core_cm.h **** 
 220:/usr/local/lib/ARM/CMSIS/5.4.0/CMSIS/RTOS2/RTX/Source/rtx_core_cm.h **** #define SVC0_1N(f,t,t1)                                                        \
 221:/usr/local/lib/ARM/CMSIS/5.4.0/CMSIS/RTOS2/RTX/Source/rtx_core_cm.h **** __SVC_INDIRECT(0) t    svc##f (t(*)(t1),t1);                                   \
 222:/usr/local/lib/ARM/CMSIS/5.4.0/CMSIS/RTOS2/RTX/Source/rtx_core_cm.h **** __attribute__((always_inline))                                                 \
 223:/usr/local/lib/ARM/CMSIS/5.4.0/CMSIS/RTOS2/RTX/Source/rtx_core_cm.h **** __STATIC_INLINE   t  __svc##f (t1 a1) {                                        \
 224:/usr/local/lib/ARM/CMSIS/5.4.0/CMSIS/RTOS2/RTX/Source/rtx_core_cm.h ****   svc##f(svcRtx##f,a1);                                                        \
 225:/usr/local/lib/ARM/CMSIS/5.4.0/CMSIS/RTOS2/RTX/Source/rtx_core_cm.h **** }
 226:/usr/local/lib/ARM/CMSIS/5.4.0/CMSIS/RTOS2/RTX/Source/rtx_core_cm.h **** 
 227:/usr/local/lib/ARM/CMSIS/5.4.0/CMSIS/RTOS2/RTX/Source/rtx_core_cm.h **** #define SVC0_1(f,t,t1)                                                         \
 228:/usr/local/lib/ARM/CMSIS/5.4.0/CMSIS/RTOS2/RTX/Source/rtx_core_cm.h **** __SVC_INDIRECT(0) t    svc##f (t(*)(t1),t1);                                   \
 229:/usr/local/lib/ARM/CMSIS/5.4.0/CMSIS/RTOS2/RTX/Source/rtx_core_cm.h **** __attribute__((always_inline))                                                 \
 230:/usr/local/lib/ARM/CMSIS/5.4.0/CMSIS/RTOS2/RTX/Source/rtx_core_cm.h **** __STATIC_INLINE   t  __svc##f (t1 a1) {                                        \
 231:/usr/local/lib/ARM/CMSIS/5.4.0/CMSIS/RTOS2/RTX/Source/rtx_core_cm.h ****   return svc##f(svcRtx##f,a1);                                                 \
 232:/usr/local/lib/ARM/CMSIS/5.4.0/CMSIS/RTOS2/RTX/Source/rtx_core_cm.h **** }
 233:/usr/local/lib/ARM/CMSIS/5.4.0/CMSIS/RTOS2/RTX/Source/rtx_core_cm.h **** 
 234:/usr/local/lib/ARM/CMSIS/5.4.0/CMSIS/RTOS2/RTX/Source/rtx_core_cm.h **** #define SVC0_2(f,t,t1,t2)                                                      \
 235:/usr/local/lib/ARM/CMSIS/5.4.0/CMSIS/RTOS2/RTX/Source/rtx_core_cm.h **** __SVC_INDIRECT(0) t    svc##f (t(*)(t1,t2),t1,t2);                             \
 236:/usr/local/lib/ARM/CMSIS/5.4.0/CMSIS/RTOS2/RTX/Source/rtx_core_cm.h **** __attribute__((always_inline))                                                 \
 237:/usr/local/lib/ARM/CMSIS/5.4.0/CMSIS/RTOS2/RTX/Source/rtx_core_cm.h **** __STATIC_INLINE   t  __svc##f (t1 a1, t2 a2) {                                 \
 238:/usr/local/lib/ARM/CMSIS/5.4.0/CMSIS/RTOS2/RTX/Source/rtx_core_cm.h ****   return svc##f(svcRtx##f,a1,a2);                                              \
 239:/usr/local/lib/ARM/CMSIS/5.4.0/CMSIS/RTOS2/RTX/Source/rtx_core_cm.h **** }
 240:/usr/local/lib/ARM/CMSIS/5.4.0/CMSIS/RTOS2/RTX/Source/rtx_core_cm.h **** 
ARM GAS  /tmp/cc4RTizm.s 			page 7


 241:/usr/local/lib/ARM/CMSIS/5.4.0/CMSIS/RTOS2/RTX/Source/rtx_core_cm.h **** #define SVC0_3(f,t,t1,t2,t3)                                                   \
 242:/usr/local/lib/ARM/CMSIS/5.4.0/CMSIS/RTOS2/RTX/Source/rtx_core_cm.h **** __SVC_INDIRECT(0) t    svc##f (t(*)(t1,t2,t3),t1,t2,t3);                       \
 243:/usr/local/lib/ARM/CMSIS/5.4.0/CMSIS/RTOS2/RTX/Source/rtx_core_cm.h **** __attribute__((always_inline))                                                 \
 244:/usr/local/lib/ARM/CMSIS/5.4.0/CMSIS/RTOS2/RTX/Source/rtx_core_cm.h **** __STATIC_INLINE   t  __svc##f (t1 a1, t2 a2, t3 a3) {                          \
 245:/usr/local/lib/ARM/CMSIS/5.4.0/CMSIS/RTOS2/RTX/Source/rtx_core_cm.h ****   return svc##f(svcRtx##f,a1,a2,a3);                                           \
 246:/usr/local/lib/ARM/CMSIS/5.4.0/CMSIS/RTOS2/RTX/Source/rtx_core_cm.h **** }
 247:/usr/local/lib/ARM/CMSIS/5.4.0/CMSIS/RTOS2/RTX/Source/rtx_core_cm.h **** 
 248:/usr/local/lib/ARM/CMSIS/5.4.0/CMSIS/RTOS2/RTX/Source/rtx_core_cm.h **** #define SVC0_4(f,t,t1,t2,t3,t4)                                                \
 249:/usr/local/lib/ARM/CMSIS/5.4.0/CMSIS/RTOS2/RTX/Source/rtx_core_cm.h **** __SVC_INDIRECT(0) t    svc##f (t(*)(t1,t2,t3,t4),t1,t2,t3,t4);                 \
 250:/usr/local/lib/ARM/CMSIS/5.4.0/CMSIS/RTOS2/RTX/Source/rtx_core_cm.h **** __attribute__((always_inline))                                                 \
 251:/usr/local/lib/ARM/CMSIS/5.4.0/CMSIS/RTOS2/RTX/Source/rtx_core_cm.h **** __STATIC_INLINE   t  __svc##f (t1 a1, t2 a2, t3 a3, t4 a4) {                   \
 252:/usr/local/lib/ARM/CMSIS/5.4.0/CMSIS/RTOS2/RTX/Source/rtx_core_cm.h ****   return svc##f(svcRtx##f,a1,a2,a3,a4);                                        \
 253:/usr/local/lib/ARM/CMSIS/5.4.0/CMSIS/RTOS2/RTX/Source/rtx_core_cm.h **** }
 254:/usr/local/lib/ARM/CMSIS/5.4.0/CMSIS/RTOS2/RTX/Source/rtx_core_cm.h **** 
 255:/usr/local/lib/ARM/CMSIS/5.4.0/CMSIS/RTOS2/RTX/Source/rtx_core_cm.h **** #elif defined(__ICCARM__)
 256:/usr/local/lib/ARM/CMSIS/5.4.0/CMSIS/RTOS2/RTX/Source/rtx_core_cm.h **** 
 257:/usr/local/lib/ARM/CMSIS/5.4.0/CMSIS/RTOS2/RTX/Source/rtx_core_cm.h **** #if   ((defined(__ARM_ARCH_7M__)      && (__ARM_ARCH_7M__      != 0)) ||       \
 258:/usr/local/lib/ARM/CMSIS/5.4.0/CMSIS/RTOS2/RTX/Source/rtx_core_cm.h ****        (defined(__ARM_ARCH_7EM__)     && (__ARM_ARCH_7EM__     != 0)) ||       \
 259:/usr/local/lib/ARM/CMSIS/5.4.0/CMSIS/RTOS2/RTX/Source/rtx_core_cm.h ****        (defined(__ARM_ARCH_8M_MAIN__) && (__ARM_ARCH_8M_MAIN__ != 0)))
 260:/usr/local/lib/ARM/CMSIS/5.4.0/CMSIS/RTOS2/RTX/Source/rtx_core_cm.h **** #define SVC_ArgF(f)                                                            \
 261:/usr/local/lib/ARM/CMSIS/5.4.0/CMSIS/RTOS2/RTX/Source/rtx_core_cm.h ****   __asm(                                                                       \
 262:/usr/local/lib/ARM/CMSIS/5.4.0/CMSIS/RTOS2/RTX/Source/rtx_core_cm.h ****     "mov r12,%0\n"                                                             \
 263:/usr/local/lib/ARM/CMSIS/5.4.0/CMSIS/RTOS2/RTX/Source/rtx_core_cm.h ****     :: "r"(&f): "r12"                                                          \
 264:/usr/local/lib/ARM/CMSIS/5.4.0/CMSIS/RTOS2/RTX/Source/rtx_core_cm.h ****   );
 265:/usr/local/lib/ARM/CMSIS/5.4.0/CMSIS/RTOS2/RTX/Source/rtx_core_cm.h **** #elif ((defined(__ARM_ARCH_6M__)      && (__ARM_ARCH_6M__      != 0)) ||       \
 266:/usr/local/lib/ARM/CMSIS/5.4.0/CMSIS/RTOS2/RTX/Source/rtx_core_cm.h ****        (defined(__ARM_ARCH_8M_BASE__) && (__ARM_ARCH_8M_BASE__ != 0)))
 267:/usr/local/lib/ARM/CMSIS/5.4.0/CMSIS/RTOS2/RTX/Source/rtx_core_cm.h **** #define SVC_ArgF(f)                                                            \
 268:/usr/local/lib/ARM/CMSIS/5.4.0/CMSIS/RTOS2/RTX/Source/rtx_core_cm.h ****   __asm(                                                                       \
 269:/usr/local/lib/ARM/CMSIS/5.4.0/CMSIS/RTOS2/RTX/Source/rtx_core_cm.h ****     "mov r7,%0\n"                                                              \
 270:/usr/local/lib/ARM/CMSIS/5.4.0/CMSIS/RTOS2/RTX/Source/rtx_core_cm.h ****     :: "r"(&f): "r7"                                                           \
 271:/usr/local/lib/ARM/CMSIS/5.4.0/CMSIS/RTOS2/RTX/Source/rtx_core_cm.h ****   );
 272:/usr/local/lib/ARM/CMSIS/5.4.0/CMSIS/RTOS2/RTX/Source/rtx_core_cm.h **** #endif
 273:/usr/local/lib/ARM/CMSIS/5.4.0/CMSIS/RTOS2/RTX/Source/rtx_core_cm.h **** 
 274:/usr/local/lib/ARM/CMSIS/5.4.0/CMSIS/RTOS2/RTX/Source/rtx_core_cm.h **** #define STRINGIFY(a) #a
 275:/usr/local/lib/ARM/CMSIS/5.4.0/CMSIS/RTOS2/RTX/Source/rtx_core_cm.h **** #define __SVC_INDIRECT(n) _Pragma(STRINGIFY(swi_number = n)) __swi
 276:/usr/local/lib/ARM/CMSIS/5.4.0/CMSIS/RTOS2/RTX/Source/rtx_core_cm.h **** 
 277:/usr/local/lib/ARM/CMSIS/5.4.0/CMSIS/RTOS2/RTX/Source/rtx_core_cm.h **** #define SVC0_0N(f,t)                                                           \
 278:/usr/local/lib/ARM/CMSIS/5.4.0/CMSIS/RTOS2/RTX/Source/rtx_core_cm.h **** __SVC_INDIRECT(0) t    svc##f ();                                              \
 279:/usr/local/lib/ARM/CMSIS/5.4.0/CMSIS/RTOS2/RTX/Source/rtx_core_cm.h **** __attribute__((always_inline))                                                 \
 280:/usr/local/lib/ARM/CMSIS/5.4.0/CMSIS/RTOS2/RTX/Source/rtx_core_cm.h **** __STATIC_INLINE   t  __svc##f (void) {                                         \
 281:/usr/local/lib/ARM/CMSIS/5.4.0/CMSIS/RTOS2/RTX/Source/rtx_core_cm.h ****   SVC_ArgF(svcRtx##f);                                                         \
 282:/usr/local/lib/ARM/CMSIS/5.4.0/CMSIS/RTOS2/RTX/Source/rtx_core_cm.h ****   svc##f();                                                                    \
 283:/usr/local/lib/ARM/CMSIS/5.4.0/CMSIS/RTOS2/RTX/Source/rtx_core_cm.h **** }
 284:/usr/local/lib/ARM/CMSIS/5.4.0/CMSIS/RTOS2/RTX/Source/rtx_core_cm.h **** 
 285:/usr/local/lib/ARM/CMSIS/5.4.0/CMSIS/RTOS2/RTX/Source/rtx_core_cm.h **** #define SVC0_0(f,t)                                                            \
 286:/usr/local/lib/ARM/CMSIS/5.4.0/CMSIS/RTOS2/RTX/Source/rtx_core_cm.h **** __SVC_INDIRECT(0) t    svc##f ();                                              \
 287:/usr/local/lib/ARM/CMSIS/5.4.0/CMSIS/RTOS2/RTX/Source/rtx_core_cm.h **** __attribute__((always_inline))                                                 \
 288:/usr/local/lib/ARM/CMSIS/5.4.0/CMSIS/RTOS2/RTX/Source/rtx_core_cm.h **** __STATIC_INLINE   t  __svc##f (void) {                                         \
 289:/usr/local/lib/ARM/CMSIS/5.4.0/CMSIS/RTOS2/RTX/Source/rtx_core_cm.h ****   SVC_ArgF(svcRtx##f);                                                         \
 290:/usr/local/lib/ARM/CMSIS/5.4.0/CMSIS/RTOS2/RTX/Source/rtx_core_cm.h ****   return svc##f();                                                             \
 291:/usr/local/lib/ARM/CMSIS/5.4.0/CMSIS/RTOS2/RTX/Source/rtx_core_cm.h **** }
 292:/usr/local/lib/ARM/CMSIS/5.4.0/CMSIS/RTOS2/RTX/Source/rtx_core_cm.h **** 
 293:/usr/local/lib/ARM/CMSIS/5.4.0/CMSIS/RTOS2/RTX/Source/rtx_core_cm.h **** #define SVC0_1N(f,t,t1)                                                        \
 294:/usr/local/lib/ARM/CMSIS/5.4.0/CMSIS/RTOS2/RTX/Source/rtx_core_cm.h **** __SVC_INDIRECT(0) t    svc##f (t1 a1);                                         \
 295:/usr/local/lib/ARM/CMSIS/5.4.0/CMSIS/RTOS2/RTX/Source/rtx_core_cm.h **** __attribute__((always_inline))                                                 \
 296:/usr/local/lib/ARM/CMSIS/5.4.0/CMSIS/RTOS2/RTX/Source/rtx_core_cm.h **** __STATIC_INLINE   t  __svc##f (t1 a1) {                                        \
 297:/usr/local/lib/ARM/CMSIS/5.4.0/CMSIS/RTOS2/RTX/Source/rtx_core_cm.h ****   SVC_ArgF(svcRtx##f);                                                         \
ARM GAS  /tmp/cc4RTizm.s 			page 8


 298:/usr/local/lib/ARM/CMSIS/5.4.0/CMSIS/RTOS2/RTX/Source/rtx_core_cm.h ****   svc##f(a1);                                                                  \
 299:/usr/local/lib/ARM/CMSIS/5.4.0/CMSIS/RTOS2/RTX/Source/rtx_core_cm.h **** }
 300:/usr/local/lib/ARM/CMSIS/5.4.0/CMSIS/RTOS2/RTX/Source/rtx_core_cm.h **** 
 301:/usr/local/lib/ARM/CMSIS/5.4.0/CMSIS/RTOS2/RTX/Source/rtx_core_cm.h **** #define SVC0_1(f,t,t1)                                                         \
 302:/usr/local/lib/ARM/CMSIS/5.4.0/CMSIS/RTOS2/RTX/Source/rtx_core_cm.h **** __SVC_INDIRECT(0) t    svc##f (t1 a1);                                         \
 303:/usr/local/lib/ARM/CMSIS/5.4.0/CMSIS/RTOS2/RTX/Source/rtx_core_cm.h **** __attribute__((always_inline))                                                 \
 304:/usr/local/lib/ARM/CMSIS/5.4.0/CMSIS/RTOS2/RTX/Source/rtx_core_cm.h **** __STATIC_INLINE   t  __svc##f (t1 a1) {                                        \
 305:/usr/local/lib/ARM/CMSIS/5.4.0/CMSIS/RTOS2/RTX/Source/rtx_core_cm.h ****   SVC_ArgF(svcRtx##f);                                                         \
 306:/usr/local/lib/ARM/CMSIS/5.4.0/CMSIS/RTOS2/RTX/Source/rtx_core_cm.h ****   return svc##f(a1);                                                           \
 307:/usr/local/lib/ARM/CMSIS/5.4.0/CMSIS/RTOS2/RTX/Source/rtx_core_cm.h **** }
 308:/usr/local/lib/ARM/CMSIS/5.4.0/CMSIS/RTOS2/RTX/Source/rtx_core_cm.h **** 
 309:/usr/local/lib/ARM/CMSIS/5.4.0/CMSIS/RTOS2/RTX/Source/rtx_core_cm.h **** #define SVC0_2(f,t,t1,t2)                                                      \
 310:/usr/local/lib/ARM/CMSIS/5.4.0/CMSIS/RTOS2/RTX/Source/rtx_core_cm.h **** __SVC_INDIRECT(0) t    svc##f (t1 a1, t2 a2);                                  \
 311:/usr/local/lib/ARM/CMSIS/5.4.0/CMSIS/RTOS2/RTX/Source/rtx_core_cm.h **** __attribute__((always_inline))                                                 \
 312:/usr/local/lib/ARM/CMSIS/5.4.0/CMSIS/RTOS2/RTX/Source/rtx_core_cm.h **** __STATIC_INLINE   t  __svc##f (t1 a1, t2 a2) {                                 \
 313:/usr/local/lib/ARM/CMSIS/5.4.0/CMSIS/RTOS2/RTX/Source/rtx_core_cm.h ****   SVC_ArgF(svcRtx##f);                                                         \
 314:/usr/local/lib/ARM/CMSIS/5.4.0/CMSIS/RTOS2/RTX/Source/rtx_core_cm.h ****   return svc##f(a1,a2);                                                        \
 315:/usr/local/lib/ARM/CMSIS/5.4.0/CMSIS/RTOS2/RTX/Source/rtx_core_cm.h **** }
 316:/usr/local/lib/ARM/CMSIS/5.4.0/CMSIS/RTOS2/RTX/Source/rtx_core_cm.h **** 
 317:/usr/local/lib/ARM/CMSIS/5.4.0/CMSIS/RTOS2/RTX/Source/rtx_core_cm.h **** #define SVC0_3(f,t,t1,t2,t3)                                                   \
 318:/usr/local/lib/ARM/CMSIS/5.4.0/CMSIS/RTOS2/RTX/Source/rtx_core_cm.h **** __SVC_INDIRECT(0) t    svc##f (t1 a1, t2 a2, t3 a3);                           \
 319:/usr/local/lib/ARM/CMSIS/5.4.0/CMSIS/RTOS2/RTX/Source/rtx_core_cm.h **** __attribute__((always_inline))                                                 \
 320:/usr/local/lib/ARM/CMSIS/5.4.0/CMSIS/RTOS2/RTX/Source/rtx_core_cm.h **** __STATIC_INLINE   t  __svc##f (t1 a1, t2 a2, t3 a3) {                          \
 321:/usr/local/lib/ARM/CMSIS/5.4.0/CMSIS/RTOS2/RTX/Source/rtx_core_cm.h ****   SVC_ArgF(svcRtx##f);                                                         \
 322:/usr/local/lib/ARM/CMSIS/5.4.0/CMSIS/RTOS2/RTX/Source/rtx_core_cm.h ****   return svc##f(a1,a2,a3);                                                     \
 323:/usr/local/lib/ARM/CMSIS/5.4.0/CMSIS/RTOS2/RTX/Source/rtx_core_cm.h **** }
 324:/usr/local/lib/ARM/CMSIS/5.4.0/CMSIS/RTOS2/RTX/Source/rtx_core_cm.h **** 
 325:/usr/local/lib/ARM/CMSIS/5.4.0/CMSIS/RTOS2/RTX/Source/rtx_core_cm.h **** #define SVC0_4(f,t,t1,t2,t3,t4)                                                \
 326:/usr/local/lib/ARM/CMSIS/5.4.0/CMSIS/RTOS2/RTX/Source/rtx_core_cm.h **** __SVC_INDIRECT(0) t    svc##f (t1 a1, t2 a2, t3 a3, t4 a4);                    \
 327:/usr/local/lib/ARM/CMSIS/5.4.0/CMSIS/RTOS2/RTX/Source/rtx_core_cm.h **** __attribute__((always_inline))                                                 \
 328:/usr/local/lib/ARM/CMSIS/5.4.0/CMSIS/RTOS2/RTX/Source/rtx_core_cm.h **** __STATIC_INLINE   t  __svc##f (t1 a1, t2 a2, t3 a3, t4 a4) {                   \
 329:/usr/local/lib/ARM/CMSIS/5.4.0/CMSIS/RTOS2/RTX/Source/rtx_core_cm.h ****   SVC_ArgF(svcRtx##f);                                                         \
 330:/usr/local/lib/ARM/CMSIS/5.4.0/CMSIS/RTOS2/RTX/Source/rtx_core_cm.h ****   return svc##f(a1,a2,a3,a4);                                                  \
 331:/usr/local/lib/ARM/CMSIS/5.4.0/CMSIS/RTOS2/RTX/Source/rtx_core_cm.h **** }
 332:/usr/local/lib/ARM/CMSIS/5.4.0/CMSIS/RTOS2/RTX/Source/rtx_core_cm.h **** 
 333:/usr/local/lib/ARM/CMSIS/5.4.0/CMSIS/RTOS2/RTX/Source/rtx_core_cm.h **** #else   // !(defined(__CC_ARM) || defined(__ICCARM__))
 334:/usr/local/lib/ARM/CMSIS/5.4.0/CMSIS/RTOS2/RTX/Source/rtx_core_cm.h **** 
 335:/usr/local/lib/ARM/CMSIS/5.4.0/CMSIS/RTOS2/RTX/Source/rtx_core_cm.h **** //lint -esym(522,__svc*) "Functions '__svc*' are impure (side-effects)"
 336:/usr/local/lib/ARM/CMSIS/5.4.0/CMSIS/RTOS2/RTX/Source/rtx_core_cm.h **** 
 337:/usr/local/lib/ARM/CMSIS/5.4.0/CMSIS/RTOS2/RTX/Source/rtx_core_cm.h **** #if   ((defined(__ARM_ARCH_7M__)      && (__ARM_ARCH_7M__      != 0)) ||       \
 338:/usr/local/lib/ARM/CMSIS/5.4.0/CMSIS/RTOS2/RTX/Source/rtx_core_cm.h ****        (defined(__ARM_ARCH_7EM__)     && (__ARM_ARCH_7EM__     != 0)) ||       \
 339:/usr/local/lib/ARM/CMSIS/5.4.0/CMSIS/RTOS2/RTX/Source/rtx_core_cm.h ****        (defined(__ARM_ARCH_8M_MAIN__) && (__ARM_ARCH_8M_MAIN__ != 0)))
 340:/usr/local/lib/ARM/CMSIS/5.4.0/CMSIS/RTOS2/RTX/Source/rtx_core_cm.h **** #define SVC_RegF "r12"
 341:/usr/local/lib/ARM/CMSIS/5.4.0/CMSIS/RTOS2/RTX/Source/rtx_core_cm.h **** #elif ((defined(__ARM_ARCH_6M__)      && (__ARM_ARCH_6M__      != 0)) ||       \
 342:/usr/local/lib/ARM/CMSIS/5.4.0/CMSIS/RTOS2/RTX/Source/rtx_core_cm.h ****        (defined(__ARM_ARCH_8M_BASE__) && (__ARM_ARCH_8M_BASE__ != 0)))
 343:/usr/local/lib/ARM/CMSIS/5.4.0/CMSIS/RTOS2/RTX/Source/rtx_core_cm.h **** #define SVC_RegF "r7"
 344:/usr/local/lib/ARM/CMSIS/5.4.0/CMSIS/RTOS2/RTX/Source/rtx_core_cm.h **** #endif
 345:/usr/local/lib/ARM/CMSIS/5.4.0/CMSIS/RTOS2/RTX/Source/rtx_core_cm.h **** 
 346:/usr/local/lib/ARM/CMSIS/5.4.0/CMSIS/RTOS2/RTX/Source/rtx_core_cm.h **** #define SVC_ArgN(n) \
 347:/usr/local/lib/ARM/CMSIS/5.4.0/CMSIS/RTOS2/RTX/Source/rtx_core_cm.h **** register uint32_t __r##n __ASM("r"#n)
 348:/usr/local/lib/ARM/CMSIS/5.4.0/CMSIS/RTOS2/RTX/Source/rtx_core_cm.h **** 
 349:/usr/local/lib/ARM/CMSIS/5.4.0/CMSIS/RTOS2/RTX/Source/rtx_core_cm.h **** #define SVC_ArgR(n,a) \
 350:/usr/local/lib/ARM/CMSIS/5.4.0/CMSIS/RTOS2/RTX/Source/rtx_core_cm.h **** register uint32_t __r##n __ASM("r"#n) = (uint32_t)a
 351:/usr/local/lib/ARM/CMSIS/5.4.0/CMSIS/RTOS2/RTX/Source/rtx_core_cm.h **** 
 352:/usr/local/lib/ARM/CMSIS/5.4.0/CMSIS/RTOS2/RTX/Source/rtx_core_cm.h **** #define SVC_ArgF(f) \
 353:/usr/local/lib/ARM/CMSIS/5.4.0/CMSIS/RTOS2/RTX/Source/rtx_core_cm.h **** register uint32_t __rf   __ASM(SVC_RegF) = (uint32_t)f
 354:/usr/local/lib/ARM/CMSIS/5.4.0/CMSIS/RTOS2/RTX/Source/rtx_core_cm.h **** 
ARM GAS  /tmp/cc4RTizm.s 			page 9


 355:/usr/local/lib/ARM/CMSIS/5.4.0/CMSIS/RTOS2/RTX/Source/rtx_core_cm.h **** #define SVC_In0 "r"(__rf)
 356:/usr/local/lib/ARM/CMSIS/5.4.0/CMSIS/RTOS2/RTX/Source/rtx_core_cm.h **** #define SVC_In1 "r"(__rf),"r"(__r0)
 357:/usr/local/lib/ARM/CMSIS/5.4.0/CMSIS/RTOS2/RTX/Source/rtx_core_cm.h **** #define SVC_In2 "r"(__rf),"r"(__r0),"r"(__r1)
 358:/usr/local/lib/ARM/CMSIS/5.4.0/CMSIS/RTOS2/RTX/Source/rtx_core_cm.h **** #define SVC_In3 "r"(__rf),"r"(__r0),"r"(__r1),"r"(__r2)
 359:/usr/local/lib/ARM/CMSIS/5.4.0/CMSIS/RTOS2/RTX/Source/rtx_core_cm.h **** #define SVC_In4 "r"(__rf),"r"(__r0),"r"(__r1),"r"(__r2),"r"(__r3)
 360:/usr/local/lib/ARM/CMSIS/5.4.0/CMSIS/RTOS2/RTX/Source/rtx_core_cm.h **** 
 361:/usr/local/lib/ARM/CMSIS/5.4.0/CMSIS/RTOS2/RTX/Source/rtx_core_cm.h **** #define SVC_Out0
 362:/usr/local/lib/ARM/CMSIS/5.4.0/CMSIS/RTOS2/RTX/Source/rtx_core_cm.h **** #define SVC_Out1 "=r"(__r0)
 363:/usr/local/lib/ARM/CMSIS/5.4.0/CMSIS/RTOS2/RTX/Source/rtx_core_cm.h **** 
 364:/usr/local/lib/ARM/CMSIS/5.4.0/CMSIS/RTOS2/RTX/Source/rtx_core_cm.h **** #define SVC_CL0
 365:/usr/local/lib/ARM/CMSIS/5.4.0/CMSIS/RTOS2/RTX/Source/rtx_core_cm.h **** #define SVC_CL1 "r1"
 366:/usr/local/lib/ARM/CMSIS/5.4.0/CMSIS/RTOS2/RTX/Source/rtx_core_cm.h **** #define SVC_CL2 "r0","r1"
 367:/usr/local/lib/ARM/CMSIS/5.4.0/CMSIS/RTOS2/RTX/Source/rtx_core_cm.h **** 
 368:/usr/local/lib/ARM/CMSIS/5.4.0/CMSIS/RTOS2/RTX/Source/rtx_core_cm.h **** #define SVC_Call0(in, out, cl)                                                 \
 369:/usr/local/lib/ARM/CMSIS/5.4.0/CMSIS/RTOS2/RTX/Source/rtx_core_cm.h ****   __ASM volatile ("svc 0" : out : in : cl)
 370:/usr/local/lib/ARM/CMSIS/5.4.0/CMSIS/RTOS2/RTX/Source/rtx_core_cm.h **** 
 371:/usr/local/lib/ARM/CMSIS/5.4.0/CMSIS/RTOS2/RTX/Source/rtx_core_cm.h **** #define SVC0_0N(f,t)                                                           \
 372:/usr/local/lib/ARM/CMSIS/5.4.0/CMSIS/RTOS2/RTX/Source/rtx_core_cm.h **** __attribute__((always_inline))                                                 \
 373:/usr/local/lib/ARM/CMSIS/5.4.0/CMSIS/RTOS2/RTX/Source/rtx_core_cm.h **** __STATIC_INLINE t __svc##f (void) {                                            \
 374:/usr/local/lib/ARM/CMSIS/5.4.0/CMSIS/RTOS2/RTX/Source/rtx_core_cm.h ****   SVC_ArgF(svcRtx##f);                                                         \
 375:/usr/local/lib/ARM/CMSIS/5.4.0/CMSIS/RTOS2/RTX/Source/rtx_core_cm.h ****   SVC_Call0(SVC_In0, SVC_Out0, SVC_CL2);                                       \
 376:/usr/local/lib/ARM/CMSIS/5.4.0/CMSIS/RTOS2/RTX/Source/rtx_core_cm.h **** }
 377:/usr/local/lib/ARM/CMSIS/5.4.0/CMSIS/RTOS2/RTX/Source/rtx_core_cm.h **** 
 378:/usr/local/lib/ARM/CMSIS/5.4.0/CMSIS/RTOS2/RTX/Source/rtx_core_cm.h **** #define SVC0_0(f,t)                                                            \
 379:/usr/local/lib/ARM/CMSIS/5.4.0/CMSIS/RTOS2/RTX/Source/rtx_core_cm.h **** __attribute__((always_inline))                                                 \
 380:/usr/local/lib/ARM/CMSIS/5.4.0/CMSIS/RTOS2/RTX/Source/rtx_core_cm.h **** __STATIC_INLINE t __svc##f (void) {                                            \
 381:/usr/local/lib/ARM/CMSIS/5.4.0/CMSIS/RTOS2/RTX/Source/rtx_core_cm.h ****   SVC_ArgN(0);                                                                 \
 382:/usr/local/lib/ARM/CMSIS/5.4.0/CMSIS/RTOS2/RTX/Source/rtx_core_cm.h ****   SVC_ArgF(svcRtx##f);                                                         \
 383:/usr/local/lib/ARM/CMSIS/5.4.0/CMSIS/RTOS2/RTX/Source/rtx_core_cm.h ****   SVC_Call0(SVC_In0, SVC_Out1, SVC_CL1);                                       \
 384:/usr/local/lib/ARM/CMSIS/5.4.0/CMSIS/RTOS2/RTX/Source/rtx_core_cm.h ****   return (t) __r0;                                                             \
 385:/usr/local/lib/ARM/CMSIS/5.4.0/CMSIS/RTOS2/RTX/Source/rtx_core_cm.h **** }
 386:/usr/local/lib/ARM/CMSIS/5.4.0/CMSIS/RTOS2/RTX/Source/rtx_core_cm.h **** 
 387:/usr/local/lib/ARM/CMSIS/5.4.0/CMSIS/RTOS2/RTX/Source/rtx_core_cm.h **** #define SVC0_1N(f,t,t1)                                                        \
 388:/usr/local/lib/ARM/CMSIS/5.4.0/CMSIS/RTOS2/RTX/Source/rtx_core_cm.h **** __attribute__((always_inline))                                                 \
 389:/usr/local/lib/ARM/CMSIS/5.4.0/CMSIS/RTOS2/RTX/Source/rtx_core_cm.h **** __STATIC_INLINE t __svc##f (t1 a1) {                                           \
 390:/usr/local/lib/ARM/CMSIS/5.4.0/CMSIS/RTOS2/RTX/Source/rtx_core_cm.h ****   SVC_ArgR(0,a1);                                                              \
 391:/usr/local/lib/ARM/CMSIS/5.4.0/CMSIS/RTOS2/RTX/Source/rtx_core_cm.h ****   SVC_ArgF(svcRtx##f);                                                         \
 392:/usr/local/lib/ARM/CMSIS/5.4.0/CMSIS/RTOS2/RTX/Source/rtx_core_cm.h ****   SVC_Call0(SVC_In1, SVC_Out0, SVC_CL1);                                       \
 393:/usr/local/lib/ARM/CMSIS/5.4.0/CMSIS/RTOS2/RTX/Source/rtx_core_cm.h **** }
 394:/usr/local/lib/ARM/CMSIS/5.4.0/CMSIS/RTOS2/RTX/Source/rtx_core_cm.h **** 
 395:/usr/local/lib/ARM/CMSIS/5.4.0/CMSIS/RTOS2/RTX/Source/rtx_core_cm.h **** #define SVC0_1(f,t,t1)                                                         \
 396:/usr/local/lib/ARM/CMSIS/5.4.0/CMSIS/RTOS2/RTX/Source/rtx_core_cm.h **** __attribute__((always_inline))                                                 \
 397:/usr/local/lib/ARM/CMSIS/5.4.0/CMSIS/RTOS2/RTX/Source/rtx_core_cm.h **** __STATIC_INLINE t __svc##f (t1 a1) {                                           \
 398:/usr/local/lib/ARM/CMSIS/5.4.0/CMSIS/RTOS2/RTX/Source/rtx_core_cm.h ****   SVC_ArgR(0,a1);                                                              \
 399:/usr/local/lib/ARM/CMSIS/5.4.0/CMSIS/RTOS2/RTX/Source/rtx_core_cm.h ****   SVC_ArgF(svcRtx##f);                                                         \
 400:/usr/local/lib/ARM/CMSIS/5.4.0/CMSIS/RTOS2/RTX/Source/rtx_core_cm.h ****   SVC_Call0(SVC_In1, SVC_Out1, SVC_CL1);                                       \
 401:/usr/local/lib/ARM/CMSIS/5.4.0/CMSIS/RTOS2/RTX/Source/rtx_core_cm.h ****   return (t) __r0;                                                             \
 402:/usr/local/lib/ARM/CMSIS/5.4.0/CMSIS/RTOS2/RTX/Source/rtx_core_cm.h **** }
 403:/usr/local/lib/ARM/CMSIS/5.4.0/CMSIS/RTOS2/RTX/Source/rtx_core_cm.h **** 
 404:/usr/local/lib/ARM/CMSIS/5.4.0/CMSIS/RTOS2/RTX/Source/rtx_core_cm.h **** #define SVC0_2(f,t,t1,t2)                                                      \
 405:/usr/local/lib/ARM/CMSIS/5.4.0/CMSIS/RTOS2/RTX/Source/rtx_core_cm.h **** __attribute__((always_inline))                                                 \
 406:/usr/local/lib/ARM/CMSIS/5.4.0/CMSIS/RTOS2/RTX/Source/rtx_core_cm.h **** __STATIC_INLINE t __svc##f (t1 a1, t2 a2) {                                    \
 407:/usr/local/lib/ARM/CMSIS/5.4.0/CMSIS/RTOS2/RTX/Source/rtx_core_cm.h ****   SVC_ArgR(0,a1);                                                              \
 408:/usr/local/lib/ARM/CMSIS/5.4.0/CMSIS/RTOS2/RTX/Source/rtx_core_cm.h ****   SVC_ArgR(1,a2);                                                              \
 409:/usr/local/lib/ARM/CMSIS/5.4.0/CMSIS/RTOS2/RTX/Source/rtx_core_cm.h ****   SVC_ArgF(svcRtx##f);                                                         \
 410:/usr/local/lib/ARM/CMSIS/5.4.0/CMSIS/RTOS2/RTX/Source/rtx_core_cm.h ****   SVC_Call0(SVC_In2, SVC_Out1, SVC_CL0);                                       \
 411:/usr/local/lib/ARM/CMSIS/5.4.0/CMSIS/RTOS2/RTX/Source/rtx_core_cm.h ****   return (t) __r0;                                                             \
ARM GAS  /tmp/cc4RTizm.s 			page 10


 412:/usr/local/lib/ARM/CMSIS/5.4.0/CMSIS/RTOS2/RTX/Source/rtx_core_cm.h **** }
 413:/usr/local/lib/ARM/CMSIS/5.4.0/CMSIS/RTOS2/RTX/Source/rtx_core_cm.h **** 
 414:/usr/local/lib/ARM/CMSIS/5.4.0/CMSIS/RTOS2/RTX/Source/rtx_core_cm.h **** #define SVC0_3(f,t,t1,t2,t3)                                                   \
 415:/usr/local/lib/ARM/CMSIS/5.4.0/CMSIS/RTOS2/RTX/Source/rtx_core_cm.h **** __attribute__((always_inline))                                                 \
 416:/usr/local/lib/ARM/CMSIS/5.4.0/CMSIS/RTOS2/RTX/Source/rtx_core_cm.h **** __STATIC_INLINE t __svc##f (t1 a1, t2 a2, t3 a3) {                             \
 417:/usr/local/lib/ARM/CMSIS/5.4.0/CMSIS/RTOS2/RTX/Source/rtx_core_cm.h ****   SVC_ArgR(0,a1);                                                              \
 418:/usr/local/lib/ARM/CMSIS/5.4.0/CMSIS/RTOS2/RTX/Source/rtx_core_cm.h ****   SVC_ArgR(1,a2);                                                              \
 419:/usr/local/lib/ARM/CMSIS/5.4.0/CMSIS/RTOS2/RTX/Source/rtx_core_cm.h ****   SVC_ArgR(2,a3);                                                              \
 420:/usr/local/lib/ARM/CMSIS/5.4.0/CMSIS/RTOS2/RTX/Source/rtx_core_cm.h ****   SVC_ArgF(svcRtx##f);                                                         \
 421:/usr/local/lib/ARM/CMSIS/5.4.0/CMSIS/RTOS2/RTX/Source/rtx_core_cm.h ****   SVC_Call0(SVC_In3, SVC_Out1, SVC_CL0);                                       \
 422:/usr/local/lib/ARM/CMSIS/5.4.0/CMSIS/RTOS2/RTX/Source/rtx_core_cm.h ****   return (t) __r0;                                                             \
 423:/usr/local/lib/ARM/CMSIS/5.4.0/CMSIS/RTOS2/RTX/Source/rtx_core_cm.h **** }
 424:/usr/local/lib/ARM/CMSIS/5.4.0/CMSIS/RTOS2/RTX/Source/rtx_core_cm.h **** 
 425:/usr/local/lib/ARM/CMSIS/5.4.0/CMSIS/RTOS2/RTX/Source/rtx_core_cm.h **** #define SVC0_4(f,t,t1,t2,t3,t4)                                                \
 426:/usr/local/lib/ARM/CMSIS/5.4.0/CMSIS/RTOS2/RTX/Source/rtx_core_cm.h **** __attribute__((always_inline))                                                 \
 427:/usr/local/lib/ARM/CMSIS/5.4.0/CMSIS/RTOS2/RTX/Source/rtx_core_cm.h **** __STATIC_INLINE t __svc##f (t1 a1, t2 a2, t3 a3, t4 a4) {                      \
 428:/usr/local/lib/ARM/CMSIS/5.4.0/CMSIS/RTOS2/RTX/Source/rtx_core_cm.h ****   SVC_ArgR(0,a1);                                                              \
 429:/usr/local/lib/ARM/CMSIS/5.4.0/CMSIS/RTOS2/RTX/Source/rtx_core_cm.h ****   SVC_ArgR(1,a2);                                                              \
 430:/usr/local/lib/ARM/CMSIS/5.4.0/CMSIS/RTOS2/RTX/Source/rtx_core_cm.h ****   SVC_ArgR(2,a3);                                                              \
 431:/usr/local/lib/ARM/CMSIS/5.4.0/CMSIS/RTOS2/RTX/Source/rtx_core_cm.h ****   SVC_ArgR(3,a4);                                                              \
 432:/usr/local/lib/ARM/CMSIS/5.4.0/CMSIS/RTOS2/RTX/Source/rtx_core_cm.h ****   SVC_ArgF(svcRtx##f);                                                         \
 433:/usr/local/lib/ARM/CMSIS/5.4.0/CMSIS/RTOS2/RTX/Source/rtx_core_cm.h ****   SVC_Call0(SVC_In4, SVC_Out1, SVC_CL0);                                       \
 434:/usr/local/lib/ARM/CMSIS/5.4.0/CMSIS/RTOS2/RTX/Source/rtx_core_cm.h ****   return (t) __r0;                                                             \
 435:/usr/local/lib/ARM/CMSIS/5.4.0/CMSIS/RTOS2/RTX/Source/rtx_core_cm.h **** }
 436:/usr/local/lib/ARM/CMSIS/5.4.0/CMSIS/RTOS2/RTX/Source/rtx_core_cm.h **** 
 437:/usr/local/lib/ARM/CMSIS/5.4.0/CMSIS/RTOS2/RTX/Source/rtx_core_cm.h **** #endif
 438:/usr/local/lib/ARM/CMSIS/5.4.0/CMSIS/RTOS2/RTX/Source/rtx_core_cm.h **** 
 439:/usr/local/lib/ARM/CMSIS/5.4.0/CMSIS/RTOS2/RTX/Source/rtx_core_cm.h **** //lint -restore [MISRA Note 10]
 440:/usr/local/lib/ARM/CMSIS/5.4.0/CMSIS/RTOS2/RTX/Source/rtx_core_cm.h **** 
 441:/usr/local/lib/ARM/CMSIS/5.4.0/CMSIS/RTOS2/RTX/Source/rtx_core_cm.h **** 
 442:/usr/local/lib/ARM/CMSIS/5.4.0/CMSIS/RTOS2/RTX/Source/rtx_core_cm.h **** //  ==== Exclusive Access Operation ====
 443:/usr/local/lib/ARM/CMSIS/5.4.0/CMSIS/RTOS2/RTX/Source/rtx_core_cm.h **** 
 444:/usr/local/lib/ARM/CMSIS/5.4.0/CMSIS/RTOS2/RTX/Source/rtx_core_cm.h **** #if (EXCLUSIVE_ACCESS == 1)
 445:/usr/local/lib/ARM/CMSIS/5.4.0/CMSIS/RTOS2/RTX/Source/rtx_core_cm.h **** 
 446:/usr/local/lib/ARM/CMSIS/5.4.0/CMSIS/RTOS2/RTX/Source/rtx_core_cm.h **** //lint ++flb "Library Begin" [MISRA Note 12]
 447:/usr/local/lib/ARM/CMSIS/5.4.0/CMSIS/RTOS2/RTX/Source/rtx_core_cm.h **** 
 448:/usr/local/lib/ARM/CMSIS/5.4.0/CMSIS/RTOS2/RTX/Source/rtx_core_cm.h **** /// Atomic Access Operation: Write (8-bit)
 449:/usr/local/lib/ARM/CMSIS/5.4.0/CMSIS/RTOS2/RTX/Source/rtx_core_cm.h **** /// \param[in]  mem             Memory address
 450:/usr/local/lib/ARM/CMSIS/5.4.0/CMSIS/RTOS2/RTX/Source/rtx_core_cm.h **** /// \param[in]  val             Value to write
 451:/usr/local/lib/ARM/CMSIS/5.4.0/CMSIS/RTOS2/RTX/Source/rtx_core_cm.h **** /// \return                     Previous value
 452:/usr/local/lib/ARM/CMSIS/5.4.0/CMSIS/RTOS2/RTX/Source/rtx_core_cm.h **** #if defined(__CC_ARM)
 453:/usr/local/lib/ARM/CMSIS/5.4.0/CMSIS/RTOS2/RTX/Source/rtx_core_cm.h **** static __asm    uint8_t atomic_wr8 (uint8_t *mem, uint8_t val) {
 454:/usr/local/lib/ARM/CMSIS/5.4.0/CMSIS/RTOS2/RTX/Source/rtx_core_cm.h ****   mov    r2,r0
 455:/usr/local/lib/ARM/CMSIS/5.4.0/CMSIS/RTOS2/RTX/Source/rtx_core_cm.h **** 1
 456:/usr/local/lib/ARM/CMSIS/5.4.0/CMSIS/RTOS2/RTX/Source/rtx_core_cm.h ****   ldrexb r0,[r2]
 457:/usr/local/lib/ARM/CMSIS/5.4.0/CMSIS/RTOS2/RTX/Source/rtx_core_cm.h ****   strexb r3,r1,[r2]
 458:/usr/local/lib/ARM/CMSIS/5.4.0/CMSIS/RTOS2/RTX/Source/rtx_core_cm.h ****   cbz    r3,%F2
 459:/usr/local/lib/ARM/CMSIS/5.4.0/CMSIS/RTOS2/RTX/Source/rtx_core_cm.h ****   b      %B1
 460:/usr/local/lib/ARM/CMSIS/5.4.0/CMSIS/RTOS2/RTX/Source/rtx_core_cm.h **** 2
 461:/usr/local/lib/ARM/CMSIS/5.4.0/CMSIS/RTOS2/RTX/Source/rtx_core_cm.h ****   bx     lr
 462:/usr/local/lib/ARM/CMSIS/5.4.0/CMSIS/RTOS2/RTX/Source/rtx_core_cm.h **** }
 463:/usr/local/lib/ARM/CMSIS/5.4.0/CMSIS/RTOS2/RTX/Source/rtx_core_cm.h **** #else
 464:/usr/local/lib/ARM/CMSIS/5.4.0/CMSIS/RTOS2/RTX/Source/rtx_core_cm.h **** __STATIC_INLINE uint8_t atomic_wr8 (uint8_t *mem, uint8_t val) {
 465:/usr/local/lib/ARM/CMSIS/5.4.0/CMSIS/RTOS2/RTX/Source/rtx_core_cm.h **** #ifdef  __ICCARM__
 466:/usr/local/lib/ARM/CMSIS/5.4.0/CMSIS/RTOS2/RTX/Source/rtx_core_cm.h **** #pragma diag_suppress=Pe550
 467:/usr/local/lib/ARM/CMSIS/5.4.0/CMSIS/RTOS2/RTX/Source/rtx_core_cm.h **** #endif
 468:/usr/local/lib/ARM/CMSIS/5.4.0/CMSIS/RTOS2/RTX/Source/rtx_core_cm.h ****   register uint32_t res;
ARM GAS  /tmp/cc4RTizm.s 			page 11


 469:/usr/local/lib/ARM/CMSIS/5.4.0/CMSIS/RTOS2/RTX/Source/rtx_core_cm.h **** #ifdef  __ICCARM__
 470:/usr/local/lib/ARM/CMSIS/5.4.0/CMSIS/RTOS2/RTX/Source/rtx_core_cm.h **** #pragma diag_default=Pe550
 471:/usr/local/lib/ARM/CMSIS/5.4.0/CMSIS/RTOS2/RTX/Source/rtx_core_cm.h **** #endif
 472:/usr/local/lib/ARM/CMSIS/5.4.0/CMSIS/RTOS2/RTX/Source/rtx_core_cm.h ****   register uint8_t  ret;
 473:/usr/local/lib/ARM/CMSIS/5.4.0/CMSIS/RTOS2/RTX/Source/rtx_core_cm.h **** 
 474:/usr/local/lib/ARM/CMSIS/5.4.0/CMSIS/RTOS2/RTX/Source/rtx_core_cm.h ****   __ASM volatile (
 475:/usr/local/lib/ARM/CMSIS/5.4.0/CMSIS/RTOS2/RTX/Source/rtx_core_cm.h **** #ifndef __ICCARM__
 476:/usr/local/lib/ARM/CMSIS/5.4.0/CMSIS/RTOS2/RTX/Source/rtx_core_cm.h ****   ".syntax unified\n\t"
 477:/usr/local/lib/ARM/CMSIS/5.4.0/CMSIS/RTOS2/RTX/Source/rtx_core_cm.h **** #endif
 478:/usr/local/lib/ARM/CMSIS/5.4.0/CMSIS/RTOS2/RTX/Source/rtx_core_cm.h ****   "1:\n\t"
 479:/usr/local/lib/ARM/CMSIS/5.4.0/CMSIS/RTOS2/RTX/Source/rtx_core_cm.h ****     "ldrexb %[ret],[%[mem]]\n\t"
 480:/usr/local/lib/ARM/CMSIS/5.4.0/CMSIS/RTOS2/RTX/Source/rtx_core_cm.h ****     "strexb %[res],%[val],[%[mem]]\n\t"
 481:/usr/local/lib/ARM/CMSIS/5.4.0/CMSIS/RTOS2/RTX/Source/rtx_core_cm.h ****     "cbz    %[res],2f\n\t"
 482:/usr/local/lib/ARM/CMSIS/5.4.0/CMSIS/RTOS2/RTX/Source/rtx_core_cm.h ****     "b       1b\n"
 483:/usr/local/lib/ARM/CMSIS/5.4.0/CMSIS/RTOS2/RTX/Source/rtx_core_cm.h ****   "2:"
 484:/usr/local/lib/ARM/CMSIS/5.4.0/CMSIS/RTOS2/RTX/Source/rtx_core_cm.h ****   : [ret] "=&l" (ret),
 485:/usr/local/lib/ARM/CMSIS/5.4.0/CMSIS/RTOS2/RTX/Source/rtx_core_cm.h ****     [res] "=&l" (res)
 486:/usr/local/lib/ARM/CMSIS/5.4.0/CMSIS/RTOS2/RTX/Source/rtx_core_cm.h ****   : [mem] "l"   (mem),
 487:/usr/local/lib/ARM/CMSIS/5.4.0/CMSIS/RTOS2/RTX/Source/rtx_core_cm.h ****     [val] "l"   (val)
 488:/usr/local/lib/ARM/CMSIS/5.4.0/CMSIS/RTOS2/RTX/Source/rtx_core_cm.h ****   : "memory"
 489:/usr/local/lib/ARM/CMSIS/5.4.0/CMSIS/RTOS2/RTX/Source/rtx_core_cm.h ****   );
 490:/usr/local/lib/ARM/CMSIS/5.4.0/CMSIS/RTOS2/RTX/Source/rtx_core_cm.h **** 
 491:/usr/local/lib/ARM/CMSIS/5.4.0/CMSIS/RTOS2/RTX/Source/rtx_core_cm.h ****   return ret;
 492:/usr/local/lib/ARM/CMSIS/5.4.0/CMSIS/RTOS2/RTX/Source/rtx_core_cm.h **** }
 493:/usr/local/lib/ARM/CMSIS/5.4.0/CMSIS/RTOS2/RTX/Source/rtx_core_cm.h **** #endif
 494:/usr/local/lib/ARM/CMSIS/5.4.0/CMSIS/RTOS2/RTX/Source/rtx_core_cm.h **** 
 495:/usr/local/lib/ARM/CMSIS/5.4.0/CMSIS/RTOS2/RTX/Source/rtx_core_cm.h **** /// Atomic Access Operation: Set bits (32-bit)
 496:/usr/local/lib/ARM/CMSIS/5.4.0/CMSIS/RTOS2/RTX/Source/rtx_core_cm.h **** /// \param[in]  mem             Memory address
 497:/usr/local/lib/ARM/CMSIS/5.4.0/CMSIS/RTOS2/RTX/Source/rtx_core_cm.h **** /// \param[in]  bits            Bit mask
 498:/usr/local/lib/ARM/CMSIS/5.4.0/CMSIS/RTOS2/RTX/Source/rtx_core_cm.h **** /// \return                     New value
 499:/usr/local/lib/ARM/CMSIS/5.4.0/CMSIS/RTOS2/RTX/Source/rtx_core_cm.h **** #if defined(__CC_ARM)
 500:/usr/local/lib/ARM/CMSIS/5.4.0/CMSIS/RTOS2/RTX/Source/rtx_core_cm.h **** static __asm    uint32_t atomic_set32 (uint32_t *mem, uint32_t bits) {
 501:/usr/local/lib/ARM/CMSIS/5.4.0/CMSIS/RTOS2/RTX/Source/rtx_core_cm.h ****   mov   r2,r0
 502:/usr/local/lib/ARM/CMSIS/5.4.0/CMSIS/RTOS2/RTX/Source/rtx_core_cm.h **** 1
 503:/usr/local/lib/ARM/CMSIS/5.4.0/CMSIS/RTOS2/RTX/Source/rtx_core_cm.h ****   ldrex r0,[r2]
 504:/usr/local/lib/ARM/CMSIS/5.4.0/CMSIS/RTOS2/RTX/Source/rtx_core_cm.h ****   orr   r0,r0,r1
 505:/usr/local/lib/ARM/CMSIS/5.4.0/CMSIS/RTOS2/RTX/Source/rtx_core_cm.h ****   strex r3,r0,[r2]
 506:/usr/local/lib/ARM/CMSIS/5.4.0/CMSIS/RTOS2/RTX/Source/rtx_core_cm.h ****   cbz   r3,%F2
 507:/usr/local/lib/ARM/CMSIS/5.4.0/CMSIS/RTOS2/RTX/Source/rtx_core_cm.h ****   b     %B1
 508:/usr/local/lib/ARM/CMSIS/5.4.0/CMSIS/RTOS2/RTX/Source/rtx_core_cm.h **** 2
 509:/usr/local/lib/ARM/CMSIS/5.4.0/CMSIS/RTOS2/RTX/Source/rtx_core_cm.h ****   bx     lr
 510:/usr/local/lib/ARM/CMSIS/5.4.0/CMSIS/RTOS2/RTX/Source/rtx_core_cm.h **** }
 511:/usr/local/lib/ARM/CMSIS/5.4.0/CMSIS/RTOS2/RTX/Source/rtx_core_cm.h **** #else
 512:/usr/local/lib/ARM/CMSIS/5.4.0/CMSIS/RTOS2/RTX/Source/rtx_core_cm.h **** __STATIC_INLINE uint32_t atomic_set32 (uint32_t *mem, uint32_t bits) {
 513:/usr/local/lib/ARM/CMSIS/5.4.0/CMSIS/RTOS2/RTX/Source/rtx_core_cm.h **** #ifdef  __ICCARM__
 514:/usr/local/lib/ARM/CMSIS/5.4.0/CMSIS/RTOS2/RTX/Source/rtx_core_cm.h **** #pragma diag_suppress=Pe550
 515:/usr/local/lib/ARM/CMSIS/5.4.0/CMSIS/RTOS2/RTX/Source/rtx_core_cm.h **** #endif
 516:/usr/local/lib/ARM/CMSIS/5.4.0/CMSIS/RTOS2/RTX/Source/rtx_core_cm.h ****   register uint32_t val, res;
 517:/usr/local/lib/ARM/CMSIS/5.4.0/CMSIS/RTOS2/RTX/Source/rtx_core_cm.h **** #ifdef  __ICCARM__
 518:/usr/local/lib/ARM/CMSIS/5.4.0/CMSIS/RTOS2/RTX/Source/rtx_core_cm.h **** #pragma diag_default=Pe550
 519:/usr/local/lib/ARM/CMSIS/5.4.0/CMSIS/RTOS2/RTX/Source/rtx_core_cm.h **** #endif
 520:/usr/local/lib/ARM/CMSIS/5.4.0/CMSIS/RTOS2/RTX/Source/rtx_core_cm.h ****   register uint32_t ret;
 521:/usr/local/lib/ARM/CMSIS/5.4.0/CMSIS/RTOS2/RTX/Source/rtx_core_cm.h **** 
 522:/usr/local/lib/ARM/CMSIS/5.4.0/CMSIS/RTOS2/RTX/Source/rtx_core_cm.h ****   __ASM volatile (
  45              		.loc 2 522 0
  46              		.syntax unified
  47              	@ 522 "/usr/local/lib/ARM/CMSIS/5.4.0/CMSIS/RTOS2/RTX/Source/rtx_core_cm.h" 1
ARM GAS  /tmp/cc4RTizm.s 			page 12


  48              		.syntax unified
  49              		1:
  50 0006 53E8002F 		ldrex r2,[r3]
  51 000a 42EA0100 		orr   r0,r2,r1
  52 000e 43E80004 		strex r4,r0,[r3]
  53 0012 04B1     		cbz   r4,2f
  54 0014 F7E7     		b     1b
  55              	2:
  56              	@ 0 "" 2
  57              	.LVL2:
  58              		.thumb
  59              		.syntax unified
  60              	.LBE139:
  61              	.LBE138:
  60:/usr/local/lib/ARM/CMSIS/5.4.0/CMSIS/RTOS2/RTX/Source/rtx_evflags.c **** #endif
  61:/usr/local/lib/ARM/CMSIS/5.4.0/CMSIS/RTOS2/RTX/Source/rtx_evflags.c **** 
  62:/usr/local/lib/ARM/CMSIS/5.4.0/CMSIS/RTOS2/RTX/Source/rtx_evflags.c ****   return event_flags;
  63:/usr/local/lib/ARM/CMSIS/5.4.0/CMSIS/RTOS2/RTX/Source/rtx_evflags.c **** }
  62              		.loc 1 63 0
  63 0016 5DF8044B 		ldr	r4, [sp], #4
  64              	.LCFI1:
  65              		.cfi_restore 4
  66              		.cfi_def_cfa_offset 0
  67 001a 7047     		bx	lr
  68              		.cfi_endproc
  69              	.LFE174:
  71              		.section	.text.EventFlagsClear,"ax",%progbits
  72              		.align	2
  73              		.thumb
  74              		.thumb_func
  76              	EventFlagsClear:
  77              	.LFB175:
  64:/usr/local/lib/ARM/CMSIS/5.4.0/CMSIS/RTOS2/RTX/Source/rtx_evflags.c **** 
  65:/usr/local/lib/ARM/CMSIS/5.4.0/CMSIS/RTOS2/RTX/Source/rtx_evflags.c **** /// Clear Event Flags.
  66:/usr/local/lib/ARM/CMSIS/5.4.0/CMSIS/RTOS2/RTX/Source/rtx_evflags.c **** /// \param[in]  ef              event flags object.
  67:/usr/local/lib/ARM/CMSIS/5.4.0/CMSIS/RTOS2/RTX/Source/rtx_evflags.c **** /// \param[in]  flags           specifies the flags to clear.
  68:/usr/local/lib/ARM/CMSIS/5.4.0/CMSIS/RTOS2/RTX/Source/rtx_evflags.c **** /// \return event flags before clearing.
  69:/usr/local/lib/ARM/CMSIS/5.4.0/CMSIS/RTOS2/RTX/Source/rtx_evflags.c **** static uint32_t EventFlagsClear (os_event_flags_t *ef, uint32_t flags) {
  78              		.loc 1 69 0
  79              		.cfi_startproc
  80              		@ args = 0, pretend = 0, frame = 0
  81              		@ frame_needed = 0, uses_anonymous_args = 0
  82              		@ link register save eliminated.
  83              	.LVL3:
  84 0000 10B4     		push	{r4}
  85              	.LCFI2:
  86              		.cfi_def_cfa_offset 4
  87              		.cfi_offset 4, -4
  70:/usr/local/lib/ARM/CMSIS/5.4.0/CMSIS/RTOS2/RTX/Source/rtx_evflags.c **** #if (EXCLUSIVE_ACCESS == 0)
  71:/usr/local/lib/ARM/CMSIS/5.4.0/CMSIS/RTOS2/RTX/Source/rtx_evflags.c ****   uint32_t primask = __get_PRIMASK();
  72:/usr/local/lib/ARM/CMSIS/5.4.0/CMSIS/RTOS2/RTX/Source/rtx_evflags.c **** #endif
  73:/usr/local/lib/ARM/CMSIS/5.4.0/CMSIS/RTOS2/RTX/Source/rtx_evflags.c ****   uint32_t event_flags;
  74:/usr/local/lib/ARM/CMSIS/5.4.0/CMSIS/RTOS2/RTX/Source/rtx_evflags.c **** 
  75:/usr/local/lib/ARM/CMSIS/5.4.0/CMSIS/RTOS2/RTX/Source/rtx_evflags.c **** #if (EXCLUSIVE_ACCESS == 0)
  76:/usr/local/lib/ARM/CMSIS/5.4.0/CMSIS/RTOS2/RTX/Source/rtx_evflags.c ****   __disable_irq();
  77:/usr/local/lib/ARM/CMSIS/5.4.0/CMSIS/RTOS2/RTX/Source/rtx_evflags.c **** 
  78:/usr/local/lib/ARM/CMSIS/5.4.0/CMSIS/RTOS2/RTX/Source/rtx_evflags.c ****   event_flags = ef->event_flags;
ARM GAS  /tmp/cc4RTizm.s 			page 13


  79:/usr/local/lib/ARM/CMSIS/5.4.0/CMSIS/RTOS2/RTX/Source/rtx_evflags.c ****   ef->event_flags &= ~flags;
  80:/usr/local/lib/ARM/CMSIS/5.4.0/CMSIS/RTOS2/RTX/Source/rtx_evflags.c **** 
  81:/usr/local/lib/ARM/CMSIS/5.4.0/CMSIS/RTOS2/RTX/Source/rtx_evflags.c ****   if (primask == 0U) {
  82:/usr/local/lib/ARM/CMSIS/5.4.0/CMSIS/RTOS2/RTX/Source/rtx_evflags.c ****     __enable_irq();
  83:/usr/local/lib/ARM/CMSIS/5.4.0/CMSIS/RTOS2/RTX/Source/rtx_evflags.c ****   }
  84:/usr/local/lib/ARM/CMSIS/5.4.0/CMSIS/RTOS2/RTX/Source/rtx_evflags.c **** #else
  85:/usr/local/lib/ARM/CMSIS/5.4.0/CMSIS/RTOS2/RTX/Source/rtx_evflags.c ****   event_flags = atomic_clr32(&ef->event_flags, flags);
  88              		.loc 1 85 0
  89 0002 00F10C03 		add	r3, r0, #12
  90              	.LVL4:
  91              	.LBB140:
  92              	.LBB141:
 523:/usr/local/lib/ARM/CMSIS/5.4.0/CMSIS/RTOS2/RTX/Source/rtx_core_cm.h **** #ifndef __ICCARM__
 524:/usr/local/lib/ARM/CMSIS/5.4.0/CMSIS/RTOS2/RTX/Source/rtx_core_cm.h ****   ".syntax unified\n\t"
 525:/usr/local/lib/ARM/CMSIS/5.4.0/CMSIS/RTOS2/RTX/Source/rtx_core_cm.h **** #endif
 526:/usr/local/lib/ARM/CMSIS/5.4.0/CMSIS/RTOS2/RTX/Source/rtx_core_cm.h ****   "1:\n\t"
 527:/usr/local/lib/ARM/CMSIS/5.4.0/CMSIS/RTOS2/RTX/Source/rtx_core_cm.h ****     "ldrex %[val],[%[mem]]\n\t"
 528:/usr/local/lib/ARM/CMSIS/5.4.0/CMSIS/RTOS2/RTX/Source/rtx_core_cm.h **** #if (defined(__ARM_ARCH_8M_BASE__) && (__ARM_ARCH_8M_BASE__ != 0))
 529:/usr/local/lib/ARM/CMSIS/5.4.0/CMSIS/RTOS2/RTX/Source/rtx_core_cm.h ****     "mov   %[ret],%[val]\n\t"
 530:/usr/local/lib/ARM/CMSIS/5.4.0/CMSIS/RTOS2/RTX/Source/rtx_core_cm.h ****     "orrs  %[ret],%[bits]\n\t"
 531:/usr/local/lib/ARM/CMSIS/5.4.0/CMSIS/RTOS2/RTX/Source/rtx_core_cm.h **** #else
 532:/usr/local/lib/ARM/CMSIS/5.4.0/CMSIS/RTOS2/RTX/Source/rtx_core_cm.h ****     "orr   %[ret],%[val],%[bits]\n\t"
 533:/usr/local/lib/ARM/CMSIS/5.4.0/CMSIS/RTOS2/RTX/Source/rtx_core_cm.h **** #endif
 534:/usr/local/lib/ARM/CMSIS/5.4.0/CMSIS/RTOS2/RTX/Source/rtx_core_cm.h ****     "strex %[res],%[ret],[%[mem]]\n\t"
 535:/usr/local/lib/ARM/CMSIS/5.4.0/CMSIS/RTOS2/RTX/Source/rtx_core_cm.h ****     "cbz   %[res],2f\n\t"
 536:/usr/local/lib/ARM/CMSIS/5.4.0/CMSIS/RTOS2/RTX/Source/rtx_core_cm.h ****     "b     1b\n"
 537:/usr/local/lib/ARM/CMSIS/5.4.0/CMSIS/RTOS2/RTX/Source/rtx_core_cm.h ****   "2:"
 538:/usr/local/lib/ARM/CMSIS/5.4.0/CMSIS/RTOS2/RTX/Source/rtx_core_cm.h ****   : [ret]  "=&l" (ret),
 539:/usr/local/lib/ARM/CMSIS/5.4.0/CMSIS/RTOS2/RTX/Source/rtx_core_cm.h ****     [val]  "=&l" (val),
 540:/usr/local/lib/ARM/CMSIS/5.4.0/CMSIS/RTOS2/RTX/Source/rtx_core_cm.h ****     [res]  "=&l" (res)
 541:/usr/local/lib/ARM/CMSIS/5.4.0/CMSIS/RTOS2/RTX/Source/rtx_core_cm.h ****   : [mem]  "l"   (mem),
 542:/usr/local/lib/ARM/CMSIS/5.4.0/CMSIS/RTOS2/RTX/Source/rtx_core_cm.h ****     [bits] "l"   (bits)
 543:/usr/local/lib/ARM/CMSIS/5.4.0/CMSIS/RTOS2/RTX/Source/rtx_core_cm.h **** #if (defined(__ARM_ARCH_8M_BASE__) && (__ARM_ARCH_8M_BASE__ != 0))
 544:/usr/local/lib/ARM/CMSIS/5.4.0/CMSIS/RTOS2/RTX/Source/rtx_core_cm.h ****   : "memory", "cc"
 545:/usr/local/lib/ARM/CMSIS/5.4.0/CMSIS/RTOS2/RTX/Source/rtx_core_cm.h **** #else
 546:/usr/local/lib/ARM/CMSIS/5.4.0/CMSIS/RTOS2/RTX/Source/rtx_core_cm.h ****   : "memory"
 547:/usr/local/lib/ARM/CMSIS/5.4.0/CMSIS/RTOS2/RTX/Source/rtx_core_cm.h **** #endif
 548:/usr/local/lib/ARM/CMSIS/5.4.0/CMSIS/RTOS2/RTX/Source/rtx_core_cm.h ****   );
 549:/usr/local/lib/ARM/CMSIS/5.4.0/CMSIS/RTOS2/RTX/Source/rtx_core_cm.h **** 
 550:/usr/local/lib/ARM/CMSIS/5.4.0/CMSIS/RTOS2/RTX/Source/rtx_core_cm.h ****   return ret;
 551:/usr/local/lib/ARM/CMSIS/5.4.0/CMSIS/RTOS2/RTX/Source/rtx_core_cm.h **** }
 552:/usr/local/lib/ARM/CMSIS/5.4.0/CMSIS/RTOS2/RTX/Source/rtx_core_cm.h **** #endif
 553:/usr/local/lib/ARM/CMSIS/5.4.0/CMSIS/RTOS2/RTX/Source/rtx_core_cm.h **** 
 554:/usr/local/lib/ARM/CMSIS/5.4.0/CMSIS/RTOS2/RTX/Source/rtx_core_cm.h **** /// Atomic Access Operation: Clear bits (32-bit)
 555:/usr/local/lib/ARM/CMSIS/5.4.0/CMSIS/RTOS2/RTX/Source/rtx_core_cm.h **** /// \param[in]  mem             Memory address
 556:/usr/local/lib/ARM/CMSIS/5.4.0/CMSIS/RTOS2/RTX/Source/rtx_core_cm.h **** /// \param[in]  bits            Bit mask
 557:/usr/local/lib/ARM/CMSIS/5.4.0/CMSIS/RTOS2/RTX/Source/rtx_core_cm.h **** /// \return                     Previous value
 558:/usr/local/lib/ARM/CMSIS/5.4.0/CMSIS/RTOS2/RTX/Source/rtx_core_cm.h **** #if defined(__CC_ARM)
 559:/usr/local/lib/ARM/CMSIS/5.4.0/CMSIS/RTOS2/RTX/Source/rtx_core_cm.h **** static __asm    uint32_t atomic_clr32 (uint32_t *mem, uint32_t bits) {
 560:/usr/local/lib/ARM/CMSIS/5.4.0/CMSIS/RTOS2/RTX/Source/rtx_core_cm.h ****   push  {r4,lr}
 561:/usr/local/lib/ARM/CMSIS/5.4.0/CMSIS/RTOS2/RTX/Source/rtx_core_cm.h ****   mov   r2,r0
 562:/usr/local/lib/ARM/CMSIS/5.4.0/CMSIS/RTOS2/RTX/Source/rtx_core_cm.h **** 1
 563:/usr/local/lib/ARM/CMSIS/5.4.0/CMSIS/RTOS2/RTX/Source/rtx_core_cm.h ****   ldrex r0,[r2]
 564:/usr/local/lib/ARM/CMSIS/5.4.0/CMSIS/RTOS2/RTX/Source/rtx_core_cm.h ****   bic   r4,r0,r1
 565:/usr/local/lib/ARM/CMSIS/5.4.0/CMSIS/RTOS2/RTX/Source/rtx_core_cm.h ****   strex r3,r4,[r2]
 566:/usr/local/lib/ARM/CMSIS/5.4.0/CMSIS/RTOS2/RTX/Source/rtx_core_cm.h ****   cbz   r3,%F2
 567:/usr/local/lib/ARM/CMSIS/5.4.0/CMSIS/RTOS2/RTX/Source/rtx_core_cm.h ****   b     %B1
ARM GAS  /tmp/cc4RTizm.s 			page 14


 568:/usr/local/lib/ARM/CMSIS/5.4.0/CMSIS/RTOS2/RTX/Source/rtx_core_cm.h **** 2
 569:/usr/local/lib/ARM/CMSIS/5.4.0/CMSIS/RTOS2/RTX/Source/rtx_core_cm.h ****   pop   {r4,pc}
 570:/usr/local/lib/ARM/CMSIS/5.4.0/CMSIS/RTOS2/RTX/Source/rtx_core_cm.h **** }
 571:/usr/local/lib/ARM/CMSIS/5.4.0/CMSIS/RTOS2/RTX/Source/rtx_core_cm.h **** #else
 572:/usr/local/lib/ARM/CMSIS/5.4.0/CMSIS/RTOS2/RTX/Source/rtx_core_cm.h **** __STATIC_INLINE uint32_t atomic_clr32 (uint32_t *mem, uint32_t bits) {
 573:/usr/local/lib/ARM/CMSIS/5.4.0/CMSIS/RTOS2/RTX/Source/rtx_core_cm.h **** #ifdef  __ICCARM__
 574:/usr/local/lib/ARM/CMSIS/5.4.0/CMSIS/RTOS2/RTX/Source/rtx_core_cm.h **** #pragma diag_suppress=Pe550
 575:/usr/local/lib/ARM/CMSIS/5.4.0/CMSIS/RTOS2/RTX/Source/rtx_core_cm.h **** #endif
 576:/usr/local/lib/ARM/CMSIS/5.4.0/CMSIS/RTOS2/RTX/Source/rtx_core_cm.h ****   register uint32_t val, res;
 577:/usr/local/lib/ARM/CMSIS/5.4.0/CMSIS/RTOS2/RTX/Source/rtx_core_cm.h **** #ifdef  __ICCARM__
 578:/usr/local/lib/ARM/CMSIS/5.4.0/CMSIS/RTOS2/RTX/Source/rtx_core_cm.h **** #pragma diag_default=Pe550
 579:/usr/local/lib/ARM/CMSIS/5.4.0/CMSIS/RTOS2/RTX/Source/rtx_core_cm.h **** #endif
 580:/usr/local/lib/ARM/CMSIS/5.4.0/CMSIS/RTOS2/RTX/Source/rtx_core_cm.h ****   register uint32_t ret;
 581:/usr/local/lib/ARM/CMSIS/5.4.0/CMSIS/RTOS2/RTX/Source/rtx_core_cm.h **** 
 582:/usr/local/lib/ARM/CMSIS/5.4.0/CMSIS/RTOS2/RTX/Source/rtx_core_cm.h ****   __ASM volatile (
  93              		.loc 2 582 0
  94              		.syntax unified
  95              	@ 582 "/usr/local/lib/ARM/CMSIS/5.4.0/CMSIS/RTOS2/RTX/Source/rtx_core_cm.h" 1
  96              		.syntax unified
  97              		1:
  98 0006 53E8000F 		ldrex r0,[r3]
  99 000a 20EA0102 		bic   r2,r0,r1
 100 000e 43E80024 		strex r4,r2,[r3]
 101 0012 04B1     		cbz   r4,2f
 102 0014 F7E7     		b     1b
 103              	2:
 104              	@ 0 "" 2
 105              	.LVL5:
 106              		.thumb
 107              		.syntax unified
 108              	.LBE141:
 109              	.LBE140:
  86:/usr/local/lib/ARM/CMSIS/5.4.0/CMSIS/RTOS2/RTX/Source/rtx_evflags.c **** #endif
  87:/usr/local/lib/ARM/CMSIS/5.4.0/CMSIS/RTOS2/RTX/Source/rtx_evflags.c **** 
  88:/usr/local/lib/ARM/CMSIS/5.4.0/CMSIS/RTOS2/RTX/Source/rtx_evflags.c ****   return event_flags;
  89:/usr/local/lib/ARM/CMSIS/5.4.0/CMSIS/RTOS2/RTX/Source/rtx_evflags.c **** }
 110              		.loc 1 89 0
 111 0016 5DF8044B 		ldr	r4, [sp], #4
 112              	.LCFI3:
 113              		.cfi_restore 4
 114              		.cfi_def_cfa_offset 0
 115 001a 7047     		bx	lr
 116              		.cfi_endproc
 117              	.LFE175:
 119              		.section	.text.EventFlagsCheck,"ax",%progbits
 120              		.align	2
 121              		.thumb
 122              		.thumb_func
 124              	EventFlagsCheck:
 125              	.LFB176:
  90:/usr/local/lib/ARM/CMSIS/5.4.0/CMSIS/RTOS2/RTX/Source/rtx_evflags.c **** 
  91:/usr/local/lib/ARM/CMSIS/5.4.0/CMSIS/RTOS2/RTX/Source/rtx_evflags.c **** /// Check Event Flags.
  92:/usr/local/lib/ARM/CMSIS/5.4.0/CMSIS/RTOS2/RTX/Source/rtx_evflags.c **** /// \param[in]  ef              event flags object.
  93:/usr/local/lib/ARM/CMSIS/5.4.0/CMSIS/RTOS2/RTX/Source/rtx_evflags.c **** /// \param[in]  flags           specifies the flags to check.
  94:/usr/local/lib/ARM/CMSIS/5.4.0/CMSIS/RTOS2/RTX/Source/rtx_evflags.c **** /// \param[in]  options         specifies flags options (osFlagsXxxx).
  95:/usr/local/lib/ARM/CMSIS/5.4.0/CMSIS/RTOS2/RTX/Source/rtx_evflags.c **** /// \return event flags before clearing or 0 if specified flags have not been set.
  96:/usr/local/lib/ARM/CMSIS/5.4.0/CMSIS/RTOS2/RTX/Source/rtx_evflags.c **** static uint32_t EventFlagsCheck (os_event_flags_t *ef, uint32_t flags, uint32_t options) {
ARM GAS  /tmp/cc4RTizm.s 			page 15


 126              		.loc 1 96 0
 127              		.cfi_startproc
 128              		@ args = 0, pretend = 0, frame = 0
 129              		@ frame_needed = 0, uses_anonymous_args = 0
 130              		@ link register save eliminated.
 131              	.LVL6:
  97:/usr/local/lib/ARM/CMSIS/5.4.0/CMSIS/RTOS2/RTX/Source/rtx_evflags.c **** #if (EXCLUSIVE_ACCESS == 0)
  98:/usr/local/lib/ARM/CMSIS/5.4.0/CMSIS/RTOS2/RTX/Source/rtx_evflags.c ****   uint32_t primask;
  99:/usr/local/lib/ARM/CMSIS/5.4.0/CMSIS/RTOS2/RTX/Source/rtx_evflags.c **** #endif
 100:/usr/local/lib/ARM/CMSIS/5.4.0/CMSIS/RTOS2/RTX/Source/rtx_evflags.c ****   uint32_t event_flags;
 101:/usr/local/lib/ARM/CMSIS/5.4.0/CMSIS/RTOS2/RTX/Source/rtx_evflags.c **** 
 102:/usr/local/lib/ARM/CMSIS/5.4.0/CMSIS/RTOS2/RTX/Source/rtx_evflags.c ****   if ((options & osFlagsNoClear) == 0U) {
 132              		.loc 1 102 0
 133 0000 12F0020F 		tst	r2, #2
 134 0004 27D1     		bne	.L6
  96:/usr/local/lib/ARM/CMSIS/5.4.0/CMSIS/RTOS2/RTX/Source/rtx_evflags.c **** #if (EXCLUSIVE_ACCESS == 0)
 135              		.loc 1 96 0
 136 0006 10B4     		push	{r4}
 137              	.LCFI4:
 138              		.cfi_def_cfa_offset 4
 139              		.cfi_offset 4, -4
 103:/usr/local/lib/ARM/CMSIS/5.4.0/CMSIS/RTOS2/RTX/Source/rtx_evflags.c **** #if (EXCLUSIVE_ACCESS == 0)
 104:/usr/local/lib/ARM/CMSIS/5.4.0/CMSIS/RTOS2/RTX/Source/rtx_evflags.c ****     primask = __get_PRIMASK();
 105:/usr/local/lib/ARM/CMSIS/5.4.0/CMSIS/RTOS2/RTX/Source/rtx_evflags.c ****     __disable_irq();
 106:/usr/local/lib/ARM/CMSIS/5.4.0/CMSIS/RTOS2/RTX/Source/rtx_evflags.c **** 
 107:/usr/local/lib/ARM/CMSIS/5.4.0/CMSIS/RTOS2/RTX/Source/rtx_evflags.c ****     event_flags = ef->event_flags;
 108:/usr/local/lib/ARM/CMSIS/5.4.0/CMSIS/RTOS2/RTX/Source/rtx_evflags.c ****     if ((((options & osFlagsWaitAll) != 0U) && ((event_flags & flags) != flags)) ||
 109:/usr/local/lib/ARM/CMSIS/5.4.0/CMSIS/RTOS2/RTX/Source/rtx_evflags.c ****         (((options & osFlagsWaitAll) == 0U) && ((event_flags & flags) == 0U))) {
 110:/usr/local/lib/ARM/CMSIS/5.4.0/CMSIS/RTOS2/RTX/Source/rtx_evflags.c ****       event_flags = 0U;
 111:/usr/local/lib/ARM/CMSIS/5.4.0/CMSIS/RTOS2/RTX/Source/rtx_evflags.c ****     } else {
 112:/usr/local/lib/ARM/CMSIS/5.4.0/CMSIS/RTOS2/RTX/Source/rtx_evflags.c ****       ef->event_flags &= ~flags;
 113:/usr/local/lib/ARM/CMSIS/5.4.0/CMSIS/RTOS2/RTX/Source/rtx_evflags.c ****     }
 114:/usr/local/lib/ARM/CMSIS/5.4.0/CMSIS/RTOS2/RTX/Source/rtx_evflags.c **** 
 115:/usr/local/lib/ARM/CMSIS/5.4.0/CMSIS/RTOS2/RTX/Source/rtx_evflags.c ****     if (primask == 0U) {
 116:/usr/local/lib/ARM/CMSIS/5.4.0/CMSIS/RTOS2/RTX/Source/rtx_evflags.c ****       __enable_irq();
 117:/usr/local/lib/ARM/CMSIS/5.4.0/CMSIS/RTOS2/RTX/Source/rtx_evflags.c ****     }
 118:/usr/local/lib/ARM/CMSIS/5.4.0/CMSIS/RTOS2/RTX/Source/rtx_evflags.c **** #else
 119:/usr/local/lib/ARM/CMSIS/5.4.0/CMSIS/RTOS2/RTX/Source/rtx_evflags.c ****     if ((options & osFlagsWaitAll) != 0U) {
 140              		.loc 1 119 0
 141 0008 12F0010F 		tst	r2, #1
 142 000c 12D0     		beq	.L7
 120:/usr/local/lib/ARM/CMSIS/5.4.0/CMSIS/RTOS2/RTX/Source/rtx_evflags.c ****       event_flags = atomic_chk32_all(&ef->event_flags, flags);
 143              		.loc 1 120 0
 144 000e 00F10C03 		add	r3, r0, #12
 145              	.LVL7:
 146              	.LBB142:
 147              	.LBB143:
 583:/usr/local/lib/ARM/CMSIS/5.4.0/CMSIS/RTOS2/RTX/Source/rtx_core_cm.h **** #ifndef __ICCARM__
 584:/usr/local/lib/ARM/CMSIS/5.4.0/CMSIS/RTOS2/RTX/Source/rtx_core_cm.h ****   ".syntax unified\n\t"
 585:/usr/local/lib/ARM/CMSIS/5.4.0/CMSIS/RTOS2/RTX/Source/rtx_core_cm.h **** #endif
 586:/usr/local/lib/ARM/CMSIS/5.4.0/CMSIS/RTOS2/RTX/Source/rtx_core_cm.h ****   "1:\n\t"
 587:/usr/local/lib/ARM/CMSIS/5.4.0/CMSIS/RTOS2/RTX/Source/rtx_core_cm.h ****     "ldrex %[ret],[%[mem]]\n\t"
 588:/usr/local/lib/ARM/CMSIS/5.4.0/CMSIS/RTOS2/RTX/Source/rtx_core_cm.h **** #if (defined(__ARM_ARCH_8M_BASE__) && (__ARM_ARCH_8M_BASE__ != 0))
 589:/usr/local/lib/ARM/CMSIS/5.4.0/CMSIS/RTOS2/RTX/Source/rtx_core_cm.h ****     "mov   %[val],%[ret]\n\t"
 590:/usr/local/lib/ARM/CMSIS/5.4.0/CMSIS/RTOS2/RTX/Source/rtx_core_cm.h ****     "bics  %[val],%[bits]\n\t"
 591:/usr/local/lib/ARM/CMSIS/5.4.0/CMSIS/RTOS2/RTX/Source/rtx_core_cm.h **** #else
 592:/usr/local/lib/ARM/CMSIS/5.4.0/CMSIS/RTOS2/RTX/Source/rtx_core_cm.h ****     "bic   %[val],%[ret],%[bits]\n\t"
ARM GAS  /tmp/cc4RTizm.s 			page 16


 593:/usr/local/lib/ARM/CMSIS/5.4.0/CMSIS/RTOS2/RTX/Source/rtx_core_cm.h **** #endif
 594:/usr/local/lib/ARM/CMSIS/5.4.0/CMSIS/RTOS2/RTX/Source/rtx_core_cm.h ****     "strex %[res],%[val],[%[mem]]\n\t"
 595:/usr/local/lib/ARM/CMSIS/5.4.0/CMSIS/RTOS2/RTX/Source/rtx_core_cm.h ****     "cbz   %[res],2f\n\t"
 596:/usr/local/lib/ARM/CMSIS/5.4.0/CMSIS/RTOS2/RTX/Source/rtx_core_cm.h ****     "b     1b\n"
 597:/usr/local/lib/ARM/CMSIS/5.4.0/CMSIS/RTOS2/RTX/Source/rtx_core_cm.h ****   "2:"
 598:/usr/local/lib/ARM/CMSIS/5.4.0/CMSIS/RTOS2/RTX/Source/rtx_core_cm.h ****   : [ret]  "=&l" (ret),
 599:/usr/local/lib/ARM/CMSIS/5.4.0/CMSIS/RTOS2/RTX/Source/rtx_core_cm.h ****     [val]  "=&l" (val),
 600:/usr/local/lib/ARM/CMSIS/5.4.0/CMSIS/RTOS2/RTX/Source/rtx_core_cm.h ****     [res]  "=&l" (res)
 601:/usr/local/lib/ARM/CMSIS/5.4.0/CMSIS/RTOS2/RTX/Source/rtx_core_cm.h ****   : [mem]  "l"   (mem),
 602:/usr/local/lib/ARM/CMSIS/5.4.0/CMSIS/RTOS2/RTX/Source/rtx_core_cm.h ****     [bits] "l"   (bits)
 603:/usr/local/lib/ARM/CMSIS/5.4.0/CMSIS/RTOS2/RTX/Source/rtx_core_cm.h **** #if (defined(__ARM_ARCH_8M_BASE__) && (__ARM_ARCH_8M_BASE__ != 0))
 604:/usr/local/lib/ARM/CMSIS/5.4.0/CMSIS/RTOS2/RTX/Source/rtx_core_cm.h ****   : "memory", "cc"
 605:/usr/local/lib/ARM/CMSIS/5.4.0/CMSIS/RTOS2/RTX/Source/rtx_core_cm.h **** #else
 606:/usr/local/lib/ARM/CMSIS/5.4.0/CMSIS/RTOS2/RTX/Source/rtx_core_cm.h ****   : "memory"
 607:/usr/local/lib/ARM/CMSIS/5.4.0/CMSIS/RTOS2/RTX/Source/rtx_core_cm.h **** #endif
 608:/usr/local/lib/ARM/CMSIS/5.4.0/CMSIS/RTOS2/RTX/Source/rtx_core_cm.h ****   );
 609:/usr/local/lib/ARM/CMSIS/5.4.0/CMSIS/RTOS2/RTX/Source/rtx_core_cm.h **** 
 610:/usr/local/lib/ARM/CMSIS/5.4.0/CMSIS/RTOS2/RTX/Source/rtx_core_cm.h ****   return ret;
 611:/usr/local/lib/ARM/CMSIS/5.4.0/CMSIS/RTOS2/RTX/Source/rtx_core_cm.h **** }
 612:/usr/local/lib/ARM/CMSIS/5.4.0/CMSIS/RTOS2/RTX/Source/rtx_core_cm.h **** #endif
 613:/usr/local/lib/ARM/CMSIS/5.4.0/CMSIS/RTOS2/RTX/Source/rtx_core_cm.h **** 
 614:/usr/local/lib/ARM/CMSIS/5.4.0/CMSIS/RTOS2/RTX/Source/rtx_core_cm.h **** /// Atomic Access Operation: Check if all specified bits (32-bit) are active and clear them
 615:/usr/local/lib/ARM/CMSIS/5.4.0/CMSIS/RTOS2/RTX/Source/rtx_core_cm.h **** /// \param[in]  mem             Memory address
 616:/usr/local/lib/ARM/CMSIS/5.4.0/CMSIS/RTOS2/RTX/Source/rtx_core_cm.h **** /// \param[in]  bits            Bit mask
 617:/usr/local/lib/ARM/CMSIS/5.4.0/CMSIS/RTOS2/RTX/Source/rtx_core_cm.h **** /// \return                     Active bits before clearing or 0 if not active
 618:/usr/local/lib/ARM/CMSIS/5.4.0/CMSIS/RTOS2/RTX/Source/rtx_core_cm.h **** #if defined(__CC_ARM)
 619:/usr/local/lib/ARM/CMSIS/5.4.0/CMSIS/RTOS2/RTX/Source/rtx_core_cm.h **** static __asm    uint32_t atomic_chk32_all (uint32_t *mem, uint32_t bits) {
 620:/usr/local/lib/ARM/CMSIS/5.4.0/CMSIS/RTOS2/RTX/Source/rtx_core_cm.h ****   push  {r4,lr}
 621:/usr/local/lib/ARM/CMSIS/5.4.0/CMSIS/RTOS2/RTX/Source/rtx_core_cm.h ****   mov   r2,r0
 622:/usr/local/lib/ARM/CMSIS/5.4.0/CMSIS/RTOS2/RTX/Source/rtx_core_cm.h **** 1
 623:/usr/local/lib/ARM/CMSIS/5.4.0/CMSIS/RTOS2/RTX/Source/rtx_core_cm.h ****   ldrex r0,[r2]
 624:/usr/local/lib/ARM/CMSIS/5.4.0/CMSIS/RTOS2/RTX/Source/rtx_core_cm.h ****   and   r4,r0,r1
 625:/usr/local/lib/ARM/CMSIS/5.4.0/CMSIS/RTOS2/RTX/Source/rtx_core_cm.h ****   cmp   r4,r1
 626:/usr/local/lib/ARM/CMSIS/5.4.0/CMSIS/RTOS2/RTX/Source/rtx_core_cm.h ****   beq   %F2
 627:/usr/local/lib/ARM/CMSIS/5.4.0/CMSIS/RTOS2/RTX/Source/rtx_core_cm.h ****   clrex
 628:/usr/local/lib/ARM/CMSIS/5.4.0/CMSIS/RTOS2/RTX/Source/rtx_core_cm.h ****   movs  r0,#0
 629:/usr/local/lib/ARM/CMSIS/5.4.0/CMSIS/RTOS2/RTX/Source/rtx_core_cm.h ****   pop   {r4,pc}
 630:/usr/local/lib/ARM/CMSIS/5.4.0/CMSIS/RTOS2/RTX/Source/rtx_core_cm.h **** 2
 631:/usr/local/lib/ARM/CMSIS/5.4.0/CMSIS/RTOS2/RTX/Source/rtx_core_cm.h ****   bic   r4,r0,r1
 632:/usr/local/lib/ARM/CMSIS/5.4.0/CMSIS/RTOS2/RTX/Source/rtx_core_cm.h ****   strex r3,r4,[r2]
 633:/usr/local/lib/ARM/CMSIS/5.4.0/CMSIS/RTOS2/RTX/Source/rtx_core_cm.h ****   cbz   r3,%F3
 634:/usr/local/lib/ARM/CMSIS/5.4.0/CMSIS/RTOS2/RTX/Source/rtx_core_cm.h ****   b     %B1
 635:/usr/local/lib/ARM/CMSIS/5.4.0/CMSIS/RTOS2/RTX/Source/rtx_core_cm.h **** 3
 636:/usr/local/lib/ARM/CMSIS/5.4.0/CMSIS/RTOS2/RTX/Source/rtx_core_cm.h ****   pop   {r4,pc}
 637:/usr/local/lib/ARM/CMSIS/5.4.0/CMSIS/RTOS2/RTX/Source/rtx_core_cm.h **** }
 638:/usr/local/lib/ARM/CMSIS/5.4.0/CMSIS/RTOS2/RTX/Source/rtx_core_cm.h **** #else
 639:/usr/local/lib/ARM/CMSIS/5.4.0/CMSIS/RTOS2/RTX/Source/rtx_core_cm.h **** __STATIC_INLINE uint32_t atomic_chk32_all (uint32_t *mem, uint32_t bits) {
 640:/usr/local/lib/ARM/CMSIS/5.4.0/CMSIS/RTOS2/RTX/Source/rtx_core_cm.h **** #ifdef  __ICCARM__
 641:/usr/local/lib/ARM/CMSIS/5.4.0/CMSIS/RTOS2/RTX/Source/rtx_core_cm.h **** #pragma diag_suppress=Pe550
 642:/usr/local/lib/ARM/CMSIS/5.4.0/CMSIS/RTOS2/RTX/Source/rtx_core_cm.h **** #endif
 643:/usr/local/lib/ARM/CMSIS/5.4.0/CMSIS/RTOS2/RTX/Source/rtx_core_cm.h ****   register uint32_t val, res;
 644:/usr/local/lib/ARM/CMSIS/5.4.0/CMSIS/RTOS2/RTX/Source/rtx_core_cm.h **** #ifdef  __ICCARM__
 645:/usr/local/lib/ARM/CMSIS/5.4.0/CMSIS/RTOS2/RTX/Source/rtx_core_cm.h **** #pragma diag_default=Pe550
 646:/usr/local/lib/ARM/CMSIS/5.4.0/CMSIS/RTOS2/RTX/Source/rtx_core_cm.h **** #endif
 647:/usr/local/lib/ARM/CMSIS/5.4.0/CMSIS/RTOS2/RTX/Source/rtx_core_cm.h ****   register uint32_t ret;
 648:/usr/local/lib/ARM/CMSIS/5.4.0/CMSIS/RTOS2/RTX/Source/rtx_core_cm.h **** 
 649:/usr/local/lib/ARM/CMSIS/5.4.0/CMSIS/RTOS2/RTX/Source/rtx_core_cm.h ****   __ASM volatile (
ARM GAS  /tmp/cc4RTizm.s 			page 17


 148              		.loc 2 649 0
 149              		.syntax unified
 150              	@ 649 "/usr/local/lib/ARM/CMSIS/5.4.0/CMSIS/RTOS2/RTX/Source/rtx_core_cm.h" 1
 151              		.syntax unified
 152              		1:
 153 0012 53E8000F 		ldrex r0,[r3]
 154 0016 00EA0102 		and   r2,r0,r1
 155 001a 8A42     		cmp   r2,r1
 156 001c 03D0     		beq   2f
 157 001e BFF32F8F 		clrex
 158 0022 0020     		movs  r0,#0
 159 0024 05E0     		b     3f
 160              	2:
 161 0026 20EA0102 		bic   r2,r0,r1
 162 002a 43E80024 		strex r4,r2,[r3]
 163 002e 04B1     		cbz   r4,3f
 164 0030 EFE7     		b     1b
 165              	3:
 166              	@ 0 "" 2
 167              	.LVL8:
 168              		.thumb
 169              		.syntax unified
 170              	.LBE143:
 171              	.LBE142:
 172 0032 1FE0     		b	.L8
 173              	.LVL9:
 174              	.L7:
 121:/usr/local/lib/ARM/CMSIS/5.4.0/CMSIS/RTOS2/RTX/Source/rtx_evflags.c ****     } else {
 122:/usr/local/lib/ARM/CMSIS/5.4.0/CMSIS/RTOS2/RTX/Source/rtx_evflags.c ****       event_flags = atomic_chk32_any(&ef->event_flags, flags);
 175              		.loc 1 122 0
 176 0034 00F10C03 		add	r3, r0, #12
 177              	.LVL10:
 178              	.LBB144:
 179              	.LBB145:
 650:/usr/local/lib/ARM/CMSIS/5.4.0/CMSIS/RTOS2/RTX/Source/rtx_core_cm.h **** #ifndef __ICCARM__
 651:/usr/local/lib/ARM/CMSIS/5.4.0/CMSIS/RTOS2/RTX/Source/rtx_core_cm.h ****   ".syntax unified\n\t"
 652:/usr/local/lib/ARM/CMSIS/5.4.0/CMSIS/RTOS2/RTX/Source/rtx_core_cm.h **** #endif
 653:/usr/local/lib/ARM/CMSIS/5.4.0/CMSIS/RTOS2/RTX/Source/rtx_core_cm.h ****   "1:\n\t"
 654:/usr/local/lib/ARM/CMSIS/5.4.0/CMSIS/RTOS2/RTX/Source/rtx_core_cm.h ****     "ldrex %[ret],[%[mem]]\n\t"
 655:/usr/local/lib/ARM/CMSIS/5.4.0/CMSIS/RTOS2/RTX/Source/rtx_core_cm.h **** #if (defined(__ARM_ARCH_8M_BASE__) && (__ARM_ARCH_8M_BASE__ != 0))
 656:/usr/local/lib/ARM/CMSIS/5.4.0/CMSIS/RTOS2/RTX/Source/rtx_core_cm.h ****     "mov   %[val],%[ret]\n\t"
 657:/usr/local/lib/ARM/CMSIS/5.4.0/CMSIS/RTOS2/RTX/Source/rtx_core_cm.h ****     "ands  %[val],%[bits]\n\t"
 658:/usr/local/lib/ARM/CMSIS/5.4.0/CMSIS/RTOS2/RTX/Source/rtx_core_cm.h **** #else
 659:/usr/local/lib/ARM/CMSIS/5.4.0/CMSIS/RTOS2/RTX/Source/rtx_core_cm.h ****     "and   %[val],%[ret],%[bits]\n\t"
 660:/usr/local/lib/ARM/CMSIS/5.4.0/CMSIS/RTOS2/RTX/Source/rtx_core_cm.h **** #endif
 661:/usr/local/lib/ARM/CMSIS/5.4.0/CMSIS/RTOS2/RTX/Source/rtx_core_cm.h ****     "cmp   %[val],%[bits]\n\t"
 662:/usr/local/lib/ARM/CMSIS/5.4.0/CMSIS/RTOS2/RTX/Source/rtx_core_cm.h ****     "beq   2f\n\t"
 663:/usr/local/lib/ARM/CMSIS/5.4.0/CMSIS/RTOS2/RTX/Source/rtx_core_cm.h ****     "clrex\n\t"
 664:/usr/local/lib/ARM/CMSIS/5.4.0/CMSIS/RTOS2/RTX/Source/rtx_core_cm.h ****     "movs  %[ret],#0\n\t"
 665:/usr/local/lib/ARM/CMSIS/5.4.0/CMSIS/RTOS2/RTX/Source/rtx_core_cm.h ****     "b     3f\n"
 666:/usr/local/lib/ARM/CMSIS/5.4.0/CMSIS/RTOS2/RTX/Source/rtx_core_cm.h ****   "2:\n\t"
 667:/usr/local/lib/ARM/CMSIS/5.4.0/CMSIS/RTOS2/RTX/Source/rtx_core_cm.h **** #if (defined(__ARM_ARCH_8M_BASE__) && (__ARM_ARCH_8M_BASE__ != 0))
 668:/usr/local/lib/ARM/CMSIS/5.4.0/CMSIS/RTOS2/RTX/Source/rtx_core_cm.h ****     "mov   %[val],%[ret]\n\t"
 669:/usr/local/lib/ARM/CMSIS/5.4.0/CMSIS/RTOS2/RTX/Source/rtx_core_cm.h ****     "bics  %[val],%[bits]\n\t"
 670:/usr/local/lib/ARM/CMSIS/5.4.0/CMSIS/RTOS2/RTX/Source/rtx_core_cm.h **** #else
 671:/usr/local/lib/ARM/CMSIS/5.4.0/CMSIS/RTOS2/RTX/Source/rtx_core_cm.h ****     "bic   %[val],%[ret],%[bits]\n\t"
 672:/usr/local/lib/ARM/CMSIS/5.4.0/CMSIS/RTOS2/RTX/Source/rtx_core_cm.h **** #endif
ARM GAS  /tmp/cc4RTizm.s 			page 18


 673:/usr/local/lib/ARM/CMSIS/5.4.0/CMSIS/RTOS2/RTX/Source/rtx_core_cm.h ****     "strex %[res],%[val],[%[mem]]\n\t"
 674:/usr/local/lib/ARM/CMSIS/5.4.0/CMSIS/RTOS2/RTX/Source/rtx_core_cm.h ****     "cbz   %[res],3f\n\t"
 675:/usr/local/lib/ARM/CMSIS/5.4.0/CMSIS/RTOS2/RTX/Source/rtx_core_cm.h ****     "b     1b\n"
 676:/usr/local/lib/ARM/CMSIS/5.4.0/CMSIS/RTOS2/RTX/Source/rtx_core_cm.h ****   "3:"
 677:/usr/local/lib/ARM/CMSIS/5.4.0/CMSIS/RTOS2/RTX/Source/rtx_core_cm.h ****   : [ret]  "=&l" (ret),
 678:/usr/local/lib/ARM/CMSIS/5.4.0/CMSIS/RTOS2/RTX/Source/rtx_core_cm.h ****     [val]  "=&l" (val),
 679:/usr/local/lib/ARM/CMSIS/5.4.0/CMSIS/RTOS2/RTX/Source/rtx_core_cm.h ****     [res]  "=&l" (res)
 680:/usr/local/lib/ARM/CMSIS/5.4.0/CMSIS/RTOS2/RTX/Source/rtx_core_cm.h ****   : [mem]  "l"   (mem),
 681:/usr/local/lib/ARM/CMSIS/5.4.0/CMSIS/RTOS2/RTX/Source/rtx_core_cm.h ****     [bits] "l"   (bits)
 682:/usr/local/lib/ARM/CMSIS/5.4.0/CMSIS/RTOS2/RTX/Source/rtx_core_cm.h ****   : "cc", "memory"
 683:/usr/local/lib/ARM/CMSIS/5.4.0/CMSIS/RTOS2/RTX/Source/rtx_core_cm.h ****   );
 684:/usr/local/lib/ARM/CMSIS/5.4.0/CMSIS/RTOS2/RTX/Source/rtx_core_cm.h **** 
 685:/usr/local/lib/ARM/CMSIS/5.4.0/CMSIS/RTOS2/RTX/Source/rtx_core_cm.h ****   return ret;
 686:/usr/local/lib/ARM/CMSIS/5.4.0/CMSIS/RTOS2/RTX/Source/rtx_core_cm.h **** }
 687:/usr/local/lib/ARM/CMSIS/5.4.0/CMSIS/RTOS2/RTX/Source/rtx_core_cm.h **** #endif
 688:/usr/local/lib/ARM/CMSIS/5.4.0/CMSIS/RTOS2/RTX/Source/rtx_core_cm.h **** 
 689:/usr/local/lib/ARM/CMSIS/5.4.0/CMSIS/RTOS2/RTX/Source/rtx_core_cm.h **** /// Atomic Access Operation: Check if any specified bits (32-bit) are active and clear them
 690:/usr/local/lib/ARM/CMSIS/5.4.0/CMSIS/RTOS2/RTX/Source/rtx_core_cm.h **** /// \param[in]  mem             Memory address
 691:/usr/local/lib/ARM/CMSIS/5.4.0/CMSIS/RTOS2/RTX/Source/rtx_core_cm.h **** /// \param[in]  bits            Bit mask
 692:/usr/local/lib/ARM/CMSIS/5.4.0/CMSIS/RTOS2/RTX/Source/rtx_core_cm.h **** /// \return                     Active bits before clearing or 0 if not active
 693:/usr/local/lib/ARM/CMSIS/5.4.0/CMSIS/RTOS2/RTX/Source/rtx_core_cm.h **** #if defined(__CC_ARM)
 694:/usr/local/lib/ARM/CMSIS/5.4.0/CMSIS/RTOS2/RTX/Source/rtx_core_cm.h **** static __asm    uint32_t atomic_chk32_any (uint32_t *mem, uint32_t bits) {
 695:/usr/local/lib/ARM/CMSIS/5.4.0/CMSIS/RTOS2/RTX/Source/rtx_core_cm.h ****   push  {r4,lr}
 696:/usr/local/lib/ARM/CMSIS/5.4.0/CMSIS/RTOS2/RTX/Source/rtx_core_cm.h ****   mov   r2,r0
 697:/usr/local/lib/ARM/CMSIS/5.4.0/CMSIS/RTOS2/RTX/Source/rtx_core_cm.h **** 1
 698:/usr/local/lib/ARM/CMSIS/5.4.0/CMSIS/RTOS2/RTX/Source/rtx_core_cm.h ****   ldrex r0,[r2]
 699:/usr/local/lib/ARM/CMSIS/5.4.0/CMSIS/RTOS2/RTX/Source/rtx_core_cm.h ****   tst   r0,r1
 700:/usr/local/lib/ARM/CMSIS/5.4.0/CMSIS/RTOS2/RTX/Source/rtx_core_cm.h ****   bne   %F2
 701:/usr/local/lib/ARM/CMSIS/5.4.0/CMSIS/RTOS2/RTX/Source/rtx_core_cm.h ****   clrex
 702:/usr/local/lib/ARM/CMSIS/5.4.0/CMSIS/RTOS2/RTX/Source/rtx_core_cm.h ****   movs  r0,#0
 703:/usr/local/lib/ARM/CMSIS/5.4.0/CMSIS/RTOS2/RTX/Source/rtx_core_cm.h ****   pop   {r4,pc}
 704:/usr/local/lib/ARM/CMSIS/5.4.0/CMSIS/RTOS2/RTX/Source/rtx_core_cm.h **** 2
 705:/usr/local/lib/ARM/CMSIS/5.4.0/CMSIS/RTOS2/RTX/Source/rtx_core_cm.h ****   bic   r4,r0,r1
 706:/usr/local/lib/ARM/CMSIS/5.4.0/CMSIS/RTOS2/RTX/Source/rtx_core_cm.h ****   strex r3,r4,[r2]
 707:/usr/local/lib/ARM/CMSIS/5.4.0/CMSIS/RTOS2/RTX/Source/rtx_core_cm.h ****   cbz   r3,%F3
 708:/usr/local/lib/ARM/CMSIS/5.4.0/CMSIS/RTOS2/RTX/Source/rtx_core_cm.h ****   b     %B1
 709:/usr/local/lib/ARM/CMSIS/5.4.0/CMSIS/RTOS2/RTX/Source/rtx_core_cm.h **** 3
 710:/usr/local/lib/ARM/CMSIS/5.4.0/CMSIS/RTOS2/RTX/Source/rtx_core_cm.h ****   pop   {r4,pc}
 711:/usr/local/lib/ARM/CMSIS/5.4.0/CMSIS/RTOS2/RTX/Source/rtx_core_cm.h **** }
 712:/usr/local/lib/ARM/CMSIS/5.4.0/CMSIS/RTOS2/RTX/Source/rtx_core_cm.h **** #else
 713:/usr/local/lib/ARM/CMSIS/5.4.0/CMSIS/RTOS2/RTX/Source/rtx_core_cm.h **** __STATIC_INLINE uint32_t atomic_chk32_any (uint32_t *mem, uint32_t bits) {
 714:/usr/local/lib/ARM/CMSIS/5.4.0/CMSIS/RTOS2/RTX/Source/rtx_core_cm.h **** #ifdef  __ICCARM__
 715:/usr/local/lib/ARM/CMSIS/5.4.0/CMSIS/RTOS2/RTX/Source/rtx_core_cm.h **** #pragma diag_suppress=Pe550
 716:/usr/local/lib/ARM/CMSIS/5.4.0/CMSIS/RTOS2/RTX/Source/rtx_core_cm.h **** #endif
 717:/usr/local/lib/ARM/CMSIS/5.4.0/CMSIS/RTOS2/RTX/Source/rtx_core_cm.h ****   register uint32_t val, res;
 718:/usr/local/lib/ARM/CMSIS/5.4.0/CMSIS/RTOS2/RTX/Source/rtx_core_cm.h **** #ifdef  __ICCARM__
 719:/usr/local/lib/ARM/CMSIS/5.4.0/CMSIS/RTOS2/RTX/Source/rtx_core_cm.h **** #pragma diag_default=Pe550
 720:/usr/local/lib/ARM/CMSIS/5.4.0/CMSIS/RTOS2/RTX/Source/rtx_core_cm.h **** #endif
 721:/usr/local/lib/ARM/CMSIS/5.4.0/CMSIS/RTOS2/RTX/Source/rtx_core_cm.h ****   register uint32_t ret;
 722:/usr/local/lib/ARM/CMSIS/5.4.0/CMSIS/RTOS2/RTX/Source/rtx_core_cm.h **** 
 723:/usr/local/lib/ARM/CMSIS/5.4.0/CMSIS/RTOS2/RTX/Source/rtx_core_cm.h ****   __ASM volatile (
 180              		.loc 2 723 0
 181              		.syntax unified
 182              	@ 723 "/usr/local/lib/ARM/CMSIS/5.4.0/CMSIS/RTOS2/RTX/Source/rtx_core_cm.h" 1
 183              		.syntax unified
 184              		1:
 185 0038 53E8000F 		ldrex r0,[r3]
ARM GAS  /tmp/cc4RTizm.s 			page 19


 186 003c 0842     		tst   r0,r1
 187 003e 03D1     		bne   2f
 188 0040 BFF32F8F 		clrex
 189 0044 0020     		movs  r0,#0
 190 0046 05E0     		b     3f
 191              	2:
 192 0048 20EA0102 		bic   r2,r0,r1
 193 004c 43E80024 		strex r4,r2,[r3]
 194 0050 04B1     		cbz   r4,3f
 195 0052 F1E7     		b     1b
 196              	3:
 197              	@ 0 "" 2
 198              	.LVL11:
 199              		.thumb
 200              		.syntax unified
 201 0054 0EE0     		b	.L8
 202              	.LVL12:
 203              	.L6:
 204              	.LCFI5:
 205              		.cfi_def_cfa_offset 0
 206              		.cfi_restore 4
 207              	.LBE145:
 208              	.LBE144:
 123:/usr/local/lib/ARM/CMSIS/5.4.0/CMSIS/RTOS2/RTX/Source/rtx_evflags.c ****     }
 124:/usr/local/lib/ARM/CMSIS/5.4.0/CMSIS/RTOS2/RTX/Source/rtx_evflags.c **** #endif
 125:/usr/local/lib/ARM/CMSIS/5.4.0/CMSIS/RTOS2/RTX/Source/rtx_evflags.c ****   } else {
 126:/usr/local/lib/ARM/CMSIS/5.4.0/CMSIS/RTOS2/RTX/Source/rtx_evflags.c ****     event_flags = ef->event_flags;
 209              		.loc 1 126 0
 210 0056 C068     		ldr	r0, [r0, #12]
 211              	.LVL13:
 127:/usr/local/lib/ARM/CMSIS/5.4.0/CMSIS/RTOS2/RTX/Source/rtx_evflags.c ****     if ((((options & osFlagsWaitAll) != 0U) && ((event_flags & flags) != flags)) ||
 212              		.loc 1 127 0
 213 0058 12F00102 		ands	r2, r2, #1
 214              	.LVL14:
 215 005c 02D0     		beq	.L9
 216              		.loc 1 127 0 is_stmt 0 discriminator 1
 217 005e 31EA0003 		bics	r3, r1, r0
 218 0062 03D1     		bne	.L10
 219              	.L9:
 220              		.loc 1 127 0 discriminator 3
 221 0064 42B9     		cbnz	r2, .L14
 128:/usr/local/lib/ARM/CMSIS/5.4.0/CMSIS/RTOS2/RTX/Source/rtx_evflags.c ****         (((options & osFlagsWaitAll) == 0U) && ((event_flags & flags) == 0U))) {
 222              		.loc 1 128 0 is_stmt 1
 223 0066 0142     		tst	r1, r0
 224 0068 02D0     		beq	.L11
 225 006a 7047     		bx	lr
 226              	.L10:
 129:/usr/local/lib/ARM/CMSIS/5.4.0/CMSIS/RTOS2/RTX/Source/rtx_evflags.c ****       event_flags = 0U;
 227              		.loc 1 129 0
 228 006c 0020     		movs	r0, #0
 229              	.LVL15:
 230 006e 7047     		bx	lr
 231              	.LVL16:
 232              	.L11:
 233 0070 0020     		movs	r0, #0
 234              	.LVL17:
 235 0072 7047     		bx	lr
ARM GAS  /tmp/cc4RTizm.s 			page 20


 236              	.LVL18:
 237              	.L8:
 238              	.LCFI6:
 239              		.cfi_def_cfa_offset 4
 240              		.cfi_offset 4, -4
 130:/usr/local/lib/ARM/CMSIS/5.4.0/CMSIS/RTOS2/RTX/Source/rtx_evflags.c ****     }
 131:/usr/local/lib/ARM/CMSIS/5.4.0/CMSIS/RTOS2/RTX/Source/rtx_evflags.c ****   }
 132:/usr/local/lib/ARM/CMSIS/5.4.0/CMSIS/RTOS2/RTX/Source/rtx_evflags.c **** 
 133:/usr/local/lib/ARM/CMSIS/5.4.0/CMSIS/RTOS2/RTX/Source/rtx_evflags.c ****   return event_flags;
 134:/usr/local/lib/ARM/CMSIS/5.4.0/CMSIS/RTOS2/RTX/Source/rtx_evflags.c **** }
 241              		.loc 1 134 0
 242 0074 5DF8044B 		ldr	r4, [sp], #4
 243              	.LCFI7:
 244              		.cfi_restore 4
 245              		.cfi_def_cfa_offset 0
 246              	.L14:
 247 0078 7047     		bx	lr
 248              		.cfi_endproc
 249              	.LFE176:
 251 007a 00BF     		.section	.text.svcRtxEventFlagsNew,"ax",%progbits
 252              		.align	2
 253              		.thumb
 254              		.thumb_func
 256              	svcRtxEventFlagsNew:
 257              	.LFB178:
 135:/usr/local/lib/ARM/CMSIS/5.4.0/CMSIS/RTOS2/RTX/Source/rtx_evflags.c **** 
 136:/usr/local/lib/ARM/CMSIS/5.4.0/CMSIS/RTOS2/RTX/Source/rtx_evflags.c **** 
 137:/usr/local/lib/ARM/CMSIS/5.4.0/CMSIS/RTOS2/RTX/Source/rtx_evflags.c **** //  ==== Post ISR processing ====
 138:/usr/local/lib/ARM/CMSIS/5.4.0/CMSIS/RTOS2/RTX/Source/rtx_evflags.c **** 
 139:/usr/local/lib/ARM/CMSIS/5.4.0/CMSIS/RTOS2/RTX/Source/rtx_evflags.c **** /// Event Flags post ISR processing.
 140:/usr/local/lib/ARM/CMSIS/5.4.0/CMSIS/RTOS2/RTX/Source/rtx_evflags.c **** /// \param[in]  ef              event flags object.
 141:/usr/local/lib/ARM/CMSIS/5.4.0/CMSIS/RTOS2/RTX/Source/rtx_evflags.c **** static void osRtxEventFlagsPostProcess (os_event_flags_t *ef) {
 142:/usr/local/lib/ARM/CMSIS/5.4.0/CMSIS/RTOS2/RTX/Source/rtx_evflags.c ****   os_thread_t *thread;
 143:/usr/local/lib/ARM/CMSIS/5.4.0/CMSIS/RTOS2/RTX/Source/rtx_evflags.c ****   os_thread_t *thread_next;
 144:/usr/local/lib/ARM/CMSIS/5.4.0/CMSIS/RTOS2/RTX/Source/rtx_evflags.c ****   uint32_t     event_flags;
 145:/usr/local/lib/ARM/CMSIS/5.4.0/CMSIS/RTOS2/RTX/Source/rtx_evflags.c **** 
 146:/usr/local/lib/ARM/CMSIS/5.4.0/CMSIS/RTOS2/RTX/Source/rtx_evflags.c ****   // Check if Threads are waiting for Event Flags
 147:/usr/local/lib/ARM/CMSIS/5.4.0/CMSIS/RTOS2/RTX/Source/rtx_evflags.c ****   thread = ef->thread_list;
 148:/usr/local/lib/ARM/CMSIS/5.4.0/CMSIS/RTOS2/RTX/Source/rtx_evflags.c ****   while (thread != NULL) {
 149:/usr/local/lib/ARM/CMSIS/5.4.0/CMSIS/RTOS2/RTX/Source/rtx_evflags.c ****     thread_next = thread->thread_next;
 150:/usr/local/lib/ARM/CMSIS/5.4.0/CMSIS/RTOS2/RTX/Source/rtx_evflags.c ****     event_flags = EventFlagsCheck(ef, thread->wait_flags, thread->flags_options);
 151:/usr/local/lib/ARM/CMSIS/5.4.0/CMSIS/RTOS2/RTX/Source/rtx_evflags.c ****     if (event_flags != 0U) {
 152:/usr/local/lib/ARM/CMSIS/5.4.0/CMSIS/RTOS2/RTX/Source/rtx_evflags.c ****       osRtxThreadListRemove(thread);
 153:/usr/local/lib/ARM/CMSIS/5.4.0/CMSIS/RTOS2/RTX/Source/rtx_evflags.c ****       osRtxThreadWaitExit(thread, event_flags, FALSE);
 154:/usr/local/lib/ARM/CMSIS/5.4.0/CMSIS/RTOS2/RTX/Source/rtx_evflags.c ****       EvrRtxEventFlagsWaitCompleted(ef, thread->wait_flags, thread->flags_options, event_flags);
 155:/usr/local/lib/ARM/CMSIS/5.4.0/CMSIS/RTOS2/RTX/Source/rtx_evflags.c ****     }
 156:/usr/local/lib/ARM/CMSIS/5.4.0/CMSIS/RTOS2/RTX/Source/rtx_evflags.c ****     thread = thread_next;
 157:/usr/local/lib/ARM/CMSIS/5.4.0/CMSIS/RTOS2/RTX/Source/rtx_evflags.c ****   }
 158:/usr/local/lib/ARM/CMSIS/5.4.0/CMSIS/RTOS2/RTX/Source/rtx_evflags.c **** }
 159:/usr/local/lib/ARM/CMSIS/5.4.0/CMSIS/RTOS2/RTX/Source/rtx_evflags.c **** 
 160:/usr/local/lib/ARM/CMSIS/5.4.0/CMSIS/RTOS2/RTX/Source/rtx_evflags.c **** 
 161:/usr/local/lib/ARM/CMSIS/5.4.0/CMSIS/RTOS2/RTX/Source/rtx_evflags.c **** //  ==== Service Calls ====
 162:/usr/local/lib/ARM/CMSIS/5.4.0/CMSIS/RTOS2/RTX/Source/rtx_evflags.c **** 
 163:/usr/local/lib/ARM/CMSIS/5.4.0/CMSIS/RTOS2/RTX/Source/rtx_evflags.c **** /// Create and Initialize an Event Flags object.
 164:/usr/local/lib/ARM/CMSIS/5.4.0/CMSIS/RTOS2/RTX/Source/rtx_evflags.c **** /// \note API identical to osEventFlagsNew
 165:/usr/local/lib/ARM/CMSIS/5.4.0/CMSIS/RTOS2/RTX/Source/rtx_evflags.c **** static osEventFlagsId_t svcRtxEventFlagsNew (const osEventFlagsAttr_t *attr) {
 258              		.loc 1 165 0
ARM GAS  /tmp/cc4RTizm.s 			page 21


 259              		.cfi_startproc
 260              		@ args = 0, pretend = 0, frame = 0
 261              		@ frame_needed = 0, uses_anonymous_args = 0
 262              	.LVL19:
 263 0000 38B5     		push	{r3, r4, r5, lr}
 264              	.LCFI8:
 265              		.cfi_def_cfa_offset 16
 266              		.cfi_offset 3, -16
 267              		.cfi_offset 4, -12
 268              		.cfi_offset 5, -8
 269              		.cfi_offset 14, -4
 166:/usr/local/lib/ARM/CMSIS/5.4.0/CMSIS/RTOS2/RTX/Source/rtx_evflags.c ****   os_event_flags_t *ef;
 167:/usr/local/lib/ARM/CMSIS/5.4.0/CMSIS/RTOS2/RTX/Source/rtx_evflags.c ****   uint8_t           flags;
 168:/usr/local/lib/ARM/CMSIS/5.4.0/CMSIS/RTOS2/RTX/Source/rtx_evflags.c ****   const char       *name;
 169:/usr/local/lib/ARM/CMSIS/5.4.0/CMSIS/RTOS2/RTX/Source/rtx_evflags.c **** 
 170:/usr/local/lib/ARM/CMSIS/5.4.0/CMSIS/RTOS2/RTX/Source/rtx_evflags.c ****   // Process attributes
 171:/usr/local/lib/ARM/CMSIS/5.4.0/CMSIS/RTOS2/RTX/Source/rtx_evflags.c ****   if (attr != NULL) {
 270              		.loc 1 171 0
 271 0002 C0B1     		cbz	r0, .L23
 172:/usr/local/lib/ARM/CMSIS/5.4.0/CMSIS/RTOS2/RTX/Source/rtx_evflags.c ****     name = attr->name;
 272              		.loc 1 172 0
 273 0004 0568     		ldr	r5, [r0]
 274              	.LVL20:
 173:/usr/local/lib/ARM/CMSIS/5.4.0/CMSIS/RTOS2/RTX/Source/rtx_evflags.c ****     //lint -e{9079} "conversion from pointer to void to pointer to other type" [MISRA Note 6]
 174:/usr/local/lib/ARM/CMSIS/5.4.0/CMSIS/RTOS2/RTX/Source/rtx_evflags.c ****     ef   = attr->cb_mem;
 275              		.loc 1 174 0
 276 0006 8468     		ldr	r4, [r0, #8]
 277              	.LVL21:
 175:/usr/local/lib/ARM/CMSIS/5.4.0/CMSIS/RTOS2/RTX/Source/rtx_evflags.c ****     if (ef != NULL) {
 278              		.loc 1 175 0
 279 0008 64B1     		cbz	r4, .L17
 176:/usr/local/lib/ARM/CMSIS/5.4.0/CMSIS/RTOS2/RTX/Source/rtx_evflags.c ****       //lint -e(923) -e(9078) "cast from pointer to unsigned int" [MISRA Note 7]
 177:/usr/local/lib/ARM/CMSIS/5.4.0/CMSIS/RTOS2/RTX/Source/rtx_evflags.c ****       if ((((uint32_t)ef & 3U) != 0U) || (attr->cb_size < sizeof(os_event_flags_t))) {
 280              		.loc 1 177 0
 281 000a 14F0030F 		tst	r4, #3
 282 000e 02D1     		bne	.L18
 283              		.loc 1 177 0 is_stmt 0 discriminator 1
 284 0010 C368     		ldr	r3, [r0, #12]
 285 0012 0F2B     		cmp	r3, #15
 286 0014 11D8     		bhi	.L16
 287              	.L18:
 178:/usr/local/lib/ARM/CMSIS/5.4.0/CMSIS/RTOS2/RTX/Source/rtx_evflags.c ****         EvrRtxEventFlagsError(NULL, osRtxErrorInvalidControlBlock);
 288              		.loc 1 178 0 is_stmt 1
 289 0016 6FF00801 		mvn	r1, #8
 290 001a 0020     		movs	r0, #0
 291              	.LVL22:
 292 001c FFF7FEFF 		bl	EvrRtxEventFlagsError
 293              	.LVL23:
 179:/usr/local/lib/ARM/CMSIS/5.4.0/CMSIS/RTOS2/RTX/Source/rtx_evflags.c ****         //lint -e{904} "Return statement before end of function" [MISRA Note 1]
 180:/usr/local/lib/ARM/CMSIS/5.4.0/CMSIS/RTOS2/RTX/Source/rtx_evflags.c ****         return NULL;
 294              		.loc 1 180 0
 295 0020 0020     		movs	r0, #0
 296 0022 38BD     		pop	{r3, r4, r5, pc}
 297              	.LVL24:
 298              	.L17:
 181:/usr/local/lib/ARM/CMSIS/5.4.0/CMSIS/RTOS2/RTX/Source/rtx_evflags.c ****       }
 182:/usr/local/lib/ARM/CMSIS/5.4.0/CMSIS/RTOS2/RTX/Source/rtx_evflags.c ****     } else {
ARM GAS  /tmp/cc4RTizm.s 			page 22


 183:/usr/local/lib/ARM/CMSIS/5.4.0/CMSIS/RTOS2/RTX/Source/rtx_evflags.c ****       if (attr->cb_size != 0U) {
 299              		.loc 1 183 0
 300 0024 C368     		ldr	r3, [r0, #12]
 301 0026 43B1     		cbz	r3, .L16
 184:/usr/local/lib/ARM/CMSIS/5.4.0/CMSIS/RTOS2/RTX/Source/rtx_evflags.c ****         EvrRtxEventFlagsError(NULL, osRtxErrorInvalidControlBlock);
 302              		.loc 1 184 0
 303 0028 6FF00801 		mvn	r1, #8
 304 002c 0020     		movs	r0, #0
 305              	.LVL25:
 306 002e FFF7FEFF 		bl	EvrRtxEventFlagsError
 307              	.LVL26:
 185:/usr/local/lib/ARM/CMSIS/5.4.0/CMSIS/RTOS2/RTX/Source/rtx_evflags.c ****         //lint -e{904} "Return statement before end of function" [MISRA Note 1]
 186:/usr/local/lib/ARM/CMSIS/5.4.0/CMSIS/RTOS2/RTX/Source/rtx_evflags.c ****         return NULL;
 308              		.loc 1 186 0
 309 0032 0020     		movs	r0, #0
 310 0034 38BD     		pop	{r3, r4, r5, pc}
 311              	.LVL27:
 312              	.L23:
 187:/usr/local/lib/ARM/CMSIS/5.4.0/CMSIS/RTOS2/RTX/Source/rtx_evflags.c ****       }
 188:/usr/local/lib/ARM/CMSIS/5.4.0/CMSIS/RTOS2/RTX/Source/rtx_evflags.c ****     }
 189:/usr/local/lib/ARM/CMSIS/5.4.0/CMSIS/RTOS2/RTX/Source/rtx_evflags.c ****   } else {
 190:/usr/local/lib/ARM/CMSIS/5.4.0/CMSIS/RTOS2/RTX/Source/rtx_evflags.c ****     name = NULL;
 313              		.loc 1 190 0
 314 0036 0025     		movs	r5, #0
 191:/usr/local/lib/ARM/CMSIS/5.4.0/CMSIS/RTOS2/RTX/Source/rtx_evflags.c ****     ef   = NULL;
 315              		.loc 1 191 0
 316 0038 2C46     		mov	r4, r5
 317              	.L16:
 318              	.LVL28:
 192:/usr/local/lib/ARM/CMSIS/5.4.0/CMSIS/RTOS2/RTX/Source/rtx_evflags.c ****   }
 193:/usr/local/lib/ARM/CMSIS/5.4.0/CMSIS/RTOS2/RTX/Source/rtx_evflags.c **** 
 194:/usr/local/lib/ARM/CMSIS/5.4.0/CMSIS/RTOS2/RTX/Source/rtx_evflags.c ****   // Allocate object memory if not provided
 195:/usr/local/lib/ARM/CMSIS/5.4.0/CMSIS/RTOS2/RTX/Source/rtx_evflags.c ****   if (ef == NULL) {
 319              		.loc 1 195 0
 320 003a 94B9     		cbnz	r4, .L24
 196:/usr/local/lib/ARM/CMSIS/5.4.0/CMSIS/RTOS2/RTX/Source/rtx_evflags.c ****     if (osRtxInfo.mpi.event_flags != NULL) {
 321              		.loc 1 196 0
 322 003c 154B     		ldr	r3, .L26
 323 003e D3F89000 		ldr	r0, [r3, #144]
 324              	.LVL29:
 325 0042 20B1     		cbz	r0, .L21
 197:/usr/local/lib/ARM/CMSIS/5.4.0/CMSIS/RTOS2/RTX/Source/rtx_evflags.c ****       //lint -e{9079} "conversion from pointer to void to pointer to other type" [MISRA Note 5]
 198:/usr/local/lib/ARM/CMSIS/5.4.0/CMSIS/RTOS2/RTX/Source/rtx_evflags.c ****       ef = osRtxMemoryPoolAlloc(osRtxInfo.mpi.event_flags);
 326              		.loc 1 198 0
 327 0044 FFF7FEFF 		bl	osRtxMemoryPoolAlloc
 328              	.LVL30:
 329 0048 0446     		mov	r4, r0
 330              	.LVL31:
 199:/usr/local/lib/ARM/CMSIS/5.4.0/CMSIS/RTOS2/RTX/Source/rtx_evflags.c ****     } else {
 200:/usr/local/lib/ARM/CMSIS/5.4.0/CMSIS/RTOS2/RTX/Source/rtx_evflags.c ****       //lint -e{9079} "conversion from pointer to void to pointer to other type" [MISRA Note 5]
 201:/usr/local/lib/ARM/CMSIS/5.4.0/CMSIS/RTOS2/RTX/Source/rtx_evflags.c ****       ef = osRtxMemoryAlloc(osRtxInfo.mem.common, sizeof(os_event_flags_t), 1U);
 202:/usr/local/lib/ARM/CMSIS/5.4.0/CMSIS/RTOS2/RTX/Source/rtx_evflags.c ****     }
 203:/usr/local/lib/ARM/CMSIS/5.4.0/CMSIS/RTOS2/RTX/Source/rtx_evflags.c **** #if (defined(OS_OBJ_MEM_USAGE) && (OS_OBJ_MEM_USAGE != 0))
 204:/usr/local/lib/ARM/CMSIS/5.4.0/CMSIS/RTOS2/RTX/Source/rtx_evflags.c ****     if (ef != NULL) {
 205:/usr/local/lib/ARM/CMSIS/5.4.0/CMSIS/RTOS2/RTX/Source/rtx_evflags.c ****       uint32_t used;
 206:/usr/local/lib/ARM/CMSIS/5.4.0/CMSIS/RTOS2/RTX/Source/rtx_evflags.c ****       osRtxEventFlagsMemUsage.cnt_alloc++;
 207:/usr/local/lib/ARM/CMSIS/5.4.0/CMSIS/RTOS2/RTX/Source/rtx_evflags.c ****       used = osRtxEventFlagsMemUsage.cnt_alloc - osRtxEventFlagsMemUsage.cnt_free;
ARM GAS  /tmp/cc4RTizm.s 			page 23


 208:/usr/local/lib/ARM/CMSIS/5.4.0/CMSIS/RTOS2/RTX/Source/rtx_evflags.c ****       if (osRtxEventFlagsMemUsage.max_used < used) {
 209:/usr/local/lib/ARM/CMSIS/5.4.0/CMSIS/RTOS2/RTX/Source/rtx_evflags.c ****         osRtxEventFlagsMemUsage.max_used = used;
 210:/usr/local/lib/ARM/CMSIS/5.4.0/CMSIS/RTOS2/RTX/Source/rtx_evflags.c ****       }
 211:/usr/local/lib/ARM/CMSIS/5.4.0/CMSIS/RTOS2/RTX/Source/rtx_evflags.c ****     }
 212:/usr/local/lib/ARM/CMSIS/5.4.0/CMSIS/RTOS2/RTX/Source/rtx_evflags.c **** #endif
 213:/usr/local/lib/ARM/CMSIS/5.4.0/CMSIS/RTOS2/RTX/Source/rtx_evflags.c ****     flags = osRtxFlagSystemObject;
 331              		.loc 1 213 0
 332 004a 0123     		movs	r3, #1
 333 004c 0AE0     		b	.L20
 334              	.LVL32:
 335              	.L21:
 201:/usr/local/lib/ARM/CMSIS/5.4.0/CMSIS/RTOS2/RTX/Source/rtx_evflags.c ****     }
 336              		.loc 1 201 0
 337 004e 0122     		movs	r2, #1
 338 0050 1021     		movs	r1, #16
 339 0052 104B     		ldr	r3, .L26
 340 0054 D3F88000 		ldr	r0, [r3, #128]
 341 0058 FFF7FEFF 		bl	osRtxMemoryAlloc
 342              	.LVL33:
 343 005c 0446     		mov	r4, r0
 344              	.LVL34:
 345              		.loc 1 213 0
 346 005e 0123     		movs	r3, #1
 347 0060 00E0     		b	.L20
 348              	.LVL35:
 349              	.L24:
 214:/usr/local/lib/ARM/CMSIS/5.4.0/CMSIS/RTOS2/RTX/Source/rtx_evflags.c ****   } else {
 215:/usr/local/lib/ARM/CMSIS/5.4.0/CMSIS/RTOS2/RTX/Source/rtx_evflags.c ****     flags = 0U;
 350              		.loc 1 215 0
 351 0062 0023     		movs	r3, #0
 352              	.LVL36:
 353              	.L20:
 216:/usr/local/lib/ARM/CMSIS/5.4.0/CMSIS/RTOS2/RTX/Source/rtx_evflags.c ****   }
 217:/usr/local/lib/ARM/CMSIS/5.4.0/CMSIS/RTOS2/RTX/Source/rtx_evflags.c **** 
 218:/usr/local/lib/ARM/CMSIS/5.4.0/CMSIS/RTOS2/RTX/Source/rtx_evflags.c ****   if (ef != NULL) {
 354              		.loc 1 218 0
 355 0064 7CB1     		cbz	r4, .L22
 219:/usr/local/lib/ARM/CMSIS/5.4.0/CMSIS/RTOS2/RTX/Source/rtx_evflags.c ****     // Initialize control block
 220:/usr/local/lib/ARM/CMSIS/5.4.0/CMSIS/RTOS2/RTX/Source/rtx_evflags.c ****     ef->id          = osRtxIdEventFlags;
 356              		.loc 1 220 0
 357 0066 0322     		movs	r2, #3
 358 0068 2270     		strb	r2, [r4]
 221:/usr/local/lib/ARM/CMSIS/5.4.0/CMSIS/RTOS2/RTX/Source/rtx_evflags.c ****     ef->flags       = flags;
 359              		.loc 1 221 0
 360 006a A370     		strb	r3, [r4, #2]
 222:/usr/local/lib/ARM/CMSIS/5.4.0/CMSIS/RTOS2/RTX/Source/rtx_evflags.c ****     ef->name        = name;
 361              		.loc 1 222 0
 362 006c 6560     		str	r5, [r4, #4]
 223:/usr/local/lib/ARM/CMSIS/5.4.0/CMSIS/RTOS2/RTX/Source/rtx_evflags.c ****     ef->thread_list = NULL;
 363              		.loc 1 223 0
 364 006e 0023     		movs	r3, #0
 365              	.LVL37:
 366 0070 A360     		str	r3, [r4, #8]
 224:/usr/local/lib/ARM/CMSIS/5.4.0/CMSIS/RTOS2/RTX/Source/rtx_evflags.c ****     ef->event_flags = 0U;
 367              		.loc 1 224 0
 368 0072 E360     		str	r3, [r4, #12]
 225:/usr/local/lib/ARM/CMSIS/5.4.0/CMSIS/RTOS2/RTX/Source/rtx_evflags.c **** 
ARM GAS  /tmp/cc4RTizm.s 			page 24


 226:/usr/local/lib/ARM/CMSIS/5.4.0/CMSIS/RTOS2/RTX/Source/rtx_evflags.c ****     // Register post ISR processing function
 227:/usr/local/lib/ARM/CMSIS/5.4.0/CMSIS/RTOS2/RTX/Source/rtx_evflags.c ****     osRtxInfo.post_process.event_flags = osRtxEventFlagsPostProcess;
 369              		.loc 1 227 0
 370 0074 084A     		ldr	r2, .L26+4
 371 0076 074B     		ldr	r3, .L26
 372 0078 5A66     		str	r2, [r3, #100]
 373              	.LVL38:
 228:/usr/local/lib/ARM/CMSIS/5.4.0/CMSIS/RTOS2/RTX/Source/rtx_evflags.c **** 
 229:/usr/local/lib/ARM/CMSIS/5.4.0/CMSIS/RTOS2/RTX/Source/rtx_evflags.c ****     EvrRtxEventFlagsCreated(ef, ef->name);
 374              		.loc 1 229 0
 375 007a 6168     		ldr	r1, [r4, #4]
 376 007c 2046     		mov	r0, r4
 377 007e FFF7FEFF 		bl	EvrRtxEventFlagsCreated
 378              	.LVL39:
 230:/usr/local/lib/ARM/CMSIS/5.4.0/CMSIS/RTOS2/RTX/Source/rtx_evflags.c ****   } else {
 231:/usr/local/lib/ARM/CMSIS/5.4.0/CMSIS/RTOS2/RTX/Source/rtx_evflags.c ****     EvrRtxEventFlagsError(NULL, (int32_t)osErrorNoMemory);
 232:/usr/local/lib/ARM/CMSIS/5.4.0/CMSIS/RTOS2/RTX/Source/rtx_evflags.c ****   }
 233:/usr/local/lib/ARM/CMSIS/5.4.0/CMSIS/RTOS2/RTX/Source/rtx_evflags.c **** 
 234:/usr/local/lib/ARM/CMSIS/5.4.0/CMSIS/RTOS2/RTX/Source/rtx_evflags.c ****   return ef;
 379              		.loc 1 234 0
 380 0082 2046     		mov	r0, r4
 381 0084 38BD     		pop	{r3, r4, r5, pc}
 382              	.LVL40:
 383              	.L22:
 231:/usr/local/lib/ARM/CMSIS/5.4.0/CMSIS/RTOS2/RTX/Source/rtx_evflags.c ****   }
 384              		.loc 1 231 0
 385 0086 6FF00401 		mvn	r1, #4
 386 008a 0020     		movs	r0, #0
 387 008c FFF7FEFF 		bl	EvrRtxEventFlagsError
 388              	.LVL41:
 389              		.loc 1 234 0
 390 0090 2046     		mov	r0, r4
 235:/usr/local/lib/ARM/CMSIS/5.4.0/CMSIS/RTOS2/RTX/Source/rtx_evflags.c **** }
 391              		.loc 1 235 0
 392 0092 38BD     		pop	{r3, r4, r5, pc}
 393              	.LVL42:
 394              	.L27:
 395              		.align	2
 396              	.L26:
 397 0094 00000000 		.word	osRtxInfo
 398 0098 00000000 		.word	osRtxEventFlagsPostProcess
 399              		.cfi_endproc
 400              	.LFE178:
 402              		.section	.text.osRtxEventFlagsPostProcess,"ax",%progbits
 403              		.align	2
 404              		.thumb
 405              		.thumb_func
 407              	osRtxEventFlagsPostProcess:
 408              	.LFB177:
 141:/usr/local/lib/ARM/CMSIS/5.4.0/CMSIS/RTOS2/RTX/Source/rtx_evflags.c ****   os_thread_t *thread;
 409              		.loc 1 141 0
 410              		.cfi_startproc
 411              		@ args = 0, pretend = 0, frame = 0
 412              		@ frame_needed = 0, uses_anonymous_args = 0
 413              	.LVL43:
 414 0000 F8B5     		push	{r3, r4, r5, r6, r7, lr}
 415              	.LCFI9:
ARM GAS  /tmp/cc4RTizm.s 			page 25


 416              		.cfi_def_cfa_offset 24
 417              		.cfi_offset 3, -24
 418              		.cfi_offset 4, -20
 419              		.cfi_offset 5, -16
 420              		.cfi_offset 6, -12
 421              		.cfi_offset 7, -8
 422              		.cfi_offset 14, -4
 423 0002 0746     		mov	r7, r0
 147:/usr/local/lib/ARM/CMSIS/5.4.0/CMSIS/RTOS2/RTX/Source/rtx_evflags.c ****   while (thread != NULL) {
 424              		.loc 1 147 0
 425 0004 8468     		ldr	r4, [r0, #8]
 426              	.LVL44:
 148:/usr/local/lib/ARM/CMSIS/5.4.0/CMSIS/RTOS2/RTX/Source/rtx_evflags.c ****     thread_next = thread->thread_next;
 427              		.loc 1 148 0
 428 0006 18E0     		b	.L29
 429              	.LVL45:
 430              	.L31:
 149:/usr/local/lib/ARM/CMSIS/5.4.0/CMSIS/RTOS2/RTX/Source/rtx_evflags.c ****     event_flags = EventFlagsCheck(ef, thread->wait_flags, thread->flags_options);
 431              		.loc 1 149 0
 432 0008 A568     		ldr	r5, [r4, #8]
 433              	.LVL46:
 150:/usr/local/lib/ARM/CMSIS/5.4.0/CMSIS/RTOS2/RTX/Source/rtx_evflags.c ****     if (event_flags != 0U) {
 434              		.loc 1 150 0
 435 000a 94F82320 		ldrb	r2, [r4, #35]	@ zero_extendqisi2
 436 000e 616A     		ldr	r1, [r4, #36]
 437 0010 3846     		mov	r0, r7
 438 0012 FFF7FEFF 		bl	EventFlagsCheck
 439              	.LVL47:
 151:/usr/local/lib/ARM/CMSIS/5.4.0/CMSIS/RTOS2/RTX/Source/rtx_evflags.c ****       osRtxThreadListRemove(thread);
 440              		.loc 1 151 0
 441 0016 0646     		mov	r6, r0
 442 0018 70B1     		cbz	r0, .L30
 152:/usr/local/lib/ARM/CMSIS/5.4.0/CMSIS/RTOS2/RTX/Source/rtx_evflags.c ****       osRtxThreadWaitExit(thread, event_flags, FALSE);
 443              		.loc 1 152 0
 444 001a 2046     		mov	r0, r4
 445              	.LVL48:
 446 001c FFF7FEFF 		bl	osRtxThreadListRemove
 447              	.LVL49:
 153:/usr/local/lib/ARM/CMSIS/5.4.0/CMSIS/RTOS2/RTX/Source/rtx_evflags.c ****       EvrRtxEventFlagsWaitCompleted(ef, thread->wait_flags, thread->flags_options, event_flags);
 448              		.loc 1 153 0
 449 0020 0022     		movs	r2, #0
 450 0022 3146     		mov	r1, r6
 451 0024 2046     		mov	r0, r4
 452 0026 FFF7FEFF 		bl	osRtxThreadWaitExit
 453              	.LVL50:
 154:/usr/local/lib/ARM/CMSIS/5.4.0/CMSIS/RTOS2/RTX/Source/rtx_evflags.c ****     }
 454              		.loc 1 154 0
 455 002a 3346     		mov	r3, r6
 456 002c 94F82320 		ldrb	r2, [r4, #35]	@ zero_extendqisi2
 457 0030 616A     		ldr	r1, [r4, #36]
 458 0032 3846     		mov	r0, r7
 459 0034 FFF7FEFF 		bl	EvrRtxEventFlagsWaitCompleted
 460              	.LVL51:
 461              	.L30:
 141:/usr/local/lib/ARM/CMSIS/5.4.0/CMSIS/RTOS2/RTX/Source/rtx_evflags.c ****   os_thread_t *thread;
 462              		.loc 1 141 0
 463 0038 2C46     		mov	r4, r5
ARM GAS  /tmp/cc4RTizm.s 			page 26


 464              	.LVL52:
 465              	.L29:
 148:/usr/local/lib/ARM/CMSIS/5.4.0/CMSIS/RTOS2/RTX/Source/rtx_evflags.c ****     thread_next = thread->thread_next;
 466              		.loc 1 148 0
 467 003a 002C     		cmp	r4, #0
 468 003c E4D1     		bne	.L31
 158:/usr/local/lib/ARM/CMSIS/5.4.0/CMSIS/RTOS2/RTX/Source/rtx_evflags.c **** 
 469              		.loc 1 158 0
 470 003e F8BD     		pop	{r3, r4, r5, r6, r7, pc}
 471              		.cfi_endproc
 472              	.LFE177:
 474              		.section	.text.svcRtxEventFlagsGetName,"ax",%progbits
 475              		.align	2
 476              		.thumb
 477              		.thumb_func
 479              	svcRtxEventFlagsGetName:
 480              	.LFB179:
 236:/usr/local/lib/ARM/CMSIS/5.4.0/CMSIS/RTOS2/RTX/Source/rtx_evflags.c **** 
 237:/usr/local/lib/ARM/CMSIS/5.4.0/CMSIS/RTOS2/RTX/Source/rtx_evflags.c **** /// Get name of an Event Flags object.
 238:/usr/local/lib/ARM/CMSIS/5.4.0/CMSIS/RTOS2/RTX/Source/rtx_evflags.c **** /// \note API identical to osEventFlagsGetName
 239:/usr/local/lib/ARM/CMSIS/5.4.0/CMSIS/RTOS2/RTX/Source/rtx_evflags.c **** static const char *svcRtxEventFlagsGetName (osEventFlagsId_t ef_id) {
 481              		.loc 1 239 0
 482              		.cfi_startproc
 483              		@ args = 0, pretend = 0, frame = 0
 484              		@ frame_needed = 0, uses_anonymous_args = 0
 485              	.LVL53:
 486 0000 10B5     		push	{r4, lr}
 487              	.LCFI10:
 488              		.cfi_def_cfa_offset 8
 489              		.cfi_offset 4, -8
 490              		.cfi_offset 14, -4
 240:/usr/local/lib/ARM/CMSIS/5.4.0/CMSIS/RTOS2/RTX/Source/rtx_evflags.c ****   os_event_flags_t *ef = osRtxEventFlagsId(ef_id);
 241:/usr/local/lib/ARM/CMSIS/5.4.0/CMSIS/RTOS2/RTX/Source/rtx_evflags.c **** 
 242:/usr/local/lib/ARM/CMSIS/5.4.0/CMSIS/RTOS2/RTX/Source/rtx_evflags.c ****   // Check parameters
 243:/usr/local/lib/ARM/CMSIS/5.4.0/CMSIS/RTOS2/RTX/Source/rtx_evflags.c ****   if ((ef == NULL) || (ef->id != osRtxIdEventFlags)) {
 491              		.loc 1 243 0
 492 0002 0446     		mov	r4, r0
 493 0004 10B1     		cbz	r0, .L34
 494              		.loc 1 243 0 is_stmt 0 discriminator 1
 495 0006 0378     		ldrb	r3, [r0]	@ zero_extendqisi2
 496 0008 032B     		cmp	r3, #3
 497 000a 05D0     		beq	.L35
 498              	.L34:
 244:/usr/local/lib/ARM/CMSIS/5.4.0/CMSIS/RTOS2/RTX/Source/rtx_evflags.c ****     EvrRtxEventFlagsGetName(ef, NULL);
 499              		.loc 1 244 0 is_stmt 1
 500 000c 0021     		movs	r1, #0
 501 000e 2046     		mov	r0, r4
 502              	.LVL54:
 503 0010 FFF7FEFF 		bl	EvrRtxEventFlagsGetName
 504              	.LVL55:
 245:/usr/local/lib/ARM/CMSIS/5.4.0/CMSIS/RTOS2/RTX/Source/rtx_evflags.c ****     //lint -e{904} "Return statement before end of function" [MISRA Note 1]
 246:/usr/local/lib/ARM/CMSIS/5.4.0/CMSIS/RTOS2/RTX/Source/rtx_evflags.c ****     return NULL;
 505              		.loc 1 246 0
 506 0014 0020     		movs	r0, #0
 507 0016 10BD     		pop	{r4, pc}
 508              	.LVL56:
 509              	.L35:
ARM GAS  /tmp/cc4RTizm.s 			page 27


 247:/usr/local/lib/ARM/CMSIS/5.4.0/CMSIS/RTOS2/RTX/Source/rtx_evflags.c ****   }
 248:/usr/local/lib/ARM/CMSIS/5.4.0/CMSIS/RTOS2/RTX/Source/rtx_evflags.c **** 
 249:/usr/local/lib/ARM/CMSIS/5.4.0/CMSIS/RTOS2/RTX/Source/rtx_evflags.c ****   EvrRtxEventFlagsGetName(ef, ef->name);
 510              		.loc 1 249 0
 511 0018 4168     		ldr	r1, [r0, #4]
 512 001a FFF7FEFF 		bl	EvrRtxEventFlagsGetName
 513              	.LVL57:
 250:/usr/local/lib/ARM/CMSIS/5.4.0/CMSIS/RTOS2/RTX/Source/rtx_evflags.c **** 
 251:/usr/local/lib/ARM/CMSIS/5.4.0/CMSIS/RTOS2/RTX/Source/rtx_evflags.c ****   return ef->name;
 514              		.loc 1 251 0
 515 001e 6068     		ldr	r0, [r4, #4]
 252:/usr/local/lib/ARM/CMSIS/5.4.0/CMSIS/RTOS2/RTX/Source/rtx_evflags.c **** }
 516              		.loc 1 252 0
 517 0020 10BD     		pop	{r4, pc}
 518              		.cfi_endproc
 519              	.LFE179:
 521 0022 00BF     		.section	.text.svcRtxEventFlagsSet,"ax",%progbits
 522              		.align	2
 523              		.thumb
 524              		.thumb_func
 526              	svcRtxEventFlagsSet:
 527              	.LFB180:
 253:/usr/local/lib/ARM/CMSIS/5.4.0/CMSIS/RTOS2/RTX/Source/rtx_evflags.c **** 
 254:/usr/local/lib/ARM/CMSIS/5.4.0/CMSIS/RTOS2/RTX/Source/rtx_evflags.c **** /// Set the specified Event Flags.
 255:/usr/local/lib/ARM/CMSIS/5.4.0/CMSIS/RTOS2/RTX/Source/rtx_evflags.c **** /// \note API identical to osEventFlagsSet
 256:/usr/local/lib/ARM/CMSIS/5.4.0/CMSIS/RTOS2/RTX/Source/rtx_evflags.c **** static uint32_t svcRtxEventFlagsSet (osEventFlagsId_t ef_id, uint32_t flags) {
 528              		.loc 1 256 0
 529              		.cfi_startproc
 530              		@ args = 0, pretend = 0, frame = 0
 531              		@ frame_needed = 0, uses_anonymous_args = 0
 532              	.LVL58:
 533 0000 2DE9F041 		push	{r4, r5, r6, r7, r8, lr}
 534              	.LCFI11:
 535              		.cfi_def_cfa_offset 24
 536              		.cfi_offset 4, -24
 537              		.cfi_offset 5, -20
 538              		.cfi_offset 6, -16
 539              		.cfi_offset 7, -12
 540              		.cfi_offset 8, -8
 541              		.cfi_offset 14, -4
 257:/usr/local/lib/ARM/CMSIS/5.4.0/CMSIS/RTOS2/RTX/Source/rtx_evflags.c ****   os_event_flags_t *ef = osRtxEventFlagsId(ef_id);
 258:/usr/local/lib/ARM/CMSIS/5.4.0/CMSIS/RTOS2/RTX/Source/rtx_evflags.c ****   os_thread_t      *thread;
 259:/usr/local/lib/ARM/CMSIS/5.4.0/CMSIS/RTOS2/RTX/Source/rtx_evflags.c ****   os_thread_t      *thread_next;
 260:/usr/local/lib/ARM/CMSIS/5.4.0/CMSIS/RTOS2/RTX/Source/rtx_evflags.c ****   uint32_t          event_flags;
 261:/usr/local/lib/ARM/CMSIS/5.4.0/CMSIS/RTOS2/RTX/Source/rtx_evflags.c ****   uint32_t          event_flags0;
 262:/usr/local/lib/ARM/CMSIS/5.4.0/CMSIS/RTOS2/RTX/Source/rtx_evflags.c **** 
 263:/usr/local/lib/ARM/CMSIS/5.4.0/CMSIS/RTOS2/RTX/Source/rtx_evflags.c ****   // Check parameters
 264:/usr/local/lib/ARM/CMSIS/5.4.0/CMSIS/RTOS2/RTX/Source/rtx_evflags.c ****   if ((ef == NULL) || (ef->id != osRtxIdEventFlags) ||
 542              		.loc 1 264 0
 543 0004 0546     		mov	r5, r0
 544 0006 20B1     		cbz	r0, .L39
 545              		.loc 1 264 0 is_stmt 0 discriminator 1
 546 0008 0378     		ldrb	r3, [r0]	@ zero_extendqisi2
 547 000a 032B     		cmp	r3, #3
 548 000c 01D1     		bne	.L39
 549              		.loc 1 264 0 discriminator 2
 550 000e 0029     		cmp	r1, #0
ARM GAS  /tmp/cc4RTizm.s 			page 28


 551 0010 08DA     		bge	.L40
 552              	.L39:
 265:/usr/local/lib/ARM/CMSIS/5.4.0/CMSIS/RTOS2/RTX/Source/rtx_evflags.c ****       ((flags & ~(((uint32_t)1U << osRtxEventFlagsLimit) - 1U)) != 0U)) {
 266:/usr/local/lib/ARM/CMSIS/5.4.0/CMSIS/RTOS2/RTX/Source/rtx_evflags.c ****     EvrRtxEventFlagsError(ef, (int32_t)osErrorParameter);
 553              		.loc 1 266 0 is_stmt 1
 554 0012 6FF00301 		mvn	r1, #3
 555              	.LVL59:
 556 0016 2846     		mov	r0, r5
 557              	.LVL60:
 558 0018 FFF7FEFF 		bl	EvrRtxEventFlagsError
 559              	.LVL61:
 267:/usr/local/lib/ARM/CMSIS/5.4.0/CMSIS/RTOS2/RTX/Source/rtx_evflags.c ****     //lint -e{904} "Return statement before end of function" [MISRA Note 1]
 268:/usr/local/lib/ARM/CMSIS/5.4.0/CMSIS/RTOS2/RTX/Source/rtx_evflags.c ****     return ((uint32_t)osErrorParameter);
 560              		.loc 1 268 0
 561 001c 6FF00300 		mvn	r0, #3
 562 0020 BDE8F081 		pop	{r4, r5, r6, r7, r8, pc}
 563              	.LVL62:
 564              	.L40:
 269:/usr/local/lib/ARM/CMSIS/5.4.0/CMSIS/RTOS2/RTX/Source/rtx_evflags.c ****   }
 270:/usr/local/lib/ARM/CMSIS/5.4.0/CMSIS/RTOS2/RTX/Source/rtx_evflags.c **** 
 271:/usr/local/lib/ARM/CMSIS/5.4.0/CMSIS/RTOS2/RTX/Source/rtx_evflags.c ****   // Set Event Flags
 272:/usr/local/lib/ARM/CMSIS/5.4.0/CMSIS/RTOS2/RTX/Source/rtx_evflags.c ****   event_flags = EventFlagsSet(ef, flags);
 565              		.loc 1 272 0
 566 0024 FFF7FEFF 		bl	EventFlagsSet
 567              	.LVL63:
 568 0028 0646     		mov	r6, r0
 569              	.LVL64:
 273:/usr/local/lib/ARM/CMSIS/5.4.0/CMSIS/RTOS2/RTX/Source/rtx_evflags.c **** 
 274:/usr/local/lib/ARM/CMSIS/5.4.0/CMSIS/RTOS2/RTX/Source/rtx_evflags.c ****   // Check if Threads are waiting for Event Flags
 275:/usr/local/lib/ARM/CMSIS/5.4.0/CMSIS/RTOS2/RTX/Source/rtx_evflags.c ****   thread = ef->thread_list;
 570              		.loc 1 275 0
 571 002a AC68     		ldr	r4, [r5, #8]
 572              	.LVL65:
 276:/usr/local/lib/ARM/CMSIS/5.4.0/CMSIS/RTOS2/RTX/Source/rtx_evflags.c ****   while (thread != NULL) {
 573              		.loc 1 276 0
 574 002c 23E0     		b	.L42
 575              	.LVL66:
 576              	.L45:
 277:/usr/local/lib/ARM/CMSIS/5.4.0/CMSIS/RTOS2/RTX/Source/rtx_evflags.c ****     thread_next = thread->thread_next;
 577              		.loc 1 277 0
 578 002e D4F80880 		ldr	r8, [r4, #8]
 579              	.LVL67:
 278:/usr/local/lib/ARM/CMSIS/5.4.0/CMSIS/RTOS2/RTX/Source/rtx_evflags.c ****     event_flags0 = EventFlagsCheck(ef, thread->wait_flags, thread->flags_options);
 580              		.loc 1 278 0
 581 0032 94F82320 		ldrb	r2, [r4, #35]	@ zero_extendqisi2
 582 0036 616A     		ldr	r1, [r4, #36]
 583 0038 2846     		mov	r0, r5
 584 003a FFF7FEFF 		bl	EventFlagsCheck
 585              	.LVL68:
 279:/usr/local/lib/ARM/CMSIS/5.4.0/CMSIS/RTOS2/RTX/Source/rtx_evflags.c ****     if (event_flags0 != 0U) {
 586              		.loc 1 279 0
 587 003e 0746     		mov	r7, r0
 588 0040 C0B1     		cbz	r0, .L43
 280:/usr/local/lib/ARM/CMSIS/5.4.0/CMSIS/RTOS2/RTX/Source/rtx_evflags.c ****       if ((thread->flags_options & osFlagsNoClear) == 0U) {
 589              		.loc 1 280 0
 590 0042 94F82330 		ldrb	r3, [r4, #35]	@ zero_extendqisi2
 591 0046 13F0020F 		tst	r3, #2
ARM GAS  /tmp/cc4RTizm.s 			page 29


 592 004a 03D1     		bne	.L46
 281:/usr/local/lib/ARM/CMSIS/5.4.0/CMSIS/RTOS2/RTX/Source/rtx_evflags.c ****         event_flags = event_flags0 & ~thread->wait_flags;
 593              		.loc 1 281 0
 594 004c 606A     		ldr	r0, [r4, #36]
 595              	.LVL69:
 596 004e 27EA0006 		bic	r6, r7, r0
 597              	.LVL70:
 598 0052 00E0     		b	.L44
 599              	.LVL71:
 600              	.L46:
 282:/usr/local/lib/ARM/CMSIS/5.4.0/CMSIS/RTOS2/RTX/Source/rtx_evflags.c ****       } else {
 283:/usr/local/lib/ARM/CMSIS/5.4.0/CMSIS/RTOS2/RTX/Source/rtx_evflags.c ****         event_flags = event_flags0;
 601              		.loc 1 283 0
 602 0054 0646     		mov	r6, r0
 603              	.LVL72:
 604              	.L44:
 284:/usr/local/lib/ARM/CMSIS/5.4.0/CMSIS/RTOS2/RTX/Source/rtx_evflags.c ****       }
 285:/usr/local/lib/ARM/CMSIS/5.4.0/CMSIS/RTOS2/RTX/Source/rtx_evflags.c ****       osRtxThreadListRemove(thread);
 605              		.loc 1 285 0
 606 0056 2046     		mov	r0, r4
 607 0058 FFF7FEFF 		bl	osRtxThreadListRemove
 608              	.LVL73:
 286:/usr/local/lib/ARM/CMSIS/5.4.0/CMSIS/RTOS2/RTX/Source/rtx_evflags.c ****       osRtxThreadWaitExit(thread, event_flags0, FALSE);
 609              		.loc 1 286 0
 610 005c 0022     		movs	r2, #0
 611 005e 3946     		mov	r1, r7
 612 0060 2046     		mov	r0, r4
 613 0062 FFF7FEFF 		bl	osRtxThreadWaitExit
 614              	.LVL74:
 287:/usr/local/lib/ARM/CMSIS/5.4.0/CMSIS/RTOS2/RTX/Source/rtx_evflags.c ****       EvrRtxEventFlagsWaitCompleted(ef, thread->wait_flags, thread->flags_options, event_flags0);
 615              		.loc 1 287 0
 616 0066 3B46     		mov	r3, r7
 617 0068 94F82320 		ldrb	r2, [r4, #35]	@ zero_extendqisi2
 618 006c 616A     		ldr	r1, [r4, #36]
 619 006e 2846     		mov	r0, r5
 620 0070 FFF7FEFF 		bl	EvrRtxEventFlagsWaitCompleted
 621              	.LVL75:
 622              	.L43:
 283:/usr/local/lib/ARM/CMSIS/5.4.0/CMSIS/RTOS2/RTX/Source/rtx_evflags.c ****       }
 623              		.loc 1 283 0
 624 0074 4446     		mov	r4, r8
 625              	.LVL76:
 626              	.L42:
 276:/usr/local/lib/ARM/CMSIS/5.4.0/CMSIS/RTOS2/RTX/Source/rtx_evflags.c ****     thread_next = thread->thread_next;
 627              		.loc 1 276 0
 628 0076 002C     		cmp	r4, #0
 629 0078 D9D1     		bne	.L45
 288:/usr/local/lib/ARM/CMSIS/5.4.0/CMSIS/RTOS2/RTX/Source/rtx_evflags.c ****     }
 289:/usr/local/lib/ARM/CMSIS/5.4.0/CMSIS/RTOS2/RTX/Source/rtx_evflags.c ****     thread = thread_next;
 290:/usr/local/lib/ARM/CMSIS/5.4.0/CMSIS/RTOS2/RTX/Source/rtx_evflags.c ****   }
 291:/usr/local/lib/ARM/CMSIS/5.4.0/CMSIS/RTOS2/RTX/Source/rtx_evflags.c ****   osRtxThreadDispatch(NULL);
 630              		.loc 1 291 0
 631 007a 0020     		movs	r0, #0
 632 007c FFF7FEFF 		bl	osRtxThreadDispatch
 633              	.LVL77:
 292:/usr/local/lib/ARM/CMSIS/5.4.0/CMSIS/RTOS2/RTX/Source/rtx_evflags.c **** 
 293:/usr/local/lib/ARM/CMSIS/5.4.0/CMSIS/RTOS2/RTX/Source/rtx_evflags.c ****   EvrRtxEventFlagsSetDone(ef, event_flags);
ARM GAS  /tmp/cc4RTizm.s 			page 30


 634              		.loc 1 293 0
 635 0080 3146     		mov	r1, r6
 636 0082 2846     		mov	r0, r5
 637 0084 FFF7FEFF 		bl	EvrRtxEventFlagsSetDone
 638              	.LVL78:
 294:/usr/local/lib/ARM/CMSIS/5.4.0/CMSIS/RTOS2/RTX/Source/rtx_evflags.c **** 
 295:/usr/local/lib/ARM/CMSIS/5.4.0/CMSIS/RTOS2/RTX/Source/rtx_evflags.c ****   return event_flags;
 639              		.loc 1 295 0
 640 0088 3046     		mov	r0, r6
 296:/usr/local/lib/ARM/CMSIS/5.4.0/CMSIS/RTOS2/RTX/Source/rtx_evflags.c **** }
 641              		.loc 1 296 0
 642 008a BDE8F081 		pop	{r4, r5, r6, r7, r8, pc}
 643              		.cfi_endproc
 644              	.LFE180:
 646 008e 00BF     		.section	.text.svcRtxEventFlagsClear,"ax",%progbits
 647              		.align	2
 648              		.thumb
 649              		.thumb_func
 651              	svcRtxEventFlagsClear:
 652              	.LFB181:
 297:/usr/local/lib/ARM/CMSIS/5.4.0/CMSIS/RTOS2/RTX/Source/rtx_evflags.c **** 
 298:/usr/local/lib/ARM/CMSIS/5.4.0/CMSIS/RTOS2/RTX/Source/rtx_evflags.c **** /// Clear the specified Event Flags.
 299:/usr/local/lib/ARM/CMSIS/5.4.0/CMSIS/RTOS2/RTX/Source/rtx_evflags.c **** /// \note API identical to osEventFlagsClear
 300:/usr/local/lib/ARM/CMSIS/5.4.0/CMSIS/RTOS2/RTX/Source/rtx_evflags.c **** static uint32_t svcRtxEventFlagsClear (osEventFlagsId_t ef_id, uint32_t flags) {
 653              		.loc 1 300 0
 654              		.cfi_startproc
 655              		@ args = 0, pretend = 0, frame = 0
 656              		@ frame_needed = 0, uses_anonymous_args = 0
 657              	.LVL79:
 658 0000 38B5     		push	{r3, r4, r5, lr}
 659              	.LCFI12:
 660              		.cfi_def_cfa_offset 16
 661              		.cfi_offset 3, -16
 662              		.cfi_offset 4, -12
 663              		.cfi_offset 5, -8
 664              		.cfi_offset 14, -4
 301:/usr/local/lib/ARM/CMSIS/5.4.0/CMSIS/RTOS2/RTX/Source/rtx_evflags.c ****   os_event_flags_t *ef = osRtxEventFlagsId(ef_id);
 302:/usr/local/lib/ARM/CMSIS/5.4.0/CMSIS/RTOS2/RTX/Source/rtx_evflags.c ****   uint32_t          event_flags;
 303:/usr/local/lib/ARM/CMSIS/5.4.0/CMSIS/RTOS2/RTX/Source/rtx_evflags.c **** 
 304:/usr/local/lib/ARM/CMSIS/5.4.0/CMSIS/RTOS2/RTX/Source/rtx_evflags.c ****   // Check parameters
 305:/usr/local/lib/ARM/CMSIS/5.4.0/CMSIS/RTOS2/RTX/Source/rtx_evflags.c ****   if ((ef == NULL) || (ef->id != osRtxIdEventFlags) ||
 665              		.loc 1 305 0
 666 0002 0446     		mov	r4, r0
 667 0004 20B1     		cbz	r0, .L49
 668              		.loc 1 305 0 is_stmt 0 discriminator 1
 669 0006 0378     		ldrb	r3, [r0]	@ zero_extendqisi2
 670 0008 032B     		cmp	r3, #3
 671 000a 01D1     		bne	.L49
 672              		.loc 1 305 0 discriminator 2
 673 000c 0029     		cmp	r1, #0
 674 000e 07DA     		bge	.L50
 675              	.L49:
 306:/usr/local/lib/ARM/CMSIS/5.4.0/CMSIS/RTOS2/RTX/Source/rtx_evflags.c ****       ((flags & ~(((uint32_t)1U << osRtxEventFlagsLimit) - 1U)) != 0U)) {
 307:/usr/local/lib/ARM/CMSIS/5.4.0/CMSIS/RTOS2/RTX/Source/rtx_evflags.c ****     EvrRtxEventFlagsError(ef, (int32_t)osErrorParameter);
 676              		.loc 1 307 0 is_stmt 1
 677 0010 6FF00301 		mvn	r1, #3
 678              	.LVL80:
ARM GAS  /tmp/cc4RTizm.s 			page 31


 679 0014 2046     		mov	r0, r4
 680              	.LVL81:
 681 0016 FFF7FEFF 		bl	EvrRtxEventFlagsError
 682              	.LVL82:
 308:/usr/local/lib/ARM/CMSIS/5.4.0/CMSIS/RTOS2/RTX/Source/rtx_evflags.c ****     //lint -e{904} "Return statement before end of function" [MISRA Note 1]
 309:/usr/local/lib/ARM/CMSIS/5.4.0/CMSIS/RTOS2/RTX/Source/rtx_evflags.c ****     return ((uint32_t)osErrorParameter);
 683              		.loc 1 309 0
 684 001a 6FF00300 		mvn	r0, #3
 685 001e 38BD     		pop	{r3, r4, r5, pc}
 686              	.LVL83:
 687              	.L50:
 310:/usr/local/lib/ARM/CMSIS/5.4.0/CMSIS/RTOS2/RTX/Source/rtx_evflags.c ****   }
 311:/usr/local/lib/ARM/CMSIS/5.4.0/CMSIS/RTOS2/RTX/Source/rtx_evflags.c **** 
 312:/usr/local/lib/ARM/CMSIS/5.4.0/CMSIS/RTOS2/RTX/Source/rtx_evflags.c ****   // Clear Event Flags
 313:/usr/local/lib/ARM/CMSIS/5.4.0/CMSIS/RTOS2/RTX/Source/rtx_evflags.c ****   event_flags = EventFlagsClear(ef, flags);
 688              		.loc 1 313 0
 689 0020 FFF7FEFF 		bl	EventFlagsClear
 690              	.LVL84:
 691 0024 0546     		mov	r5, r0
 692              	.LVL85:
 314:/usr/local/lib/ARM/CMSIS/5.4.0/CMSIS/RTOS2/RTX/Source/rtx_evflags.c **** 
 315:/usr/local/lib/ARM/CMSIS/5.4.0/CMSIS/RTOS2/RTX/Source/rtx_evflags.c ****   EvrRtxEventFlagsClearDone(ef, event_flags);
 693              		.loc 1 315 0
 694 0026 0146     		mov	r1, r0
 695 0028 2046     		mov	r0, r4
 696              	.LVL86:
 697 002a FFF7FEFF 		bl	EvrRtxEventFlagsClearDone
 698              	.LVL87:
 316:/usr/local/lib/ARM/CMSIS/5.4.0/CMSIS/RTOS2/RTX/Source/rtx_evflags.c ****   
 317:/usr/local/lib/ARM/CMSIS/5.4.0/CMSIS/RTOS2/RTX/Source/rtx_evflags.c ****   return event_flags;
 699              		.loc 1 317 0
 700 002e 2846     		mov	r0, r5
 318:/usr/local/lib/ARM/CMSIS/5.4.0/CMSIS/RTOS2/RTX/Source/rtx_evflags.c **** }
 701              		.loc 1 318 0
 702 0030 38BD     		pop	{r3, r4, r5, pc}
 703              		.cfi_endproc
 704              	.LFE181:
 706 0032 00BF     		.section	.text.svcRtxEventFlagsGet,"ax",%progbits
 707              		.align	2
 708              		.thumb
 709              		.thumb_func
 711              	svcRtxEventFlagsGet:
 712              	.LFB182:
 319:/usr/local/lib/ARM/CMSIS/5.4.0/CMSIS/RTOS2/RTX/Source/rtx_evflags.c **** 
 320:/usr/local/lib/ARM/CMSIS/5.4.0/CMSIS/RTOS2/RTX/Source/rtx_evflags.c **** /// Get the current Event Flags.
 321:/usr/local/lib/ARM/CMSIS/5.4.0/CMSIS/RTOS2/RTX/Source/rtx_evflags.c **** /// \note API identical to osEventFlagsGet
 322:/usr/local/lib/ARM/CMSIS/5.4.0/CMSIS/RTOS2/RTX/Source/rtx_evflags.c **** static uint32_t svcRtxEventFlagsGet (osEventFlagsId_t ef_id) {
 713              		.loc 1 322 0
 714              		.cfi_startproc
 715              		@ args = 0, pretend = 0, frame = 0
 716              		@ frame_needed = 0, uses_anonymous_args = 0
 717              	.LVL88:
 718 0000 10B5     		push	{r4, lr}
 719              	.LCFI13:
 720              		.cfi_def_cfa_offset 8
 721              		.cfi_offset 4, -8
 722              		.cfi_offset 14, -4
ARM GAS  /tmp/cc4RTizm.s 			page 32


 323:/usr/local/lib/ARM/CMSIS/5.4.0/CMSIS/RTOS2/RTX/Source/rtx_evflags.c ****   os_event_flags_t *ef = osRtxEventFlagsId(ef_id);
 324:/usr/local/lib/ARM/CMSIS/5.4.0/CMSIS/RTOS2/RTX/Source/rtx_evflags.c **** 
 325:/usr/local/lib/ARM/CMSIS/5.4.0/CMSIS/RTOS2/RTX/Source/rtx_evflags.c ****   // Check parameters
 326:/usr/local/lib/ARM/CMSIS/5.4.0/CMSIS/RTOS2/RTX/Source/rtx_evflags.c ****   if ((ef == NULL) || (ef->id != osRtxIdEventFlags)) {
 723              		.loc 1 326 0
 724 0002 0446     		mov	r4, r0
 725 0004 10B1     		cbz	r0, .L54
 726              		.loc 1 326 0 is_stmt 0 discriminator 1
 727 0006 0378     		ldrb	r3, [r0]	@ zero_extendqisi2
 728 0008 032B     		cmp	r3, #3
 729 000a 05D0     		beq	.L55
 730              	.L54:
 327:/usr/local/lib/ARM/CMSIS/5.4.0/CMSIS/RTOS2/RTX/Source/rtx_evflags.c ****     EvrRtxEventFlagsGet(ef, 0U);
 731              		.loc 1 327 0 is_stmt 1
 732 000c 0021     		movs	r1, #0
 733 000e 2046     		mov	r0, r4
 734              	.LVL89:
 735 0010 FFF7FEFF 		bl	EvrRtxEventFlagsGet
 736              	.LVL90:
 328:/usr/local/lib/ARM/CMSIS/5.4.0/CMSIS/RTOS2/RTX/Source/rtx_evflags.c ****     //lint -e{904} "Return statement before end of function" [MISRA Note 1]
 329:/usr/local/lib/ARM/CMSIS/5.4.0/CMSIS/RTOS2/RTX/Source/rtx_evflags.c ****     return 0U;
 737              		.loc 1 329 0
 738 0014 0020     		movs	r0, #0
 739 0016 10BD     		pop	{r4, pc}
 740              	.LVL91:
 741              	.L55:
 330:/usr/local/lib/ARM/CMSIS/5.4.0/CMSIS/RTOS2/RTX/Source/rtx_evflags.c ****   }
 331:/usr/local/lib/ARM/CMSIS/5.4.0/CMSIS/RTOS2/RTX/Source/rtx_evflags.c **** 
 332:/usr/local/lib/ARM/CMSIS/5.4.0/CMSIS/RTOS2/RTX/Source/rtx_evflags.c ****   EvrRtxEventFlagsGet(ef, ef->event_flags);
 742              		.loc 1 332 0
 743 0018 C168     		ldr	r1, [r0, #12]
 744 001a FFF7FEFF 		bl	EvrRtxEventFlagsGet
 745              	.LVL92:
 333:/usr/local/lib/ARM/CMSIS/5.4.0/CMSIS/RTOS2/RTX/Source/rtx_evflags.c **** 
 334:/usr/local/lib/ARM/CMSIS/5.4.0/CMSIS/RTOS2/RTX/Source/rtx_evflags.c ****   return ef->event_flags;
 746              		.loc 1 334 0
 747 001e E068     		ldr	r0, [r4, #12]
 335:/usr/local/lib/ARM/CMSIS/5.4.0/CMSIS/RTOS2/RTX/Source/rtx_evflags.c **** }
 748              		.loc 1 335 0
 749 0020 10BD     		pop	{r4, pc}
 750              		.cfi_endproc
 751              	.LFE182:
 753 0022 00BF     		.section	.text.svcRtxEventFlagsWait,"ax",%progbits
 754              		.align	2
 755              		.thumb
 756              		.thumb_func
 758              	svcRtxEventFlagsWait:
 759              	.LFB183:
 336:/usr/local/lib/ARM/CMSIS/5.4.0/CMSIS/RTOS2/RTX/Source/rtx_evflags.c **** 
 337:/usr/local/lib/ARM/CMSIS/5.4.0/CMSIS/RTOS2/RTX/Source/rtx_evflags.c **** /// Wait for one or more Event Flags to become signaled.
 338:/usr/local/lib/ARM/CMSIS/5.4.0/CMSIS/RTOS2/RTX/Source/rtx_evflags.c **** /// \note API identical to osEventFlagsWait
 339:/usr/local/lib/ARM/CMSIS/5.4.0/CMSIS/RTOS2/RTX/Source/rtx_evflags.c **** static uint32_t svcRtxEventFlagsWait (osEventFlagsId_t ef_id, uint32_t flags, uint32_t options, uin
 760              		.loc 1 339 0
 761              		.cfi_startproc
 762              		@ args = 0, pretend = 0, frame = 0
 763              		@ frame_needed = 0, uses_anonymous_args = 0
 764              	.LVL93:
ARM GAS  /tmp/cc4RTizm.s 			page 33


 765 0000 2DE9F843 		push	{r3, r4, r5, r6, r7, r8, r9, lr}
 766              	.LCFI14:
 767              		.cfi_def_cfa_offset 32
 768              		.cfi_offset 3, -32
 769              		.cfi_offset 4, -28
 770              		.cfi_offset 5, -24
 771              		.cfi_offset 6, -20
 772              		.cfi_offset 7, -16
 773              		.cfi_offset 8, -12
 774              		.cfi_offset 9, -8
 775              		.cfi_offset 14, -4
 776 0004 0446     		mov	r4, r0
 777 0006 1D46     		mov	r5, r3
 778              	.LBB146:
 779              	.LBB147:
 780              		.file 3 "/usr/local/lib/ARM/CMSIS/5.4.0/CMSIS/RTOS2/RTX/Source/rtx_lib.h"
   1:/usr/local/lib/ARM/CMSIS/5.4.0/CMSIS/RTOS2/RTX/Source/rtx_lib.h **** /*
   2:/usr/local/lib/ARM/CMSIS/5.4.0/CMSIS/RTOS2/RTX/Source/rtx_lib.h ****  * Copyright (c) 2013-2018 Arm Limited. All rights reserved.
   3:/usr/local/lib/ARM/CMSIS/5.4.0/CMSIS/RTOS2/RTX/Source/rtx_lib.h ****  *
   4:/usr/local/lib/ARM/CMSIS/5.4.0/CMSIS/RTOS2/RTX/Source/rtx_lib.h ****  * SPDX-License-Identifier: Apache-2.0
   5:/usr/local/lib/ARM/CMSIS/5.4.0/CMSIS/RTOS2/RTX/Source/rtx_lib.h ****  *
   6:/usr/local/lib/ARM/CMSIS/5.4.0/CMSIS/RTOS2/RTX/Source/rtx_lib.h ****  * Licensed under the Apache License, Version 2.0 (the License); you may
   7:/usr/local/lib/ARM/CMSIS/5.4.0/CMSIS/RTOS2/RTX/Source/rtx_lib.h ****  * not use this file except in compliance with the License.
   8:/usr/local/lib/ARM/CMSIS/5.4.0/CMSIS/RTOS2/RTX/Source/rtx_lib.h ****  * You may obtain a copy of the License at
   9:/usr/local/lib/ARM/CMSIS/5.4.0/CMSIS/RTOS2/RTX/Source/rtx_lib.h ****  *
  10:/usr/local/lib/ARM/CMSIS/5.4.0/CMSIS/RTOS2/RTX/Source/rtx_lib.h ****  * www.apache.org/licenses/LICENSE-2.0
  11:/usr/local/lib/ARM/CMSIS/5.4.0/CMSIS/RTOS2/RTX/Source/rtx_lib.h ****  *
  12:/usr/local/lib/ARM/CMSIS/5.4.0/CMSIS/RTOS2/RTX/Source/rtx_lib.h ****  * Unless required by applicable law or agreed to in writing, software
  13:/usr/local/lib/ARM/CMSIS/5.4.0/CMSIS/RTOS2/RTX/Source/rtx_lib.h ****  * distributed under the License is distributed on an AS IS BASIS, WITHOUT
  14:/usr/local/lib/ARM/CMSIS/5.4.0/CMSIS/RTOS2/RTX/Source/rtx_lib.h ****  * WARRANTIES OR CONDITIONS OF ANY KIND, either express or implied.
  15:/usr/local/lib/ARM/CMSIS/5.4.0/CMSIS/RTOS2/RTX/Source/rtx_lib.h ****  * See the License for the specific language governing permissions and
  16:/usr/local/lib/ARM/CMSIS/5.4.0/CMSIS/RTOS2/RTX/Source/rtx_lib.h ****  * limitations under the License.
  17:/usr/local/lib/ARM/CMSIS/5.4.0/CMSIS/RTOS2/RTX/Source/rtx_lib.h ****  *
  18:/usr/local/lib/ARM/CMSIS/5.4.0/CMSIS/RTOS2/RTX/Source/rtx_lib.h ****  * -----------------------------------------------------------------------------
  19:/usr/local/lib/ARM/CMSIS/5.4.0/CMSIS/RTOS2/RTX/Source/rtx_lib.h ****  *
  20:/usr/local/lib/ARM/CMSIS/5.4.0/CMSIS/RTOS2/RTX/Source/rtx_lib.h ****  * Project:     CMSIS-RTOS RTX
  21:/usr/local/lib/ARM/CMSIS/5.4.0/CMSIS/RTOS2/RTX/Source/rtx_lib.h ****  * Title:       RTX Library definitions
  22:/usr/local/lib/ARM/CMSIS/5.4.0/CMSIS/RTOS2/RTX/Source/rtx_lib.h ****  *
  23:/usr/local/lib/ARM/CMSIS/5.4.0/CMSIS/RTOS2/RTX/Source/rtx_lib.h ****  * -----------------------------------------------------------------------------
  24:/usr/local/lib/ARM/CMSIS/5.4.0/CMSIS/RTOS2/RTX/Source/rtx_lib.h ****  */
  25:/usr/local/lib/ARM/CMSIS/5.4.0/CMSIS/RTOS2/RTX/Source/rtx_lib.h **** 
  26:/usr/local/lib/ARM/CMSIS/5.4.0/CMSIS/RTOS2/RTX/Source/rtx_lib.h **** #ifndef RTX_LIB_H_
  27:/usr/local/lib/ARM/CMSIS/5.4.0/CMSIS/RTOS2/RTX/Source/rtx_lib.h **** #define RTX_LIB_H_
  28:/usr/local/lib/ARM/CMSIS/5.4.0/CMSIS/RTOS2/RTX/Source/rtx_lib.h **** 
  29:/usr/local/lib/ARM/CMSIS/5.4.0/CMSIS/RTOS2/RTX/Source/rtx_lib.h **** #include <string.h>
  30:/usr/local/lib/ARM/CMSIS/5.4.0/CMSIS/RTOS2/RTX/Source/rtx_lib.h **** #include "rtx_core_c.h"                 // Cortex core definitions
  31:/usr/local/lib/ARM/CMSIS/5.4.0/CMSIS/RTOS2/RTX/Source/rtx_lib.h **** #if ((defined(__ARM_ARCH_8M_BASE__) && (__ARM_ARCH_8M_BASE__ != 0)) || \
  32:/usr/local/lib/ARM/CMSIS/5.4.0/CMSIS/RTOS2/RTX/Source/rtx_lib.h ****      (defined(__ARM_ARCH_8M_MAIN__) && (__ARM_ARCH_8M_MAIN__ != 0)))
  33:/usr/local/lib/ARM/CMSIS/5.4.0/CMSIS/RTOS2/RTX/Source/rtx_lib.h **** #include "tz_context.h"                 // TrustZone Context API
  34:/usr/local/lib/ARM/CMSIS/5.4.0/CMSIS/RTOS2/RTX/Source/rtx_lib.h **** #endif
  35:/usr/local/lib/ARM/CMSIS/5.4.0/CMSIS/RTOS2/RTX/Source/rtx_lib.h **** #include "os_tick.h"                    // CMSIS OS Tick API
  36:/usr/local/lib/ARM/CMSIS/5.4.0/CMSIS/RTOS2/RTX/Source/rtx_lib.h **** #include "cmsis_os2.h"                  // CMSIS RTOS API
  37:/usr/local/lib/ARM/CMSIS/5.4.0/CMSIS/RTOS2/RTX/Source/rtx_lib.h **** #include "RTX_Config.h"                 // RTX Configuration
  38:/usr/local/lib/ARM/CMSIS/5.4.0/CMSIS/RTOS2/RTX/Source/rtx_lib.h **** #include "rtx_os.h"                     // RTX OS definitions
  39:/usr/local/lib/ARM/CMSIS/5.4.0/CMSIS/RTOS2/RTX/Source/rtx_lib.h **** #include "rtx_evr.h"                    // RTX Event Recorder definitions
  40:/usr/local/lib/ARM/CMSIS/5.4.0/CMSIS/RTOS2/RTX/Source/rtx_lib.h **** 
  41:/usr/local/lib/ARM/CMSIS/5.4.0/CMSIS/RTOS2/RTX/Source/rtx_lib.h **** 
ARM GAS  /tmp/cc4RTizm.s 			page 34


  42:/usr/local/lib/ARM/CMSIS/5.4.0/CMSIS/RTOS2/RTX/Source/rtx_lib.h **** //  ==== Library defines ====
  43:/usr/local/lib/ARM/CMSIS/5.4.0/CMSIS/RTOS2/RTX/Source/rtx_lib.h **** 
  44:/usr/local/lib/ARM/CMSIS/5.4.0/CMSIS/RTOS2/RTX/Source/rtx_lib.h **** #define os_thread_t         osRtxThread_t
  45:/usr/local/lib/ARM/CMSIS/5.4.0/CMSIS/RTOS2/RTX/Source/rtx_lib.h **** #define os_timer_t          osRtxTimer_t
  46:/usr/local/lib/ARM/CMSIS/5.4.0/CMSIS/RTOS2/RTX/Source/rtx_lib.h **** #define os_timer_finfo_t    osRtxTimerFinfo_t
  47:/usr/local/lib/ARM/CMSIS/5.4.0/CMSIS/RTOS2/RTX/Source/rtx_lib.h **** #define os_event_flags_t    osRtxEventFlags_t
  48:/usr/local/lib/ARM/CMSIS/5.4.0/CMSIS/RTOS2/RTX/Source/rtx_lib.h **** #define os_mutex_t          osRtxMutex_t
  49:/usr/local/lib/ARM/CMSIS/5.4.0/CMSIS/RTOS2/RTX/Source/rtx_lib.h **** #define os_semaphore_t      osRtxSemaphore_t
  50:/usr/local/lib/ARM/CMSIS/5.4.0/CMSIS/RTOS2/RTX/Source/rtx_lib.h **** #define os_mp_info_t        osRtxMpInfo_t
  51:/usr/local/lib/ARM/CMSIS/5.4.0/CMSIS/RTOS2/RTX/Source/rtx_lib.h **** #define os_memory_pool_t    osRtxMemoryPool_t
  52:/usr/local/lib/ARM/CMSIS/5.4.0/CMSIS/RTOS2/RTX/Source/rtx_lib.h **** #define os_message_t        osRtxMessage_t
  53:/usr/local/lib/ARM/CMSIS/5.4.0/CMSIS/RTOS2/RTX/Source/rtx_lib.h **** #define os_message_queue_t  osRtxMessageQueue_t
  54:/usr/local/lib/ARM/CMSIS/5.4.0/CMSIS/RTOS2/RTX/Source/rtx_lib.h **** #define os_object_t         osRtxObject_t
  55:/usr/local/lib/ARM/CMSIS/5.4.0/CMSIS/RTOS2/RTX/Source/rtx_lib.h **** 
  56:/usr/local/lib/ARM/CMSIS/5.4.0/CMSIS/RTOS2/RTX/Source/rtx_lib.h **** //  ==== Inline functions ====
  57:/usr/local/lib/ARM/CMSIS/5.4.0/CMSIS/RTOS2/RTX/Source/rtx_lib.h **** 
  58:/usr/local/lib/ARM/CMSIS/5.4.0/CMSIS/RTOS2/RTX/Source/rtx_lib.h **** // Thread ID
  59:/usr/local/lib/ARM/CMSIS/5.4.0/CMSIS/RTOS2/RTX/Source/rtx_lib.h **** __STATIC_INLINE os_thread_t *osRtxThreadId (osThreadId_t thread_id) {
  60:/usr/local/lib/ARM/CMSIS/5.4.0/CMSIS/RTOS2/RTX/Source/rtx_lib.h ****   //lint -e{9079} -e{9087} "cast from pointer to void to pointer to object type" [MISRA Note 2]
  61:/usr/local/lib/ARM/CMSIS/5.4.0/CMSIS/RTOS2/RTX/Source/rtx_lib.h ****   return ((os_thread_t *)thread_id);
  62:/usr/local/lib/ARM/CMSIS/5.4.0/CMSIS/RTOS2/RTX/Source/rtx_lib.h **** }
  63:/usr/local/lib/ARM/CMSIS/5.4.0/CMSIS/RTOS2/RTX/Source/rtx_lib.h **** // Timer ID
  64:/usr/local/lib/ARM/CMSIS/5.4.0/CMSIS/RTOS2/RTX/Source/rtx_lib.h **** __STATIC_INLINE os_timer_t *osRtxTimerId (osTimerId_t timer_id) {
  65:/usr/local/lib/ARM/CMSIS/5.4.0/CMSIS/RTOS2/RTX/Source/rtx_lib.h ****   //lint -e{9079} -e{9087} "cast from pointer to void to pointer to object type" [MISRA Note 2]
  66:/usr/local/lib/ARM/CMSIS/5.4.0/CMSIS/RTOS2/RTX/Source/rtx_lib.h ****   return ((os_timer_t *)timer_id);
  67:/usr/local/lib/ARM/CMSIS/5.4.0/CMSIS/RTOS2/RTX/Source/rtx_lib.h **** }
  68:/usr/local/lib/ARM/CMSIS/5.4.0/CMSIS/RTOS2/RTX/Source/rtx_lib.h **** // Event Flags ID
  69:/usr/local/lib/ARM/CMSIS/5.4.0/CMSIS/RTOS2/RTX/Source/rtx_lib.h **** __STATIC_INLINE os_event_flags_t *osRtxEventFlagsId (osEventFlagsId_t ef_id) {
  70:/usr/local/lib/ARM/CMSIS/5.4.0/CMSIS/RTOS2/RTX/Source/rtx_lib.h ****   //lint -e{9079} -e{9087} "cast from pointer to void to pointer to object type" [MISRA Note 2]
  71:/usr/local/lib/ARM/CMSIS/5.4.0/CMSIS/RTOS2/RTX/Source/rtx_lib.h ****   return ((os_event_flags_t *)ef_id);
  72:/usr/local/lib/ARM/CMSIS/5.4.0/CMSIS/RTOS2/RTX/Source/rtx_lib.h **** }
  73:/usr/local/lib/ARM/CMSIS/5.4.0/CMSIS/RTOS2/RTX/Source/rtx_lib.h **** // Mutex ID
  74:/usr/local/lib/ARM/CMSIS/5.4.0/CMSIS/RTOS2/RTX/Source/rtx_lib.h **** __STATIC_INLINE os_mutex_t *osRtxMutexId (osMutexId_t mutex_id) {
  75:/usr/local/lib/ARM/CMSIS/5.4.0/CMSIS/RTOS2/RTX/Source/rtx_lib.h ****   //lint -e{9079} -e{9087} "cast from pointer to void to pointer to object type" [MISRA Note 2]
  76:/usr/local/lib/ARM/CMSIS/5.4.0/CMSIS/RTOS2/RTX/Source/rtx_lib.h ****   return ((os_mutex_t *)mutex_id);
  77:/usr/local/lib/ARM/CMSIS/5.4.0/CMSIS/RTOS2/RTX/Source/rtx_lib.h **** }
  78:/usr/local/lib/ARM/CMSIS/5.4.0/CMSIS/RTOS2/RTX/Source/rtx_lib.h **** // Semaphore ID
  79:/usr/local/lib/ARM/CMSIS/5.4.0/CMSIS/RTOS2/RTX/Source/rtx_lib.h **** __STATIC_INLINE os_semaphore_t *osRtxSemaphoreId (osSemaphoreId_t semaphore_id) {
  80:/usr/local/lib/ARM/CMSIS/5.4.0/CMSIS/RTOS2/RTX/Source/rtx_lib.h ****   //lint -e{9079} -e{9087} "cast from pointer to void to pointer to object type" [MISRA Note 2]
  81:/usr/local/lib/ARM/CMSIS/5.4.0/CMSIS/RTOS2/RTX/Source/rtx_lib.h ****   return ((os_semaphore_t *)semaphore_id);
  82:/usr/local/lib/ARM/CMSIS/5.4.0/CMSIS/RTOS2/RTX/Source/rtx_lib.h **** }
  83:/usr/local/lib/ARM/CMSIS/5.4.0/CMSIS/RTOS2/RTX/Source/rtx_lib.h **** // Memory Pool ID
  84:/usr/local/lib/ARM/CMSIS/5.4.0/CMSIS/RTOS2/RTX/Source/rtx_lib.h **** __STATIC_INLINE os_memory_pool_t *osRtxMemoryPoolId (osMemoryPoolId_t mp_id) {
  85:/usr/local/lib/ARM/CMSIS/5.4.0/CMSIS/RTOS2/RTX/Source/rtx_lib.h ****   //lint -e{9079} -e{9087} "cast from pointer to void to pointer to object type" [MISRA Note 2]
  86:/usr/local/lib/ARM/CMSIS/5.4.0/CMSIS/RTOS2/RTX/Source/rtx_lib.h ****   return ((os_memory_pool_t *)mp_id);
  87:/usr/local/lib/ARM/CMSIS/5.4.0/CMSIS/RTOS2/RTX/Source/rtx_lib.h **** }
  88:/usr/local/lib/ARM/CMSIS/5.4.0/CMSIS/RTOS2/RTX/Source/rtx_lib.h **** // Message Queue ID
  89:/usr/local/lib/ARM/CMSIS/5.4.0/CMSIS/RTOS2/RTX/Source/rtx_lib.h **** __STATIC_INLINE os_message_queue_t *osRtxMessageQueueId (osMessageQueueId_t mq_id) {
  90:/usr/local/lib/ARM/CMSIS/5.4.0/CMSIS/RTOS2/RTX/Source/rtx_lib.h ****   //lint -e{9079} -e{9087} "cast from pointer to void to pointer to object type" [MISRA Note 2]
  91:/usr/local/lib/ARM/CMSIS/5.4.0/CMSIS/RTOS2/RTX/Source/rtx_lib.h ****   return ((os_message_queue_t *)mq_id);
  92:/usr/local/lib/ARM/CMSIS/5.4.0/CMSIS/RTOS2/RTX/Source/rtx_lib.h **** }
  93:/usr/local/lib/ARM/CMSIS/5.4.0/CMSIS/RTOS2/RTX/Source/rtx_lib.h **** 
  94:/usr/local/lib/ARM/CMSIS/5.4.0/CMSIS/RTOS2/RTX/Source/rtx_lib.h **** // Generic Object
  95:/usr/local/lib/ARM/CMSIS/5.4.0/CMSIS/RTOS2/RTX/Source/rtx_lib.h **** __STATIC_INLINE os_object_t *osRtxObject (void *object) {
  96:/usr/local/lib/ARM/CMSIS/5.4.0/CMSIS/RTOS2/RTX/Source/rtx_lib.h ****   //lint -e{9079} -e{9087} "cast from pointer to void to pointer to object type" [MISRA Note 3]
  97:/usr/local/lib/ARM/CMSIS/5.4.0/CMSIS/RTOS2/RTX/Source/rtx_lib.h ****   return ((os_object_t *)object);
  98:/usr/local/lib/ARM/CMSIS/5.4.0/CMSIS/RTOS2/RTX/Source/rtx_lib.h **** }
ARM GAS  /tmp/cc4RTizm.s 			page 35


  99:/usr/local/lib/ARM/CMSIS/5.4.0/CMSIS/RTOS2/RTX/Source/rtx_lib.h **** 
 100:/usr/local/lib/ARM/CMSIS/5.4.0/CMSIS/RTOS2/RTX/Source/rtx_lib.h **** // Thread Object
 101:/usr/local/lib/ARM/CMSIS/5.4.0/CMSIS/RTOS2/RTX/Source/rtx_lib.h **** __STATIC_INLINE os_thread_t *osRtxThreadObject (os_object_t *object) {
 102:/usr/local/lib/ARM/CMSIS/5.4.0/CMSIS/RTOS2/RTX/Source/rtx_lib.h ****   //lint -e{740} -e{826} -e{9087} "cast from pointer to generic object to specific object" [MISRA N
 103:/usr/local/lib/ARM/CMSIS/5.4.0/CMSIS/RTOS2/RTX/Source/rtx_lib.h ****   return ((os_thread_t *)object);
 104:/usr/local/lib/ARM/CMSIS/5.4.0/CMSIS/RTOS2/RTX/Source/rtx_lib.h **** }
 105:/usr/local/lib/ARM/CMSIS/5.4.0/CMSIS/RTOS2/RTX/Source/rtx_lib.h **** // Timer Object
 106:/usr/local/lib/ARM/CMSIS/5.4.0/CMSIS/RTOS2/RTX/Source/rtx_lib.h **** __STATIC_INLINE os_timer_t *osRtxTimerObject (os_object_t *object) {
 107:/usr/local/lib/ARM/CMSIS/5.4.0/CMSIS/RTOS2/RTX/Source/rtx_lib.h ****   //lint -e{740} -e{826} -e{9087} "cast from pointer to generic object to specific object" [MISRA N
 108:/usr/local/lib/ARM/CMSIS/5.4.0/CMSIS/RTOS2/RTX/Source/rtx_lib.h ****   return ((os_timer_t *)object);
 109:/usr/local/lib/ARM/CMSIS/5.4.0/CMSIS/RTOS2/RTX/Source/rtx_lib.h **** }
 110:/usr/local/lib/ARM/CMSIS/5.4.0/CMSIS/RTOS2/RTX/Source/rtx_lib.h **** // Event Flags Object
 111:/usr/local/lib/ARM/CMSIS/5.4.0/CMSIS/RTOS2/RTX/Source/rtx_lib.h **** __STATIC_INLINE os_event_flags_t *osRtxEventFlagsObject (os_object_t *object) {
 112:/usr/local/lib/ARM/CMSIS/5.4.0/CMSIS/RTOS2/RTX/Source/rtx_lib.h ****   //lint -e{740} -e{826} -e{9087} "cast from pointer to generic object to specific object" [MISRA N
 113:/usr/local/lib/ARM/CMSIS/5.4.0/CMSIS/RTOS2/RTX/Source/rtx_lib.h ****   return ((os_event_flags_t *)object);
 114:/usr/local/lib/ARM/CMSIS/5.4.0/CMSIS/RTOS2/RTX/Source/rtx_lib.h **** }
 115:/usr/local/lib/ARM/CMSIS/5.4.0/CMSIS/RTOS2/RTX/Source/rtx_lib.h **** // Mutex Object
 116:/usr/local/lib/ARM/CMSIS/5.4.0/CMSIS/RTOS2/RTX/Source/rtx_lib.h **** __STATIC_INLINE os_mutex_t *osRtxMutexObject (os_object_t *object) {
 117:/usr/local/lib/ARM/CMSIS/5.4.0/CMSIS/RTOS2/RTX/Source/rtx_lib.h ****   //lint -e{740} -e{826} -e{9087} "cast from pointer to generic object to specific object" [MISRA N
 118:/usr/local/lib/ARM/CMSIS/5.4.0/CMSIS/RTOS2/RTX/Source/rtx_lib.h ****   return ((os_mutex_t *)object);
 119:/usr/local/lib/ARM/CMSIS/5.4.0/CMSIS/RTOS2/RTX/Source/rtx_lib.h **** }
 120:/usr/local/lib/ARM/CMSIS/5.4.0/CMSIS/RTOS2/RTX/Source/rtx_lib.h **** // Semaphore Object
 121:/usr/local/lib/ARM/CMSIS/5.4.0/CMSIS/RTOS2/RTX/Source/rtx_lib.h **** __STATIC_INLINE os_semaphore_t *osRtxSemaphoreObject (os_object_t *object) {
 122:/usr/local/lib/ARM/CMSIS/5.4.0/CMSIS/RTOS2/RTX/Source/rtx_lib.h ****   //lint -e{740} -e{826} -e{9087} "cast from pointer to generic object to specific object" [MISRA N
 123:/usr/local/lib/ARM/CMSIS/5.4.0/CMSIS/RTOS2/RTX/Source/rtx_lib.h ****   return ((os_semaphore_t *)object);
 124:/usr/local/lib/ARM/CMSIS/5.4.0/CMSIS/RTOS2/RTX/Source/rtx_lib.h **** }
 125:/usr/local/lib/ARM/CMSIS/5.4.0/CMSIS/RTOS2/RTX/Source/rtx_lib.h **** // Memory Pool Object
 126:/usr/local/lib/ARM/CMSIS/5.4.0/CMSIS/RTOS2/RTX/Source/rtx_lib.h **** __STATIC_INLINE os_memory_pool_t *osRtxMemoryPoolObject (os_object_t *object) {
 127:/usr/local/lib/ARM/CMSIS/5.4.0/CMSIS/RTOS2/RTX/Source/rtx_lib.h ****   //lint -e{740} -e{826} -e{9087} "cast from pointer to generic object to specific object" [MISRA N
 128:/usr/local/lib/ARM/CMSIS/5.4.0/CMSIS/RTOS2/RTX/Source/rtx_lib.h ****   return ((os_memory_pool_t *)object);
 129:/usr/local/lib/ARM/CMSIS/5.4.0/CMSIS/RTOS2/RTX/Source/rtx_lib.h **** }
 130:/usr/local/lib/ARM/CMSIS/5.4.0/CMSIS/RTOS2/RTX/Source/rtx_lib.h **** // Message Queue Object
 131:/usr/local/lib/ARM/CMSIS/5.4.0/CMSIS/RTOS2/RTX/Source/rtx_lib.h **** __STATIC_INLINE os_message_queue_t *osRtxMessageQueueObject (os_object_t *object) {
 132:/usr/local/lib/ARM/CMSIS/5.4.0/CMSIS/RTOS2/RTX/Source/rtx_lib.h ****   //lint -e{740} -e{826} -e{9087} "cast from pointer to generic object to specific object" [MISRA N
 133:/usr/local/lib/ARM/CMSIS/5.4.0/CMSIS/RTOS2/RTX/Source/rtx_lib.h ****   return ((os_message_queue_t *)object);
 134:/usr/local/lib/ARM/CMSIS/5.4.0/CMSIS/RTOS2/RTX/Source/rtx_lib.h **** }
 135:/usr/local/lib/ARM/CMSIS/5.4.0/CMSIS/RTOS2/RTX/Source/rtx_lib.h **** // Message Object
 136:/usr/local/lib/ARM/CMSIS/5.4.0/CMSIS/RTOS2/RTX/Source/rtx_lib.h **** __STATIC_INLINE os_message_t *osRtxMessageObject (os_object_t *object) {
 137:/usr/local/lib/ARM/CMSIS/5.4.0/CMSIS/RTOS2/RTX/Source/rtx_lib.h ****   //lint -e{740} -e{826} -e{9087} "cast from pointer to generic object to specific object" [MISRA N
 138:/usr/local/lib/ARM/CMSIS/5.4.0/CMSIS/RTOS2/RTX/Source/rtx_lib.h ****   return ((os_message_t *)object);
 139:/usr/local/lib/ARM/CMSIS/5.4.0/CMSIS/RTOS2/RTX/Source/rtx_lib.h **** }
 140:/usr/local/lib/ARM/CMSIS/5.4.0/CMSIS/RTOS2/RTX/Source/rtx_lib.h **** 
 141:/usr/local/lib/ARM/CMSIS/5.4.0/CMSIS/RTOS2/RTX/Source/rtx_lib.h **** // Kernel State
 142:/usr/local/lib/ARM/CMSIS/5.4.0/CMSIS/RTOS2/RTX/Source/rtx_lib.h **** __STATIC_INLINE osKernelState_t osRtxKernelState (void) {
 143:/usr/local/lib/ARM/CMSIS/5.4.0/CMSIS/RTOS2/RTX/Source/rtx_lib.h ****   //lint -e{9030} -e{9034} "cast to enum"
 144:/usr/local/lib/ARM/CMSIS/5.4.0/CMSIS/RTOS2/RTX/Source/rtx_lib.h ****   return ((osKernelState_t)(osRtxInfo.kernel.state));
 145:/usr/local/lib/ARM/CMSIS/5.4.0/CMSIS/RTOS2/RTX/Source/rtx_lib.h **** }
 146:/usr/local/lib/ARM/CMSIS/5.4.0/CMSIS/RTOS2/RTX/Source/rtx_lib.h **** 
 147:/usr/local/lib/ARM/CMSIS/5.4.0/CMSIS/RTOS2/RTX/Source/rtx_lib.h **** // Thread State
 148:/usr/local/lib/ARM/CMSIS/5.4.0/CMSIS/RTOS2/RTX/Source/rtx_lib.h **** __STATIC_INLINE osThreadState_t osRtxThreadState (const os_thread_t *thread) {
 149:/usr/local/lib/ARM/CMSIS/5.4.0/CMSIS/RTOS2/RTX/Source/rtx_lib.h ****   uint8_t state = thread->state & osRtxThreadStateMask;
 150:/usr/local/lib/ARM/CMSIS/5.4.0/CMSIS/RTOS2/RTX/Source/rtx_lib.h ****   //lint -e{9030} -e{9034} "cast to enum"
 151:/usr/local/lib/ARM/CMSIS/5.4.0/CMSIS/RTOS2/RTX/Source/rtx_lib.h ****   return ((osThreadState_t)state);
 152:/usr/local/lib/ARM/CMSIS/5.4.0/CMSIS/RTOS2/RTX/Source/rtx_lib.h **** }
 153:/usr/local/lib/ARM/CMSIS/5.4.0/CMSIS/RTOS2/RTX/Source/rtx_lib.h **** 
 154:/usr/local/lib/ARM/CMSIS/5.4.0/CMSIS/RTOS2/RTX/Source/rtx_lib.h **** // Thread Priority
 155:/usr/local/lib/ARM/CMSIS/5.4.0/CMSIS/RTOS2/RTX/Source/rtx_lib.h **** __STATIC_INLINE osPriority_t osRtxThreadPriority (const os_thread_t *thread) {
ARM GAS  /tmp/cc4RTizm.s 			page 36


 156:/usr/local/lib/ARM/CMSIS/5.4.0/CMSIS/RTOS2/RTX/Source/rtx_lib.h ****   //lint -e{9030} -e{9034} "cast to enum"
 157:/usr/local/lib/ARM/CMSIS/5.4.0/CMSIS/RTOS2/RTX/Source/rtx_lib.h ****   return ((osPriority_t)thread->priority);
 158:/usr/local/lib/ARM/CMSIS/5.4.0/CMSIS/RTOS2/RTX/Source/rtx_lib.h **** }
 159:/usr/local/lib/ARM/CMSIS/5.4.0/CMSIS/RTOS2/RTX/Source/rtx_lib.h **** 
 160:/usr/local/lib/ARM/CMSIS/5.4.0/CMSIS/RTOS2/RTX/Source/rtx_lib.h **** // Kernel Get State
 161:/usr/local/lib/ARM/CMSIS/5.4.0/CMSIS/RTOS2/RTX/Source/rtx_lib.h **** __STATIC_INLINE uint8_t osRtxKernelGetState (void) {
 162:/usr/local/lib/ARM/CMSIS/5.4.0/CMSIS/RTOS2/RTX/Source/rtx_lib.h ****   return osRtxInfo.kernel.state;
 163:/usr/local/lib/ARM/CMSIS/5.4.0/CMSIS/RTOS2/RTX/Source/rtx_lib.h **** }
 164:/usr/local/lib/ARM/CMSIS/5.4.0/CMSIS/RTOS2/RTX/Source/rtx_lib.h **** 
 165:/usr/local/lib/ARM/CMSIS/5.4.0/CMSIS/RTOS2/RTX/Source/rtx_lib.h **** // Thread Get/Set Running
 166:/usr/local/lib/ARM/CMSIS/5.4.0/CMSIS/RTOS2/RTX/Source/rtx_lib.h **** __STATIC_INLINE os_thread_t *osRtxThreadGetRunning (void) {
 167:/usr/local/lib/ARM/CMSIS/5.4.0/CMSIS/RTOS2/RTX/Source/rtx_lib.h ****   return osRtxInfo.thread.run.curr;
 781              		.loc 3 167 0
 782 0008 274B     		ldr	r3, .L67
 783              	.LVL94:
 784 000a 5E69     		ldr	r6, [r3, #20]
 785              	.LBE147:
 786              	.LBE146:
 340:/usr/local/lib/ARM/CMSIS/5.4.0/CMSIS/RTOS2/RTX/Source/rtx_evflags.c ****   os_event_flags_t *ef = osRtxEventFlagsId(ef_id);
 341:/usr/local/lib/ARM/CMSIS/5.4.0/CMSIS/RTOS2/RTX/Source/rtx_evflags.c ****   os_thread_t      *running_thread;
 342:/usr/local/lib/ARM/CMSIS/5.4.0/CMSIS/RTOS2/RTX/Source/rtx_evflags.c ****   uint32_t          event_flags;
 343:/usr/local/lib/ARM/CMSIS/5.4.0/CMSIS/RTOS2/RTX/Source/rtx_evflags.c **** 
 344:/usr/local/lib/ARM/CMSIS/5.4.0/CMSIS/RTOS2/RTX/Source/rtx_evflags.c ****   // Check running thread
 345:/usr/local/lib/ARM/CMSIS/5.4.0/CMSIS/RTOS2/RTX/Source/rtx_evflags.c ****   running_thread = osRtxThreadGetRunning();
 346:/usr/local/lib/ARM/CMSIS/5.4.0/CMSIS/RTOS2/RTX/Source/rtx_evflags.c ****   if (running_thread == NULL) {
 787              		.loc 1 346 0
 788 000c 3EB9     		cbnz	r6, .L59
 347:/usr/local/lib/ARM/CMSIS/5.4.0/CMSIS/RTOS2/RTX/Source/rtx_evflags.c ****     EvrRtxEventFlagsError(ef, osRtxErrorKernelNotRunning);
 789              		.loc 1 347 0
 790 000e 6FF00701 		mvn	r1, #7
 791              	.LVL95:
 792 0012 FFF7FEFF 		bl	EvrRtxEventFlagsError
 793              	.LVL96:
 348:/usr/local/lib/ARM/CMSIS/5.4.0/CMSIS/RTOS2/RTX/Source/rtx_evflags.c ****     //lint -e{904} "Return statement before end of function" [MISRA Note 1]
 349:/usr/local/lib/ARM/CMSIS/5.4.0/CMSIS/RTOS2/RTX/Source/rtx_evflags.c ****     return ((uint32_t)osError);
 794              		.loc 1 349 0
 795 0016 4FF0FF30 		mov	r0, #-1
 796 001a BDE8F883 		pop	{r3, r4, r5, r6, r7, r8, r9, pc}
 797              	.LVL97:
 798              	.L59:
 799 001e 0F46     		mov	r7, r1
 800 0020 9046     		mov	r8, r2
 350:/usr/local/lib/ARM/CMSIS/5.4.0/CMSIS/RTOS2/RTX/Source/rtx_evflags.c ****   }
 351:/usr/local/lib/ARM/CMSIS/5.4.0/CMSIS/RTOS2/RTX/Source/rtx_evflags.c **** 
 352:/usr/local/lib/ARM/CMSIS/5.4.0/CMSIS/RTOS2/RTX/Source/rtx_evflags.c ****   // Check parameters
 353:/usr/local/lib/ARM/CMSIS/5.4.0/CMSIS/RTOS2/RTX/Source/rtx_evflags.c ****   if ((ef == NULL) || (ef->id != osRtxIdEventFlags) ||
 801              		.loc 1 353 0
 802 0022 20B1     		cbz	r0, .L61
 803              		.loc 1 353 0 is_stmt 0 discriminator 1
 804 0024 0378     		ldrb	r3, [r0]	@ zero_extendqisi2
 805 0026 032B     		cmp	r3, #3
 806 0028 01D1     		bne	.L61
 807              		.loc 1 353 0 discriminator 2
 808 002a 0029     		cmp	r1, #0
 809 002c 08DA     		bge	.L62
 810              	.L61:
 354:/usr/local/lib/ARM/CMSIS/5.4.0/CMSIS/RTOS2/RTX/Source/rtx_evflags.c ****       ((flags & ~(((uint32_t)1U << osRtxEventFlagsLimit) - 1U)) != 0U)) {
ARM GAS  /tmp/cc4RTizm.s 			page 37


 355:/usr/local/lib/ARM/CMSIS/5.4.0/CMSIS/RTOS2/RTX/Source/rtx_evflags.c ****     EvrRtxEventFlagsError(ef, (int32_t)osErrorParameter);
 811              		.loc 1 355 0 is_stmt 1
 812 002e 6FF00301 		mvn	r1, #3
 813              	.LVL98:
 814 0032 2046     		mov	r0, r4
 815              	.LVL99:
 816 0034 FFF7FEFF 		bl	EvrRtxEventFlagsError
 817              	.LVL100:
 356:/usr/local/lib/ARM/CMSIS/5.4.0/CMSIS/RTOS2/RTX/Source/rtx_evflags.c ****     //lint -e{904} "Return statement before end of function" [MISRA Note 1]
 357:/usr/local/lib/ARM/CMSIS/5.4.0/CMSIS/RTOS2/RTX/Source/rtx_evflags.c ****     return ((uint32_t)osErrorParameter);
 818              		.loc 1 357 0
 819 0038 6FF00300 		mvn	r0, #3
 820 003c BDE8F883 		pop	{r3, r4, r5, r6, r7, r8, r9, pc}
 821              	.LVL101:
 822              	.L62:
 358:/usr/local/lib/ARM/CMSIS/5.4.0/CMSIS/RTOS2/RTX/Source/rtx_evflags.c ****   }
 359:/usr/local/lib/ARM/CMSIS/5.4.0/CMSIS/RTOS2/RTX/Source/rtx_evflags.c **** 
 360:/usr/local/lib/ARM/CMSIS/5.4.0/CMSIS/RTOS2/RTX/Source/rtx_evflags.c ****   // Check Event Flags
 361:/usr/local/lib/ARM/CMSIS/5.4.0/CMSIS/RTOS2/RTX/Source/rtx_evflags.c ****   event_flags = EventFlagsCheck(ef, flags, options);
 823              		.loc 1 361 0
 824 0040 FFF7FEFF 		bl	EventFlagsCheck
 825              	.LVL102:
 362:/usr/local/lib/ARM/CMSIS/5.4.0/CMSIS/RTOS2/RTX/Source/rtx_evflags.c ****   if (event_flags != 0U) {
 826              		.loc 1 362 0
 827 0044 8146     		mov	r9, r0
 828 0046 40B1     		cbz	r0, .L63
 363:/usr/local/lib/ARM/CMSIS/5.4.0/CMSIS/RTOS2/RTX/Source/rtx_evflags.c ****     EvrRtxEventFlagsWaitCompleted(ef, flags, options, event_flags);
 829              		.loc 1 363 0
 830 0048 0346     		mov	r3, r0
 831 004a 4246     		mov	r2, r8
 832 004c 3946     		mov	r1, r7
 833 004e 2046     		mov	r0, r4
 834              	.LVL103:
 835 0050 FFF7FEFF 		bl	EvrRtxEventFlagsWaitCompleted
 836              	.LVL104:
 361:/usr/local/lib/ARM/CMSIS/5.4.0/CMSIS/RTOS2/RTX/Source/rtx_evflags.c ****   if (event_flags != 0U) {
 837              		.loc 1 361 0
 838 0054 4846     		mov	r0, r9
 839 0056 BDE8F883 		pop	{r3, r4, r5, r6, r7, r8, r9, pc}
 840              	.LVL105:
 841              	.L63:
 364:/usr/local/lib/ARM/CMSIS/5.4.0/CMSIS/RTOS2/RTX/Source/rtx_evflags.c ****   } else {
 365:/usr/local/lib/ARM/CMSIS/5.4.0/CMSIS/RTOS2/RTX/Source/rtx_evflags.c ****     // Check if timeout is specified
 366:/usr/local/lib/ARM/CMSIS/5.4.0/CMSIS/RTOS2/RTX/Source/rtx_evflags.c ****     if (timeout != 0U) {
 842              		.loc 1 366 0
 843 005a E5B1     		cbz	r5, .L64
 367:/usr/local/lib/ARM/CMSIS/5.4.0/CMSIS/RTOS2/RTX/Source/rtx_evflags.c ****       EvrRtxEventFlagsWaitPending(ef, flags, options, timeout);
 844              		.loc 1 367 0
 845 005c 2B46     		mov	r3, r5
 846 005e 4246     		mov	r2, r8
 847 0060 3946     		mov	r1, r7
 848 0062 2046     		mov	r0, r4
 849              	.LVL106:
 850 0064 FFF7FEFF 		bl	EvrRtxEventFlagsWaitPending
 851              	.LVL107:
 368:/usr/local/lib/ARM/CMSIS/5.4.0/CMSIS/RTOS2/RTX/Source/rtx_evflags.c ****       // Store waiting flags and options
 369:/usr/local/lib/ARM/CMSIS/5.4.0/CMSIS/RTOS2/RTX/Source/rtx_evflags.c ****       running_thread->wait_flags = flags;
ARM GAS  /tmp/cc4RTizm.s 			page 38


 852              		.loc 1 369 0
 853 0068 7762     		str	r7, [r6, #36]
 370:/usr/local/lib/ARM/CMSIS/5.4.0/CMSIS/RTOS2/RTX/Source/rtx_evflags.c ****       running_thread->flags_options = (uint8_t)options;
 854              		.loc 1 370 0
 855 006a 86F82380 		strb	r8, [r6, #35]
 371:/usr/local/lib/ARM/CMSIS/5.4.0/CMSIS/RTOS2/RTX/Source/rtx_evflags.c ****       // Suspend current Thread
 372:/usr/local/lib/ARM/CMSIS/5.4.0/CMSIS/RTOS2/RTX/Source/rtx_evflags.c ****       if (osRtxThreadWaitEnter(osRtxThreadWaitingEventFlags, timeout)) {
 856              		.loc 1 372 0
 857 006e 2946     		mov	r1, r5
 858 0070 4320     		movs	r0, #67
 859 0072 FFF7FEFF 		bl	osRtxThreadWaitEnter
 860              	.LVL108:
 861 0076 38B1     		cbz	r0, .L65
 373:/usr/local/lib/ARM/CMSIS/5.4.0/CMSIS/RTOS2/RTX/Source/rtx_evflags.c ****         osRtxThreadListPut(osRtxObject(ef), running_thread);
 862              		.loc 1 373 0
 863 0078 3146     		mov	r1, r6
 864 007a 2046     		mov	r0, r4
 865 007c FFF7FEFF 		bl	osRtxThreadListPut
 866              	.LVL109:
 374:/usr/local/lib/ARM/CMSIS/5.4.0/CMSIS/RTOS2/RTX/Source/rtx_evflags.c ****       } else {
 375:/usr/local/lib/ARM/CMSIS/5.4.0/CMSIS/RTOS2/RTX/Source/rtx_evflags.c ****         EvrRtxEventFlagsWaitTimeout(ef);
 376:/usr/local/lib/ARM/CMSIS/5.4.0/CMSIS/RTOS2/RTX/Source/rtx_evflags.c ****       }
 377:/usr/local/lib/ARM/CMSIS/5.4.0/CMSIS/RTOS2/RTX/Source/rtx_evflags.c ****       event_flags = (uint32_t)osErrorTimeout;
 867              		.loc 1 377 0
 868 0080 6FF00100 		mvn	r0, #1
 869 0084 BDE8F883 		pop	{r3, r4, r5, r6, r7, r8, r9, pc}
 870              	.LVL110:
 871              	.L65:
 375:/usr/local/lib/ARM/CMSIS/5.4.0/CMSIS/RTOS2/RTX/Source/rtx_evflags.c ****       }
 872              		.loc 1 375 0
 873 0088 2046     		mov	r0, r4
 874 008a FFF7FEFF 		bl	EvrRtxEventFlagsWaitTimeout
 875              	.LVL111:
 876              		.loc 1 377 0
 877 008e 6FF00100 		mvn	r0, #1
 878 0092 BDE8F883 		pop	{r3, r4, r5, r6, r7, r8, r9, pc}
 879              	.LVL112:
 880              	.L64:
 378:/usr/local/lib/ARM/CMSIS/5.4.0/CMSIS/RTOS2/RTX/Source/rtx_evflags.c ****     } else {
 379:/usr/local/lib/ARM/CMSIS/5.4.0/CMSIS/RTOS2/RTX/Source/rtx_evflags.c ****       EvrRtxEventFlagsWaitNotCompleted(ef, flags, options);
 881              		.loc 1 379 0
 882 0096 4246     		mov	r2, r8
 883 0098 3946     		mov	r1, r7
 884 009a 2046     		mov	r0, r4
 885              	.LVL113:
 886 009c FFF7FEFF 		bl	EvrRtxEventFlagsWaitNotCompleted
 887              	.LVL114:
 380:/usr/local/lib/ARM/CMSIS/5.4.0/CMSIS/RTOS2/RTX/Source/rtx_evflags.c ****       event_flags = (uint32_t)osErrorResource;
 888              		.loc 1 380 0
 889 00a0 6FF00200 		mvn	r0, #2
 381:/usr/local/lib/ARM/CMSIS/5.4.0/CMSIS/RTOS2/RTX/Source/rtx_evflags.c ****     }
 382:/usr/local/lib/ARM/CMSIS/5.4.0/CMSIS/RTOS2/RTX/Source/rtx_evflags.c ****   }
 383:/usr/local/lib/ARM/CMSIS/5.4.0/CMSIS/RTOS2/RTX/Source/rtx_evflags.c **** 
 384:/usr/local/lib/ARM/CMSIS/5.4.0/CMSIS/RTOS2/RTX/Source/rtx_evflags.c ****   return event_flags;
 385:/usr/local/lib/ARM/CMSIS/5.4.0/CMSIS/RTOS2/RTX/Source/rtx_evflags.c **** }
 890              		.loc 1 385 0
 891 00a4 BDE8F883 		pop	{r3, r4, r5, r6, r7, r8, r9, pc}
ARM GAS  /tmp/cc4RTizm.s 			page 39


 892              	.LVL115:
 893              	.L68:
 894              		.align	2
 895              	.L67:
 896 00a8 00000000 		.word	osRtxInfo
 897              		.cfi_endproc
 898              	.LFE183:
 900              		.section	.text.svcRtxEventFlagsDelete,"ax",%progbits
 901              		.align	2
 902              		.thumb
 903              		.thumb_func
 905              	svcRtxEventFlagsDelete:
 906              	.LFB184:
 386:/usr/local/lib/ARM/CMSIS/5.4.0/CMSIS/RTOS2/RTX/Source/rtx_evflags.c **** 
 387:/usr/local/lib/ARM/CMSIS/5.4.0/CMSIS/RTOS2/RTX/Source/rtx_evflags.c **** /// Delete an Event Flags object.
 388:/usr/local/lib/ARM/CMSIS/5.4.0/CMSIS/RTOS2/RTX/Source/rtx_evflags.c **** /// \note API identical to osEventFlagsDelete
 389:/usr/local/lib/ARM/CMSIS/5.4.0/CMSIS/RTOS2/RTX/Source/rtx_evflags.c **** static osStatus_t svcRtxEventFlagsDelete (osEventFlagsId_t ef_id) {
 907              		.loc 1 389 0
 908              		.cfi_startproc
 909              		@ args = 0, pretend = 0, frame = 0
 910              		@ frame_needed = 0, uses_anonymous_args = 0
 911              	.LVL116:
 912 0000 10B5     		push	{r4, lr}
 913              	.LCFI15:
 914              		.cfi_def_cfa_offset 8
 915              		.cfi_offset 4, -8
 916              		.cfi_offset 14, -4
 390:/usr/local/lib/ARM/CMSIS/5.4.0/CMSIS/RTOS2/RTX/Source/rtx_evflags.c ****   os_event_flags_t *ef = osRtxEventFlagsId(ef_id);
 391:/usr/local/lib/ARM/CMSIS/5.4.0/CMSIS/RTOS2/RTX/Source/rtx_evflags.c ****   os_thread_t      *thread;
 392:/usr/local/lib/ARM/CMSIS/5.4.0/CMSIS/RTOS2/RTX/Source/rtx_evflags.c **** 
 393:/usr/local/lib/ARM/CMSIS/5.4.0/CMSIS/RTOS2/RTX/Source/rtx_evflags.c ****   // Check parameters
 394:/usr/local/lib/ARM/CMSIS/5.4.0/CMSIS/RTOS2/RTX/Source/rtx_evflags.c ****   if ((ef == NULL) || (ef->id != osRtxIdEventFlags)) {
 917              		.loc 1 394 0
 918 0002 0446     		mov	r4, r0
 919 0004 10B1     		cbz	r0, .L70
 920              		.loc 1 394 0 is_stmt 0 discriminator 1
 921 0006 0378     		ldrb	r3, [r0]	@ zero_extendqisi2
 922 0008 032B     		cmp	r3, #3
 923 000a 07D0     		beq	.L71
 924              	.L70:
 395:/usr/local/lib/ARM/CMSIS/5.4.0/CMSIS/RTOS2/RTX/Source/rtx_evflags.c ****     EvrRtxEventFlagsError(ef, (int32_t)osErrorParameter);
 925              		.loc 1 395 0 is_stmt 1
 926 000c 6FF00301 		mvn	r1, #3
 927 0010 2046     		mov	r0, r4
 928              	.LVL117:
 929 0012 FFF7FEFF 		bl	EvrRtxEventFlagsError
 930              	.LVL118:
 396:/usr/local/lib/ARM/CMSIS/5.4.0/CMSIS/RTOS2/RTX/Source/rtx_evflags.c ****     //lint -e{904} "Return statement before end of function" [MISRA Note 1]
 397:/usr/local/lib/ARM/CMSIS/5.4.0/CMSIS/RTOS2/RTX/Source/rtx_evflags.c ****     return osErrorParameter;
 931              		.loc 1 397 0
 932 0016 6FF00300 		mvn	r0, #3
 933 001a 10BD     		pop	{r4, pc}
 934              	.LVL119:
 935              	.L71:
 398:/usr/local/lib/ARM/CMSIS/5.4.0/CMSIS/RTOS2/RTX/Source/rtx_evflags.c ****   }
 399:/usr/local/lib/ARM/CMSIS/5.4.0/CMSIS/RTOS2/RTX/Source/rtx_evflags.c **** 
 400:/usr/local/lib/ARM/CMSIS/5.4.0/CMSIS/RTOS2/RTX/Source/rtx_evflags.c ****   // Unblock waiting threads
ARM GAS  /tmp/cc4RTizm.s 			page 40


 401:/usr/local/lib/ARM/CMSIS/5.4.0/CMSIS/RTOS2/RTX/Source/rtx_evflags.c ****   if (ef->thread_list != NULL) {
 936              		.loc 1 401 0
 937 001c 8368     		ldr	r3, [r0, #8]
 938 001e 6BB1     		cbz	r3, .L73
 939              	.LVL120:
 940              	.L74:
 402:/usr/local/lib/ARM/CMSIS/5.4.0/CMSIS/RTOS2/RTX/Source/rtx_evflags.c ****     do {
 403:/usr/local/lib/ARM/CMSIS/5.4.0/CMSIS/RTOS2/RTX/Source/rtx_evflags.c ****       thread = osRtxThreadListGet(osRtxObject(ef));
 941              		.loc 1 403 0 discriminator 1
 942 0020 2046     		mov	r0, r4
 943 0022 FFF7FEFF 		bl	osRtxThreadListGet
 944              	.LVL121:
 404:/usr/local/lib/ARM/CMSIS/5.4.0/CMSIS/RTOS2/RTX/Source/rtx_evflags.c ****       osRtxThreadWaitExit(thread, (uint32_t)osErrorResource, FALSE);
 945              		.loc 1 404 0 discriminator 1
 946 0026 0022     		movs	r2, #0
 947 0028 6FF00201 		mvn	r1, #2
 948 002c FFF7FEFF 		bl	osRtxThreadWaitExit
 949              	.LVL122:
 405:/usr/local/lib/ARM/CMSIS/5.4.0/CMSIS/RTOS2/RTX/Source/rtx_evflags.c ****     } while (ef->thread_list != NULL);
 950              		.loc 1 405 0 discriminator 1
 951 0030 A368     		ldr	r3, [r4, #8]
 952 0032 002B     		cmp	r3, #0
 953 0034 F4D1     		bne	.L74
 406:/usr/local/lib/ARM/CMSIS/5.4.0/CMSIS/RTOS2/RTX/Source/rtx_evflags.c ****     osRtxThreadDispatch(NULL);
 954              		.loc 1 406 0
 955 0036 0020     		movs	r0, #0
 956 0038 FFF7FEFF 		bl	osRtxThreadDispatch
 957              	.LVL123:
 958              	.L73:
 407:/usr/local/lib/ARM/CMSIS/5.4.0/CMSIS/RTOS2/RTX/Source/rtx_evflags.c ****   }
 408:/usr/local/lib/ARM/CMSIS/5.4.0/CMSIS/RTOS2/RTX/Source/rtx_evflags.c **** 
 409:/usr/local/lib/ARM/CMSIS/5.4.0/CMSIS/RTOS2/RTX/Source/rtx_evflags.c ****   // Mark object as invalid
 410:/usr/local/lib/ARM/CMSIS/5.4.0/CMSIS/RTOS2/RTX/Source/rtx_evflags.c ****   ef->id = osRtxIdInvalid;
 959              		.loc 1 410 0
 960 003c 0023     		movs	r3, #0
 961 003e 2370     		strb	r3, [r4]
 411:/usr/local/lib/ARM/CMSIS/5.4.0/CMSIS/RTOS2/RTX/Source/rtx_evflags.c **** 
 412:/usr/local/lib/ARM/CMSIS/5.4.0/CMSIS/RTOS2/RTX/Source/rtx_evflags.c ****   // Free object memory
 413:/usr/local/lib/ARM/CMSIS/5.4.0/CMSIS/RTOS2/RTX/Source/rtx_evflags.c ****   if ((ef->flags & osRtxFlagSystemObject) != 0U) {
 962              		.loc 1 413 0
 963 0040 A378     		ldrb	r3, [r4, #2]	@ zero_extendqisi2
 964 0042 13F0010F 		tst	r3, #1
 965 0046 0DD0     		beq	.L75
 414:/usr/local/lib/ARM/CMSIS/5.4.0/CMSIS/RTOS2/RTX/Source/rtx_evflags.c ****     if (osRtxInfo.mpi.event_flags != NULL) {
 966              		.loc 1 414 0
 967 0048 094B     		ldr	r3, .L78
 968 004a D3F89000 		ldr	r0, [r3, #144]
 969 004e 18B1     		cbz	r0, .L76
 415:/usr/local/lib/ARM/CMSIS/5.4.0/CMSIS/RTOS2/RTX/Source/rtx_evflags.c ****       (void)osRtxMemoryPoolFree(osRtxInfo.mpi.event_flags, ef);
 970              		.loc 1 415 0
 971 0050 2146     		mov	r1, r4
 972 0052 FFF7FEFF 		bl	osRtxMemoryPoolFree
 973              	.LVL124:
 974 0056 05E0     		b	.L75
 975              	.L76:
 416:/usr/local/lib/ARM/CMSIS/5.4.0/CMSIS/RTOS2/RTX/Source/rtx_evflags.c ****     } else {
 417:/usr/local/lib/ARM/CMSIS/5.4.0/CMSIS/RTOS2/RTX/Source/rtx_evflags.c ****       (void)osRtxMemoryFree(osRtxInfo.mem.common, ef);
ARM GAS  /tmp/cc4RTizm.s 			page 41


 976              		.loc 1 417 0
 977 0058 2146     		mov	r1, r4
 978 005a 054B     		ldr	r3, .L78
 979 005c D3F88000 		ldr	r0, [r3, #128]
 980 0060 FFF7FEFF 		bl	osRtxMemoryFree
 981              	.LVL125:
 982              	.L75:
 418:/usr/local/lib/ARM/CMSIS/5.4.0/CMSIS/RTOS2/RTX/Source/rtx_evflags.c ****     }
 419:/usr/local/lib/ARM/CMSIS/5.4.0/CMSIS/RTOS2/RTX/Source/rtx_evflags.c **** #if (defined(OS_OBJ_MEM_USAGE) && (OS_OBJ_MEM_USAGE != 0))
 420:/usr/local/lib/ARM/CMSIS/5.4.0/CMSIS/RTOS2/RTX/Source/rtx_evflags.c ****     osRtxEventFlagsMemUsage.cnt_free++;
 421:/usr/local/lib/ARM/CMSIS/5.4.0/CMSIS/RTOS2/RTX/Source/rtx_evflags.c **** #endif
 422:/usr/local/lib/ARM/CMSIS/5.4.0/CMSIS/RTOS2/RTX/Source/rtx_evflags.c ****   }
 423:/usr/local/lib/ARM/CMSIS/5.4.0/CMSIS/RTOS2/RTX/Source/rtx_evflags.c **** 
 424:/usr/local/lib/ARM/CMSIS/5.4.0/CMSIS/RTOS2/RTX/Source/rtx_evflags.c ****   EvrRtxEventFlagsDestroyed(ef);
 983              		.loc 1 424 0
 984 0064 2046     		mov	r0, r4
 985 0066 FFF7FEFF 		bl	EvrRtxEventFlagsDestroyed
 986              	.LVL126:
 425:/usr/local/lib/ARM/CMSIS/5.4.0/CMSIS/RTOS2/RTX/Source/rtx_evflags.c **** 
 426:/usr/local/lib/ARM/CMSIS/5.4.0/CMSIS/RTOS2/RTX/Source/rtx_evflags.c ****   return osOK;
 987              		.loc 1 426 0
 988 006a 0020     		movs	r0, #0
 427:/usr/local/lib/ARM/CMSIS/5.4.0/CMSIS/RTOS2/RTX/Source/rtx_evflags.c **** }
 989              		.loc 1 427 0
 990 006c 10BD     		pop	{r4, pc}
 991              	.LVL127:
 992              	.L79:
 993 006e 00BF     		.align	2
 994              	.L78:
 995 0070 00000000 		.word	osRtxInfo
 996              		.cfi_endproc
 997              	.LFE184:
 999              		.section	.text.osEventFlagsNew,"ax",%progbits
 1000              		.align	2
 1001              		.global	osEventFlagsNew
 1002              		.thumb
 1003              		.thumb_func
 1005              	osEventFlagsNew:
 1006              	.LFB194:
 428:/usr/local/lib/ARM/CMSIS/5.4.0/CMSIS/RTOS2/RTX/Source/rtx_evflags.c **** 
 429:/usr/local/lib/ARM/CMSIS/5.4.0/CMSIS/RTOS2/RTX/Source/rtx_evflags.c **** //  Service Calls definitions
 430:/usr/local/lib/ARM/CMSIS/5.4.0/CMSIS/RTOS2/RTX/Source/rtx_evflags.c **** //lint ++flb "Library Begin" [MISRA Note 11]
 431:/usr/local/lib/ARM/CMSIS/5.4.0/CMSIS/RTOS2/RTX/Source/rtx_evflags.c **** SVC0_1(EventFlagsNew,     osEventFlagsId_t, const osEventFlagsAttr_t *)
 432:/usr/local/lib/ARM/CMSIS/5.4.0/CMSIS/RTOS2/RTX/Source/rtx_evflags.c **** SVC0_1(EventFlagsGetName, const char *,     osEventFlagsId_t)
 433:/usr/local/lib/ARM/CMSIS/5.4.0/CMSIS/RTOS2/RTX/Source/rtx_evflags.c **** SVC0_2(EventFlagsSet,     uint32_t,         osEventFlagsId_t, uint32_t)
 434:/usr/local/lib/ARM/CMSIS/5.4.0/CMSIS/RTOS2/RTX/Source/rtx_evflags.c **** SVC0_2(EventFlagsClear,   uint32_t,         osEventFlagsId_t, uint32_t)
 435:/usr/local/lib/ARM/CMSIS/5.4.0/CMSIS/RTOS2/RTX/Source/rtx_evflags.c **** SVC0_1(EventFlagsGet,     uint32_t,         osEventFlagsId_t)
 436:/usr/local/lib/ARM/CMSIS/5.4.0/CMSIS/RTOS2/RTX/Source/rtx_evflags.c **** SVC0_4(EventFlagsWait,    uint32_t,         osEventFlagsId_t, uint32_t, uint32_t, uint32_t)
 437:/usr/local/lib/ARM/CMSIS/5.4.0/CMSIS/RTOS2/RTX/Source/rtx_evflags.c **** SVC0_1(EventFlagsDelete,  osStatus_t,       osEventFlagsId_t)
 438:/usr/local/lib/ARM/CMSIS/5.4.0/CMSIS/RTOS2/RTX/Source/rtx_evflags.c **** //lint --flb "Library End"
 439:/usr/local/lib/ARM/CMSIS/5.4.0/CMSIS/RTOS2/RTX/Source/rtx_evflags.c **** 
 440:/usr/local/lib/ARM/CMSIS/5.4.0/CMSIS/RTOS2/RTX/Source/rtx_evflags.c **** 
 441:/usr/local/lib/ARM/CMSIS/5.4.0/CMSIS/RTOS2/RTX/Source/rtx_evflags.c **** //  ==== ISR Calls ====
 442:/usr/local/lib/ARM/CMSIS/5.4.0/CMSIS/RTOS2/RTX/Source/rtx_evflags.c **** 
 443:/usr/local/lib/ARM/CMSIS/5.4.0/CMSIS/RTOS2/RTX/Source/rtx_evflags.c **** /// Set the specified Event Flags.
 444:/usr/local/lib/ARM/CMSIS/5.4.0/CMSIS/RTOS2/RTX/Source/rtx_evflags.c **** /// \note API identical to osEventFlagsSet
 445:/usr/local/lib/ARM/CMSIS/5.4.0/CMSIS/RTOS2/RTX/Source/rtx_evflags.c **** __STATIC_INLINE
ARM GAS  /tmp/cc4RTizm.s 			page 42


 446:/usr/local/lib/ARM/CMSIS/5.4.0/CMSIS/RTOS2/RTX/Source/rtx_evflags.c **** uint32_t isrRtxEventFlagsSet (osEventFlagsId_t ef_id, uint32_t flags) {
 447:/usr/local/lib/ARM/CMSIS/5.4.0/CMSIS/RTOS2/RTX/Source/rtx_evflags.c ****   os_event_flags_t *ef = osRtxEventFlagsId(ef_id);
 448:/usr/local/lib/ARM/CMSIS/5.4.0/CMSIS/RTOS2/RTX/Source/rtx_evflags.c ****   uint32_t          event_flags;
 449:/usr/local/lib/ARM/CMSIS/5.4.0/CMSIS/RTOS2/RTX/Source/rtx_evflags.c **** 
 450:/usr/local/lib/ARM/CMSIS/5.4.0/CMSIS/RTOS2/RTX/Source/rtx_evflags.c ****   // Check parameters
 451:/usr/local/lib/ARM/CMSIS/5.4.0/CMSIS/RTOS2/RTX/Source/rtx_evflags.c ****   if ((ef == NULL) || (ef->id != osRtxIdEventFlags) ||
 452:/usr/local/lib/ARM/CMSIS/5.4.0/CMSIS/RTOS2/RTX/Source/rtx_evflags.c ****       ((flags & ~(((uint32_t)1U << osRtxEventFlagsLimit) - 1U)) != 0U)) {
 453:/usr/local/lib/ARM/CMSIS/5.4.0/CMSIS/RTOS2/RTX/Source/rtx_evflags.c ****     EvrRtxEventFlagsError(ef, (int32_t)osErrorParameter);
 454:/usr/local/lib/ARM/CMSIS/5.4.0/CMSIS/RTOS2/RTX/Source/rtx_evflags.c ****     //lint -e{904} "Return statement before end of function" [MISRA Note 1]
 455:/usr/local/lib/ARM/CMSIS/5.4.0/CMSIS/RTOS2/RTX/Source/rtx_evflags.c ****     return ((uint32_t)osErrorParameter);
 456:/usr/local/lib/ARM/CMSIS/5.4.0/CMSIS/RTOS2/RTX/Source/rtx_evflags.c ****   }
 457:/usr/local/lib/ARM/CMSIS/5.4.0/CMSIS/RTOS2/RTX/Source/rtx_evflags.c **** 
 458:/usr/local/lib/ARM/CMSIS/5.4.0/CMSIS/RTOS2/RTX/Source/rtx_evflags.c ****   // Set Event Flags
 459:/usr/local/lib/ARM/CMSIS/5.4.0/CMSIS/RTOS2/RTX/Source/rtx_evflags.c ****   event_flags = EventFlagsSet(ef, flags);
 460:/usr/local/lib/ARM/CMSIS/5.4.0/CMSIS/RTOS2/RTX/Source/rtx_evflags.c **** 
 461:/usr/local/lib/ARM/CMSIS/5.4.0/CMSIS/RTOS2/RTX/Source/rtx_evflags.c ****   // Register post ISR processing
 462:/usr/local/lib/ARM/CMSIS/5.4.0/CMSIS/RTOS2/RTX/Source/rtx_evflags.c ****   osRtxPostProcess(osRtxObject(ef));
 463:/usr/local/lib/ARM/CMSIS/5.4.0/CMSIS/RTOS2/RTX/Source/rtx_evflags.c **** 
 464:/usr/local/lib/ARM/CMSIS/5.4.0/CMSIS/RTOS2/RTX/Source/rtx_evflags.c ****   EvrRtxEventFlagsSetDone(ef, event_flags);
 465:/usr/local/lib/ARM/CMSIS/5.4.0/CMSIS/RTOS2/RTX/Source/rtx_evflags.c **** 
 466:/usr/local/lib/ARM/CMSIS/5.4.0/CMSIS/RTOS2/RTX/Source/rtx_evflags.c ****   return event_flags;
 467:/usr/local/lib/ARM/CMSIS/5.4.0/CMSIS/RTOS2/RTX/Source/rtx_evflags.c **** }
 468:/usr/local/lib/ARM/CMSIS/5.4.0/CMSIS/RTOS2/RTX/Source/rtx_evflags.c **** 
 469:/usr/local/lib/ARM/CMSIS/5.4.0/CMSIS/RTOS2/RTX/Source/rtx_evflags.c **** /// Wait for one or more Event Flags to become signaled.
 470:/usr/local/lib/ARM/CMSIS/5.4.0/CMSIS/RTOS2/RTX/Source/rtx_evflags.c **** /// \note API identical to osEventFlagsWait
 471:/usr/local/lib/ARM/CMSIS/5.4.0/CMSIS/RTOS2/RTX/Source/rtx_evflags.c **** __STATIC_INLINE
 472:/usr/local/lib/ARM/CMSIS/5.4.0/CMSIS/RTOS2/RTX/Source/rtx_evflags.c **** uint32_t isrRtxEventFlagsWait (osEventFlagsId_t ef_id, uint32_t flags, uint32_t options, uint32_t t
 473:/usr/local/lib/ARM/CMSIS/5.4.0/CMSIS/RTOS2/RTX/Source/rtx_evflags.c ****   os_event_flags_t *ef = osRtxEventFlagsId(ef_id);
 474:/usr/local/lib/ARM/CMSIS/5.4.0/CMSIS/RTOS2/RTX/Source/rtx_evflags.c ****   uint32_t          event_flags;
 475:/usr/local/lib/ARM/CMSIS/5.4.0/CMSIS/RTOS2/RTX/Source/rtx_evflags.c **** 
 476:/usr/local/lib/ARM/CMSIS/5.4.0/CMSIS/RTOS2/RTX/Source/rtx_evflags.c ****   // Check parameters
 477:/usr/local/lib/ARM/CMSIS/5.4.0/CMSIS/RTOS2/RTX/Source/rtx_evflags.c ****   if ((ef == NULL) || (ef->id != osRtxIdEventFlags) || (timeout != 0U) ||
 478:/usr/local/lib/ARM/CMSIS/5.4.0/CMSIS/RTOS2/RTX/Source/rtx_evflags.c ****       ((flags & ~(((uint32_t)1U << osRtxEventFlagsLimit) - 1U)) != 0U)) {
 479:/usr/local/lib/ARM/CMSIS/5.4.0/CMSIS/RTOS2/RTX/Source/rtx_evflags.c ****     EvrRtxEventFlagsError(ef, (int32_t)osErrorParameter);
 480:/usr/local/lib/ARM/CMSIS/5.4.0/CMSIS/RTOS2/RTX/Source/rtx_evflags.c ****     //lint -e{904} "Return statement before end of function" [MISRA Note 1]
 481:/usr/local/lib/ARM/CMSIS/5.4.0/CMSIS/RTOS2/RTX/Source/rtx_evflags.c ****     return ((uint32_t)osErrorParameter);
 482:/usr/local/lib/ARM/CMSIS/5.4.0/CMSIS/RTOS2/RTX/Source/rtx_evflags.c ****   }
 483:/usr/local/lib/ARM/CMSIS/5.4.0/CMSIS/RTOS2/RTX/Source/rtx_evflags.c **** 
 484:/usr/local/lib/ARM/CMSIS/5.4.0/CMSIS/RTOS2/RTX/Source/rtx_evflags.c ****   // Check Event Flags
 485:/usr/local/lib/ARM/CMSIS/5.4.0/CMSIS/RTOS2/RTX/Source/rtx_evflags.c ****   event_flags = EventFlagsCheck(ef, flags, options);
 486:/usr/local/lib/ARM/CMSIS/5.4.0/CMSIS/RTOS2/RTX/Source/rtx_evflags.c ****   if (event_flags != 0U) {
 487:/usr/local/lib/ARM/CMSIS/5.4.0/CMSIS/RTOS2/RTX/Source/rtx_evflags.c ****     EvrRtxEventFlagsWaitCompleted(ef, flags, options, event_flags);
 488:/usr/local/lib/ARM/CMSIS/5.4.0/CMSIS/RTOS2/RTX/Source/rtx_evflags.c ****   } else {
 489:/usr/local/lib/ARM/CMSIS/5.4.0/CMSIS/RTOS2/RTX/Source/rtx_evflags.c ****     EvrRtxEventFlagsWaitNotCompleted(ef, flags, options);
 490:/usr/local/lib/ARM/CMSIS/5.4.0/CMSIS/RTOS2/RTX/Source/rtx_evflags.c ****     event_flags = (uint32_t)osErrorResource;
 491:/usr/local/lib/ARM/CMSIS/5.4.0/CMSIS/RTOS2/RTX/Source/rtx_evflags.c ****   }
 492:/usr/local/lib/ARM/CMSIS/5.4.0/CMSIS/RTOS2/RTX/Source/rtx_evflags.c **** 
 493:/usr/local/lib/ARM/CMSIS/5.4.0/CMSIS/RTOS2/RTX/Source/rtx_evflags.c ****   return event_flags;
 494:/usr/local/lib/ARM/CMSIS/5.4.0/CMSIS/RTOS2/RTX/Source/rtx_evflags.c **** }
 495:/usr/local/lib/ARM/CMSIS/5.4.0/CMSIS/RTOS2/RTX/Source/rtx_evflags.c **** 
 496:/usr/local/lib/ARM/CMSIS/5.4.0/CMSIS/RTOS2/RTX/Source/rtx_evflags.c **** 
 497:/usr/local/lib/ARM/CMSIS/5.4.0/CMSIS/RTOS2/RTX/Source/rtx_evflags.c **** //  ==== Public API ====
 498:/usr/local/lib/ARM/CMSIS/5.4.0/CMSIS/RTOS2/RTX/Source/rtx_evflags.c **** 
 499:/usr/local/lib/ARM/CMSIS/5.4.0/CMSIS/RTOS2/RTX/Source/rtx_evflags.c **** /// Create and Initialize an Event Flags object.
 500:/usr/local/lib/ARM/CMSIS/5.4.0/CMSIS/RTOS2/RTX/Source/rtx_evflags.c **** osEventFlagsId_t osEventFlagsNew (const osEventFlagsAttr_t *attr) {
 1007              		.loc 1 500 0
 1008              		.cfi_startproc
ARM GAS  /tmp/cc4RTizm.s 			page 43


 1009              		@ args = 0, pretend = 0, frame = 0
 1010              		@ frame_needed = 0, uses_anonymous_args = 0
 1011              	.LVL128:
 1012 0000 10B5     		push	{r4, lr}
 1013              	.LCFI16:
 1014              		.cfi_def_cfa_offset 8
 1015              		.cfi_offset 4, -8
 1016              		.cfi_offset 14, -4
 1017 0002 0446     		mov	r4, r0
 501:/usr/local/lib/ARM/CMSIS/5.4.0/CMSIS/RTOS2/RTX/Source/rtx_evflags.c ****   osEventFlagsId_t ef_id;
 502:/usr/local/lib/ARM/CMSIS/5.4.0/CMSIS/RTOS2/RTX/Source/rtx_evflags.c **** 
 503:/usr/local/lib/ARM/CMSIS/5.4.0/CMSIS/RTOS2/RTX/Source/rtx_evflags.c ****   EvrRtxEventFlagsNew(attr);
 1018              		.loc 1 503 0
 1019 0004 FFF7FEFF 		bl	EvrRtxEventFlagsNew
 1020              	.LVL129:
 1021              	.LBB148:
 1022              	.LBB149:
 1023              	.LBB150:
 1024              		.file 4 "/usr/local/lib/ARM/CMSIS/5.4.0/CMSIS/Core/Include/cmsis_gcc.h"
   1:/usr/local/lib/ARM/CMSIS/5.4.0/CMSIS/Core/Include/cmsis_gcc.h **** /**************************************************************************//**
   2:/usr/local/lib/ARM/CMSIS/5.4.0/CMSIS/Core/Include/cmsis_gcc.h ****  * @file     cmsis_gcc.h
   3:/usr/local/lib/ARM/CMSIS/5.4.0/CMSIS/Core/Include/cmsis_gcc.h ****  * @brief    CMSIS compiler GCC header file
   4:/usr/local/lib/ARM/CMSIS/5.4.0/CMSIS/Core/Include/cmsis_gcc.h ****  * @version  V5.0.4
   5:/usr/local/lib/ARM/CMSIS/5.4.0/CMSIS/Core/Include/cmsis_gcc.h ****  * @date     09. April 2018
   6:/usr/local/lib/ARM/CMSIS/5.4.0/CMSIS/Core/Include/cmsis_gcc.h ****  ******************************************************************************/
   7:/usr/local/lib/ARM/CMSIS/5.4.0/CMSIS/Core/Include/cmsis_gcc.h **** /*
   8:/usr/local/lib/ARM/CMSIS/5.4.0/CMSIS/Core/Include/cmsis_gcc.h ****  * Copyright (c) 2009-2018 Arm Limited. All rights reserved.
   9:/usr/local/lib/ARM/CMSIS/5.4.0/CMSIS/Core/Include/cmsis_gcc.h ****  *
  10:/usr/local/lib/ARM/CMSIS/5.4.0/CMSIS/Core/Include/cmsis_gcc.h ****  * SPDX-License-Identifier: Apache-2.0
  11:/usr/local/lib/ARM/CMSIS/5.4.0/CMSIS/Core/Include/cmsis_gcc.h ****  *
  12:/usr/local/lib/ARM/CMSIS/5.4.0/CMSIS/Core/Include/cmsis_gcc.h ****  * Licensed under the Apache License, Version 2.0 (the License); you may
  13:/usr/local/lib/ARM/CMSIS/5.4.0/CMSIS/Core/Include/cmsis_gcc.h ****  * not use this file except in compliance with the License.
  14:/usr/local/lib/ARM/CMSIS/5.4.0/CMSIS/Core/Include/cmsis_gcc.h ****  * You may obtain a copy of the License at
  15:/usr/local/lib/ARM/CMSIS/5.4.0/CMSIS/Core/Include/cmsis_gcc.h ****  *
  16:/usr/local/lib/ARM/CMSIS/5.4.0/CMSIS/Core/Include/cmsis_gcc.h ****  * www.apache.org/licenses/LICENSE-2.0
  17:/usr/local/lib/ARM/CMSIS/5.4.0/CMSIS/Core/Include/cmsis_gcc.h ****  *
  18:/usr/local/lib/ARM/CMSIS/5.4.0/CMSIS/Core/Include/cmsis_gcc.h ****  * Unless required by applicable law or agreed to in writing, software
  19:/usr/local/lib/ARM/CMSIS/5.4.0/CMSIS/Core/Include/cmsis_gcc.h ****  * distributed under the License is distributed on an AS IS BASIS, WITHOUT
  20:/usr/local/lib/ARM/CMSIS/5.4.0/CMSIS/Core/Include/cmsis_gcc.h ****  * WARRANTIES OR CONDITIONS OF ANY KIND, either express or implied.
  21:/usr/local/lib/ARM/CMSIS/5.4.0/CMSIS/Core/Include/cmsis_gcc.h ****  * See the License for the specific language governing permissions and
  22:/usr/local/lib/ARM/CMSIS/5.4.0/CMSIS/Core/Include/cmsis_gcc.h ****  * limitations under the License.
  23:/usr/local/lib/ARM/CMSIS/5.4.0/CMSIS/Core/Include/cmsis_gcc.h ****  */
  24:/usr/local/lib/ARM/CMSIS/5.4.0/CMSIS/Core/Include/cmsis_gcc.h **** 
  25:/usr/local/lib/ARM/CMSIS/5.4.0/CMSIS/Core/Include/cmsis_gcc.h **** #ifndef __CMSIS_GCC_H
  26:/usr/local/lib/ARM/CMSIS/5.4.0/CMSIS/Core/Include/cmsis_gcc.h **** #define __CMSIS_GCC_H
  27:/usr/local/lib/ARM/CMSIS/5.4.0/CMSIS/Core/Include/cmsis_gcc.h **** 
  28:/usr/local/lib/ARM/CMSIS/5.4.0/CMSIS/Core/Include/cmsis_gcc.h **** /* ignore some GCC warnings */
  29:/usr/local/lib/ARM/CMSIS/5.4.0/CMSIS/Core/Include/cmsis_gcc.h **** #pragma GCC diagnostic push
  30:/usr/local/lib/ARM/CMSIS/5.4.0/CMSIS/Core/Include/cmsis_gcc.h **** #pragma GCC diagnostic ignored "-Wsign-conversion"
  31:/usr/local/lib/ARM/CMSIS/5.4.0/CMSIS/Core/Include/cmsis_gcc.h **** #pragma GCC diagnostic ignored "-Wconversion"
  32:/usr/local/lib/ARM/CMSIS/5.4.0/CMSIS/Core/Include/cmsis_gcc.h **** #pragma GCC diagnostic ignored "-Wunused-parameter"
  33:/usr/local/lib/ARM/CMSIS/5.4.0/CMSIS/Core/Include/cmsis_gcc.h **** 
  34:/usr/local/lib/ARM/CMSIS/5.4.0/CMSIS/Core/Include/cmsis_gcc.h **** /* Fallback for __has_builtin */
  35:/usr/local/lib/ARM/CMSIS/5.4.0/CMSIS/Core/Include/cmsis_gcc.h **** #ifndef __has_builtin
  36:/usr/local/lib/ARM/CMSIS/5.4.0/CMSIS/Core/Include/cmsis_gcc.h ****   #define __has_builtin(x) (0)
  37:/usr/local/lib/ARM/CMSIS/5.4.0/CMSIS/Core/Include/cmsis_gcc.h **** #endif
  38:/usr/local/lib/ARM/CMSIS/5.4.0/CMSIS/Core/Include/cmsis_gcc.h **** 
ARM GAS  /tmp/cc4RTizm.s 			page 44


  39:/usr/local/lib/ARM/CMSIS/5.4.0/CMSIS/Core/Include/cmsis_gcc.h **** /* CMSIS compiler specific defines */
  40:/usr/local/lib/ARM/CMSIS/5.4.0/CMSIS/Core/Include/cmsis_gcc.h **** #ifndef   __ASM
  41:/usr/local/lib/ARM/CMSIS/5.4.0/CMSIS/Core/Include/cmsis_gcc.h ****   #define __ASM                                  __asm
  42:/usr/local/lib/ARM/CMSIS/5.4.0/CMSIS/Core/Include/cmsis_gcc.h **** #endif
  43:/usr/local/lib/ARM/CMSIS/5.4.0/CMSIS/Core/Include/cmsis_gcc.h **** #ifndef   __INLINE
  44:/usr/local/lib/ARM/CMSIS/5.4.0/CMSIS/Core/Include/cmsis_gcc.h ****   #define __INLINE                               inline
  45:/usr/local/lib/ARM/CMSIS/5.4.0/CMSIS/Core/Include/cmsis_gcc.h **** #endif
  46:/usr/local/lib/ARM/CMSIS/5.4.0/CMSIS/Core/Include/cmsis_gcc.h **** #ifndef   __STATIC_INLINE
  47:/usr/local/lib/ARM/CMSIS/5.4.0/CMSIS/Core/Include/cmsis_gcc.h ****   #define __STATIC_INLINE                        static inline
  48:/usr/local/lib/ARM/CMSIS/5.4.0/CMSIS/Core/Include/cmsis_gcc.h **** #endif
  49:/usr/local/lib/ARM/CMSIS/5.4.0/CMSIS/Core/Include/cmsis_gcc.h **** #ifndef   __STATIC_FORCEINLINE                 
  50:/usr/local/lib/ARM/CMSIS/5.4.0/CMSIS/Core/Include/cmsis_gcc.h ****   #define __STATIC_FORCEINLINE                   __attribute__((always_inline)) static inline
  51:/usr/local/lib/ARM/CMSIS/5.4.0/CMSIS/Core/Include/cmsis_gcc.h **** #endif                                           
  52:/usr/local/lib/ARM/CMSIS/5.4.0/CMSIS/Core/Include/cmsis_gcc.h **** #ifndef   __NO_RETURN
  53:/usr/local/lib/ARM/CMSIS/5.4.0/CMSIS/Core/Include/cmsis_gcc.h ****   #define __NO_RETURN                            __attribute__((__noreturn__))
  54:/usr/local/lib/ARM/CMSIS/5.4.0/CMSIS/Core/Include/cmsis_gcc.h **** #endif
  55:/usr/local/lib/ARM/CMSIS/5.4.0/CMSIS/Core/Include/cmsis_gcc.h **** #ifndef   __USED
  56:/usr/local/lib/ARM/CMSIS/5.4.0/CMSIS/Core/Include/cmsis_gcc.h ****   #define __USED                                 __attribute__((used))
  57:/usr/local/lib/ARM/CMSIS/5.4.0/CMSIS/Core/Include/cmsis_gcc.h **** #endif
  58:/usr/local/lib/ARM/CMSIS/5.4.0/CMSIS/Core/Include/cmsis_gcc.h **** #ifndef   __WEAK
  59:/usr/local/lib/ARM/CMSIS/5.4.0/CMSIS/Core/Include/cmsis_gcc.h ****   #define __WEAK                                 __attribute__((weak))
  60:/usr/local/lib/ARM/CMSIS/5.4.0/CMSIS/Core/Include/cmsis_gcc.h **** #endif
  61:/usr/local/lib/ARM/CMSIS/5.4.0/CMSIS/Core/Include/cmsis_gcc.h **** #ifndef   __PACKED
  62:/usr/local/lib/ARM/CMSIS/5.4.0/CMSIS/Core/Include/cmsis_gcc.h ****   #define __PACKED                               __attribute__((packed, aligned(1)))
  63:/usr/local/lib/ARM/CMSIS/5.4.0/CMSIS/Core/Include/cmsis_gcc.h **** #endif
  64:/usr/local/lib/ARM/CMSIS/5.4.0/CMSIS/Core/Include/cmsis_gcc.h **** #ifndef   __PACKED_STRUCT
  65:/usr/local/lib/ARM/CMSIS/5.4.0/CMSIS/Core/Include/cmsis_gcc.h ****   #define __PACKED_STRUCT                        struct __attribute__((packed, aligned(1)))
  66:/usr/local/lib/ARM/CMSIS/5.4.0/CMSIS/Core/Include/cmsis_gcc.h **** #endif
  67:/usr/local/lib/ARM/CMSIS/5.4.0/CMSIS/Core/Include/cmsis_gcc.h **** #ifndef   __PACKED_UNION
  68:/usr/local/lib/ARM/CMSIS/5.4.0/CMSIS/Core/Include/cmsis_gcc.h ****   #define __PACKED_UNION                         union __attribute__((packed, aligned(1)))
  69:/usr/local/lib/ARM/CMSIS/5.4.0/CMSIS/Core/Include/cmsis_gcc.h **** #endif
  70:/usr/local/lib/ARM/CMSIS/5.4.0/CMSIS/Core/Include/cmsis_gcc.h **** #ifndef   __UNALIGNED_UINT32        /* deprecated */
  71:/usr/local/lib/ARM/CMSIS/5.4.0/CMSIS/Core/Include/cmsis_gcc.h ****   #pragma GCC diagnostic push
  72:/usr/local/lib/ARM/CMSIS/5.4.0/CMSIS/Core/Include/cmsis_gcc.h ****   #pragma GCC diagnostic ignored "-Wpacked"
  73:/usr/local/lib/ARM/CMSIS/5.4.0/CMSIS/Core/Include/cmsis_gcc.h ****   #pragma GCC diagnostic ignored "-Wattributes"
  74:/usr/local/lib/ARM/CMSIS/5.4.0/CMSIS/Core/Include/cmsis_gcc.h ****   struct __attribute__((packed)) T_UINT32 { uint32_t v; };
  75:/usr/local/lib/ARM/CMSIS/5.4.0/CMSIS/Core/Include/cmsis_gcc.h ****   #pragma GCC diagnostic pop
  76:/usr/local/lib/ARM/CMSIS/5.4.0/CMSIS/Core/Include/cmsis_gcc.h ****   #define __UNALIGNED_UINT32(x)                  (((struct T_UINT32 *)(x))->v)
  77:/usr/local/lib/ARM/CMSIS/5.4.0/CMSIS/Core/Include/cmsis_gcc.h **** #endif
  78:/usr/local/lib/ARM/CMSIS/5.4.0/CMSIS/Core/Include/cmsis_gcc.h **** #ifndef   __UNALIGNED_UINT16_WRITE
  79:/usr/local/lib/ARM/CMSIS/5.4.0/CMSIS/Core/Include/cmsis_gcc.h ****   #pragma GCC diagnostic push
  80:/usr/local/lib/ARM/CMSIS/5.4.0/CMSIS/Core/Include/cmsis_gcc.h ****   #pragma GCC diagnostic ignored "-Wpacked"
  81:/usr/local/lib/ARM/CMSIS/5.4.0/CMSIS/Core/Include/cmsis_gcc.h ****   #pragma GCC diagnostic ignored "-Wattributes"
  82:/usr/local/lib/ARM/CMSIS/5.4.0/CMSIS/Core/Include/cmsis_gcc.h ****   __PACKED_STRUCT T_UINT16_WRITE { uint16_t v; };
  83:/usr/local/lib/ARM/CMSIS/5.4.0/CMSIS/Core/Include/cmsis_gcc.h ****   #pragma GCC diagnostic pop
  84:/usr/local/lib/ARM/CMSIS/5.4.0/CMSIS/Core/Include/cmsis_gcc.h ****   #define __UNALIGNED_UINT16_WRITE(addr, val)    (void)((((struct T_UINT16_WRITE *)(void *)(addr))-
  85:/usr/local/lib/ARM/CMSIS/5.4.0/CMSIS/Core/Include/cmsis_gcc.h **** #endif
  86:/usr/local/lib/ARM/CMSIS/5.4.0/CMSIS/Core/Include/cmsis_gcc.h **** #ifndef   __UNALIGNED_UINT16_READ
  87:/usr/local/lib/ARM/CMSIS/5.4.0/CMSIS/Core/Include/cmsis_gcc.h ****   #pragma GCC diagnostic push
  88:/usr/local/lib/ARM/CMSIS/5.4.0/CMSIS/Core/Include/cmsis_gcc.h ****   #pragma GCC diagnostic ignored "-Wpacked"
  89:/usr/local/lib/ARM/CMSIS/5.4.0/CMSIS/Core/Include/cmsis_gcc.h ****   #pragma GCC diagnostic ignored "-Wattributes"
  90:/usr/local/lib/ARM/CMSIS/5.4.0/CMSIS/Core/Include/cmsis_gcc.h ****   __PACKED_STRUCT T_UINT16_READ { uint16_t v; };
  91:/usr/local/lib/ARM/CMSIS/5.4.0/CMSIS/Core/Include/cmsis_gcc.h ****   #pragma GCC diagnostic pop
  92:/usr/local/lib/ARM/CMSIS/5.4.0/CMSIS/Core/Include/cmsis_gcc.h ****   #define __UNALIGNED_UINT16_READ(addr)          (((const struct T_UINT16_READ *)(const void *)(add
  93:/usr/local/lib/ARM/CMSIS/5.4.0/CMSIS/Core/Include/cmsis_gcc.h **** #endif
  94:/usr/local/lib/ARM/CMSIS/5.4.0/CMSIS/Core/Include/cmsis_gcc.h **** #ifndef   __UNALIGNED_UINT32_WRITE
  95:/usr/local/lib/ARM/CMSIS/5.4.0/CMSIS/Core/Include/cmsis_gcc.h ****   #pragma GCC diagnostic push
ARM GAS  /tmp/cc4RTizm.s 			page 45


  96:/usr/local/lib/ARM/CMSIS/5.4.0/CMSIS/Core/Include/cmsis_gcc.h ****   #pragma GCC diagnostic ignored "-Wpacked"
  97:/usr/local/lib/ARM/CMSIS/5.4.0/CMSIS/Core/Include/cmsis_gcc.h ****   #pragma GCC diagnostic ignored "-Wattributes"
  98:/usr/local/lib/ARM/CMSIS/5.4.0/CMSIS/Core/Include/cmsis_gcc.h ****   __PACKED_STRUCT T_UINT32_WRITE { uint32_t v; };
  99:/usr/local/lib/ARM/CMSIS/5.4.0/CMSIS/Core/Include/cmsis_gcc.h ****   #pragma GCC diagnostic pop
 100:/usr/local/lib/ARM/CMSIS/5.4.0/CMSIS/Core/Include/cmsis_gcc.h ****   #define __UNALIGNED_UINT32_WRITE(addr, val)    (void)((((struct T_UINT32_WRITE *)(void *)(addr))-
 101:/usr/local/lib/ARM/CMSIS/5.4.0/CMSIS/Core/Include/cmsis_gcc.h **** #endif
 102:/usr/local/lib/ARM/CMSIS/5.4.0/CMSIS/Core/Include/cmsis_gcc.h **** #ifndef   __UNALIGNED_UINT32_READ
 103:/usr/local/lib/ARM/CMSIS/5.4.0/CMSIS/Core/Include/cmsis_gcc.h ****   #pragma GCC diagnostic push
 104:/usr/local/lib/ARM/CMSIS/5.4.0/CMSIS/Core/Include/cmsis_gcc.h ****   #pragma GCC diagnostic ignored "-Wpacked"
 105:/usr/local/lib/ARM/CMSIS/5.4.0/CMSIS/Core/Include/cmsis_gcc.h ****   #pragma GCC diagnostic ignored "-Wattributes"
 106:/usr/local/lib/ARM/CMSIS/5.4.0/CMSIS/Core/Include/cmsis_gcc.h ****   __PACKED_STRUCT T_UINT32_READ { uint32_t v; };
 107:/usr/local/lib/ARM/CMSIS/5.4.0/CMSIS/Core/Include/cmsis_gcc.h ****   #pragma GCC diagnostic pop
 108:/usr/local/lib/ARM/CMSIS/5.4.0/CMSIS/Core/Include/cmsis_gcc.h ****   #define __UNALIGNED_UINT32_READ(addr)          (((const struct T_UINT32_READ *)(const void *)(add
 109:/usr/local/lib/ARM/CMSIS/5.4.0/CMSIS/Core/Include/cmsis_gcc.h **** #endif
 110:/usr/local/lib/ARM/CMSIS/5.4.0/CMSIS/Core/Include/cmsis_gcc.h **** #ifndef   __ALIGNED
 111:/usr/local/lib/ARM/CMSIS/5.4.0/CMSIS/Core/Include/cmsis_gcc.h ****   #define __ALIGNED(x)                           __attribute__((aligned(x)))
 112:/usr/local/lib/ARM/CMSIS/5.4.0/CMSIS/Core/Include/cmsis_gcc.h **** #endif
 113:/usr/local/lib/ARM/CMSIS/5.4.0/CMSIS/Core/Include/cmsis_gcc.h **** #ifndef   __RESTRICT
 114:/usr/local/lib/ARM/CMSIS/5.4.0/CMSIS/Core/Include/cmsis_gcc.h ****   #define __RESTRICT                             __restrict
 115:/usr/local/lib/ARM/CMSIS/5.4.0/CMSIS/Core/Include/cmsis_gcc.h **** #endif
 116:/usr/local/lib/ARM/CMSIS/5.4.0/CMSIS/Core/Include/cmsis_gcc.h **** 
 117:/usr/local/lib/ARM/CMSIS/5.4.0/CMSIS/Core/Include/cmsis_gcc.h **** 
 118:/usr/local/lib/ARM/CMSIS/5.4.0/CMSIS/Core/Include/cmsis_gcc.h **** /* ###########################  Core Function Access  ########################### */
 119:/usr/local/lib/ARM/CMSIS/5.4.0/CMSIS/Core/Include/cmsis_gcc.h **** /** \ingroup  CMSIS_Core_FunctionInterface
 120:/usr/local/lib/ARM/CMSIS/5.4.0/CMSIS/Core/Include/cmsis_gcc.h ****     \defgroup CMSIS_Core_RegAccFunctions CMSIS Core Register Access Functions
 121:/usr/local/lib/ARM/CMSIS/5.4.0/CMSIS/Core/Include/cmsis_gcc.h ****   @{
 122:/usr/local/lib/ARM/CMSIS/5.4.0/CMSIS/Core/Include/cmsis_gcc.h ****  */
 123:/usr/local/lib/ARM/CMSIS/5.4.0/CMSIS/Core/Include/cmsis_gcc.h **** 
 124:/usr/local/lib/ARM/CMSIS/5.4.0/CMSIS/Core/Include/cmsis_gcc.h **** /**
 125:/usr/local/lib/ARM/CMSIS/5.4.0/CMSIS/Core/Include/cmsis_gcc.h ****   \brief   Enable IRQ Interrupts
 126:/usr/local/lib/ARM/CMSIS/5.4.0/CMSIS/Core/Include/cmsis_gcc.h ****   \details Enables IRQ interrupts by clearing the I-bit in the CPSR.
 127:/usr/local/lib/ARM/CMSIS/5.4.0/CMSIS/Core/Include/cmsis_gcc.h ****            Can only be executed in Privileged modes.
 128:/usr/local/lib/ARM/CMSIS/5.4.0/CMSIS/Core/Include/cmsis_gcc.h ****  */
 129:/usr/local/lib/ARM/CMSIS/5.4.0/CMSIS/Core/Include/cmsis_gcc.h **** __STATIC_FORCEINLINE void __enable_irq(void)
 130:/usr/local/lib/ARM/CMSIS/5.4.0/CMSIS/Core/Include/cmsis_gcc.h **** {
 131:/usr/local/lib/ARM/CMSIS/5.4.0/CMSIS/Core/Include/cmsis_gcc.h ****   __ASM volatile ("cpsie i" : : : "memory");
 132:/usr/local/lib/ARM/CMSIS/5.4.0/CMSIS/Core/Include/cmsis_gcc.h **** }
 133:/usr/local/lib/ARM/CMSIS/5.4.0/CMSIS/Core/Include/cmsis_gcc.h **** 
 134:/usr/local/lib/ARM/CMSIS/5.4.0/CMSIS/Core/Include/cmsis_gcc.h **** 
 135:/usr/local/lib/ARM/CMSIS/5.4.0/CMSIS/Core/Include/cmsis_gcc.h **** /**
 136:/usr/local/lib/ARM/CMSIS/5.4.0/CMSIS/Core/Include/cmsis_gcc.h ****   \brief   Disable IRQ Interrupts
 137:/usr/local/lib/ARM/CMSIS/5.4.0/CMSIS/Core/Include/cmsis_gcc.h ****   \details Disables IRQ interrupts by setting the I-bit in the CPSR.
 138:/usr/local/lib/ARM/CMSIS/5.4.0/CMSIS/Core/Include/cmsis_gcc.h ****            Can only be executed in Privileged modes.
 139:/usr/local/lib/ARM/CMSIS/5.4.0/CMSIS/Core/Include/cmsis_gcc.h ****  */
 140:/usr/local/lib/ARM/CMSIS/5.4.0/CMSIS/Core/Include/cmsis_gcc.h **** __STATIC_FORCEINLINE void __disable_irq(void)
 141:/usr/local/lib/ARM/CMSIS/5.4.0/CMSIS/Core/Include/cmsis_gcc.h **** {
 142:/usr/local/lib/ARM/CMSIS/5.4.0/CMSIS/Core/Include/cmsis_gcc.h ****   __ASM volatile ("cpsid i" : : : "memory");
 143:/usr/local/lib/ARM/CMSIS/5.4.0/CMSIS/Core/Include/cmsis_gcc.h **** }
 144:/usr/local/lib/ARM/CMSIS/5.4.0/CMSIS/Core/Include/cmsis_gcc.h **** 
 145:/usr/local/lib/ARM/CMSIS/5.4.0/CMSIS/Core/Include/cmsis_gcc.h **** 
 146:/usr/local/lib/ARM/CMSIS/5.4.0/CMSIS/Core/Include/cmsis_gcc.h **** /**
 147:/usr/local/lib/ARM/CMSIS/5.4.0/CMSIS/Core/Include/cmsis_gcc.h ****   \brief   Get Control Register
 148:/usr/local/lib/ARM/CMSIS/5.4.0/CMSIS/Core/Include/cmsis_gcc.h ****   \details Returns the content of the Control Register.
 149:/usr/local/lib/ARM/CMSIS/5.4.0/CMSIS/Core/Include/cmsis_gcc.h ****   \return               Control Register value
 150:/usr/local/lib/ARM/CMSIS/5.4.0/CMSIS/Core/Include/cmsis_gcc.h ****  */
 151:/usr/local/lib/ARM/CMSIS/5.4.0/CMSIS/Core/Include/cmsis_gcc.h **** __STATIC_FORCEINLINE uint32_t __get_CONTROL(void)
 152:/usr/local/lib/ARM/CMSIS/5.4.0/CMSIS/Core/Include/cmsis_gcc.h **** {
ARM GAS  /tmp/cc4RTizm.s 			page 46


 153:/usr/local/lib/ARM/CMSIS/5.4.0/CMSIS/Core/Include/cmsis_gcc.h ****   uint32_t result;
 154:/usr/local/lib/ARM/CMSIS/5.4.0/CMSIS/Core/Include/cmsis_gcc.h **** 
 155:/usr/local/lib/ARM/CMSIS/5.4.0/CMSIS/Core/Include/cmsis_gcc.h ****   __ASM volatile ("MRS %0, control" : "=r" (result) );
 156:/usr/local/lib/ARM/CMSIS/5.4.0/CMSIS/Core/Include/cmsis_gcc.h ****   return(result);
 157:/usr/local/lib/ARM/CMSIS/5.4.0/CMSIS/Core/Include/cmsis_gcc.h **** }
 158:/usr/local/lib/ARM/CMSIS/5.4.0/CMSIS/Core/Include/cmsis_gcc.h **** 
 159:/usr/local/lib/ARM/CMSIS/5.4.0/CMSIS/Core/Include/cmsis_gcc.h **** 
 160:/usr/local/lib/ARM/CMSIS/5.4.0/CMSIS/Core/Include/cmsis_gcc.h **** #if (defined (__ARM_FEATURE_CMSE ) && (__ARM_FEATURE_CMSE == 3))
 161:/usr/local/lib/ARM/CMSIS/5.4.0/CMSIS/Core/Include/cmsis_gcc.h **** /**
 162:/usr/local/lib/ARM/CMSIS/5.4.0/CMSIS/Core/Include/cmsis_gcc.h ****   \brief   Get Control Register (non-secure)
 163:/usr/local/lib/ARM/CMSIS/5.4.0/CMSIS/Core/Include/cmsis_gcc.h ****   \details Returns the content of the non-secure Control Register when in secure mode.
 164:/usr/local/lib/ARM/CMSIS/5.4.0/CMSIS/Core/Include/cmsis_gcc.h ****   \return               non-secure Control Register value
 165:/usr/local/lib/ARM/CMSIS/5.4.0/CMSIS/Core/Include/cmsis_gcc.h ****  */
 166:/usr/local/lib/ARM/CMSIS/5.4.0/CMSIS/Core/Include/cmsis_gcc.h **** __STATIC_FORCEINLINE uint32_t __TZ_get_CONTROL_NS(void)
 167:/usr/local/lib/ARM/CMSIS/5.4.0/CMSIS/Core/Include/cmsis_gcc.h **** {
 168:/usr/local/lib/ARM/CMSIS/5.4.0/CMSIS/Core/Include/cmsis_gcc.h ****   uint32_t result;
 169:/usr/local/lib/ARM/CMSIS/5.4.0/CMSIS/Core/Include/cmsis_gcc.h **** 
 170:/usr/local/lib/ARM/CMSIS/5.4.0/CMSIS/Core/Include/cmsis_gcc.h ****   __ASM volatile ("MRS %0, control_ns" : "=r" (result) );
 171:/usr/local/lib/ARM/CMSIS/5.4.0/CMSIS/Core/Include/cmsis_gcc.h ****   return(result);
 172:/usr/local/lib/ARM/CMSIS/5.4.0/CMSIS/Core/Include/cmsis_gcc.h **** }
 173:/usr/local/lib/ARM/CMSIS/5.4.0/CMSIS/Core/Include/cmsis_gcc.h **** #endif
 174:/usr/local/lib/ARM/CMSIS/5.4.0/CMSIS/Core/Include/cmsis_gcc.h **** 
 175:/usr/local/lib/ARM/CMSIS/5.4.0/CMSIS/Core/Include/cmsis_gcc.h **** 
 176:/usr/local/lib/ARM/CMSIS/5.4.0/CMSIS/Core/Include/cmsis_gcc.h **** /**
 177:/usr/local/lib/ARM/CMSIS/5.4.0/CMSIS/Core/Include/cmsis_gcc.h ****   \brief   Set Control Register
 178:/usr/local/lib/ARM/CMSIS/5.4.0/CMSIS/Core/Include/cmsis_gcc.h ****   \details Writes the given value to the Control Register.
 179:/usr/local/lib/ARM/CMSIS/5.4.0/CMSIS/Core/Include/cmsis_gcc.h ****   \param [in]    control  Control Register value to set
 180:/usr/local/lib/ARM/CMSIS/5.4.0/CMSIS/Core/Include/cmsis_gcc.h ****  */
 181:/usr/local/lib/ARM/CMSIS/5.4.0/CMSIS/Core/Include/cmsis_gcc.h **** __STATIC_FORCEINLINE void __set_CONTROL(uint32_t control)
 182:/usr/local/lib/ARM/CMSIS/5.4.0/CMSIS/Core/Include/cmsis_gcc.h **** {
 183:/usr/local/lib/ARM/CMSIS/5.4.0/CMSIS/Core/Include/cmsis_gcc.h ****   __ASM volatile ("MSR control, %0" : : "r" (control) : "memory");
 184:/usr/local/lib/ARM/CMSIS/5.4.0/CMSIS/Core/Include/cmsis_gcc.h **** }
 185:/usr/local/lib/ARM/CMSIS/5.4.0/CMSIS/Core/Include/cmsis_gcc.h **** 
 186:/usr/local/lib/ARM/CMSIS/5.4.0/CMSIS/Core/Include/cmsis_gcc.h **** 
 187:/usr/local/lib/ARM/CMSIS/5.4.0/CMSIS/Core/Include/cmsis_gcc.h **** #if (defined (__ARM_FEATURE_CMSE ) && (__ARM_FEATURE_CMSE == 3))
 188:/usr/local/lib/ARM/CMSIS/5.4.0/CMSIS/Core/Include/cmsis_gcc.h **** /**
 189:/usr/local/lib/ARM/CMSIS/5.4.0/CMSIS/Core/Include/cmsis_gcc.h ****   \brief   Set Control Register (non-secure)
 190:/usr/local/lib/ARM/CMSIS/5.4.0/CMSIS/Core/Include/cmsis_gcc.h ****   \details Writes the given value to the non-secure Control Register when in secure state.
 191:/usr/local/lib/ARM/CMSIS/5.4.0/CMSIS/Core/Include/cmsis_gcc.h ****   \param [in]    control  Control Register value to set
 192:/usr/local/lib/ARM/CMSIS/5.4.0/CMSIS/Core/Include/cmsis_gcc.h ****  */
 193:/usr/local/lib/ARM/CMSIS/5.4.0/CMSIS/Core/Include/cmsis_gcc.h **** __STATIC_FORCEINLINE void __TZ_set_CONTROL_NS(uint32_t control)
 194:/usr/local/lib/ARM/CMSIS/5.4.0/CMSIS/Core/Include/cmsis_gcc.h **** {
 195:/usr/local/lib/ARM/CMSIS/5.4.0/CMSIS/Core/Include/cmsis_gcc.h ****   __ASM volatile ("MSR control_ns, %0" : : "r" (control) : "memory");
 196:/usr/local/lib/ARM/CMSIS/5.4.0/CMSIS/Core/Include/cmsis_gcc.h **** }
 197:/usr/local/lib/ARM/CMSIS/5.4.0/CMSIS/Core/Include/cmsis_gcc.h **** #endif
 198:/usr/local/lib/ARM/CMSIS/5.4.0/CMSIS/Core/Include/cmsis_gcc.h **** 
 199:/usr/local/lib/ARM/CMSIS/5.4.0/CMSIS/Core/Include/cmsis_gcc.h **** 
 200:/usr/local/lib/ARM/CMSIS/5.4.0/CMSIS/Core/Include/cmsis_gcc.h **** /**
 201:/usr/local/lib/ARM/CMSIS/5.4.0/CMSIS/Core/Include/cmsis_gcc.h ****   \brief   Get IPSR Register
 202:/usr/local/lib/ARM/CMSIS/5.4.0/CMSIS/Core/Include/cmsis_gcc.h ****   \details Returns the content of the IPSR Register.
 203:/usr/local/lib/ARM/CMSIS/5.4.0/CMSIS/Core/Include/cmsis_gcc.h ****   \return               IPSR Register value
 204:/usr/local/lib/ARM/CMSIS/5.4.0/CMSIS/Core/Include/cmsis_gcc.h ****  */
 205:/usr/local/lib/ARM/CMSIS/5.4.0/CMSIS/Core/Include/cmsis_gcc.h **** __STATIC_FORCEINLINE uint32_t __get_IPSR(void)
 206:/usr/local/lib/ARM/CMSIS/5.4.0/CMSIS/Core/Include/cmsis_gcc.h **** {
 207:/usr/local/lib/ARM/CMSIS/5.4.0/CMSIS/Core/Include/cmsis_gcc.h ****   uint32_t result;
 208:/usr/local/lib/ARM/CMSIS/5.4.0/CMSIS/Core/Include/cmsis_gcc.h **** 
 209:/usr/local/lib/ARM/CMSIS/5.4.0/CMSIS/Core/Include/cmsis_gcc.h ****   __ASM volatile ("MRS %0, ipsr" : "=r" (result) );
ARM GAS  /tmp/cc4RTizm.s 			page 47


 1025              		.loc 4 209 0
 1026              		.syntax unified
 1027              	@ 209 "/usr/local/lib/ARM/CMSIS/5.4.0/CMSIS/Core/Include/cmsis_gcc.h" 1
 1028 0008 EFF30583 		MRS r3, ipsr
 1029              	@ 0 "" 2
 1030              		.thumb
 1031              		.syntax unified
 1032              	.LBE150:
 1033              	.LBE149:
 1034              	.LBE148:
 504:/usr/local/lib/ARM/CMSIS/5.4.0/CMSIS/RTOS2/RTX/Source/rtx_evflags.c ****   if (IsIrqMode() || IsIrqMasked()) {
 1035              		.loc 1 504 0
 1036 000c 53B9     		cbnz	r3, .L81
 1037              	.LBB151:
 1038              	.LBB152:
 1039              	.LBB153:
 1040              	.LBB154:
 210:/usr/local/lib/ARM/CMSIS/5.4.0/CMSIS/Core/Include/cmsis_gcc.h ****   return(result);
 211:/usr/local/lib/ARM/CMSIS/5.4.0/CMSIS/Core/Include/cmsis_gcc.h **** }
 212:/usr/local/lib/ARM/CMSIS/5.4.0/CMSIS/Core/Include/cmsis_gcc.h **** 
 213:/usr/local/lib/ARM/CMSIS/5.4.0/CMSIS/Core/Include/cmsis_gcc.h **** 
 214:/usr/local/lib/ARM/CMSIS/5.4.0/CMSIS/Core/Include/cmsis_gcc.h **** /**
 215:/usr/local/lib/ARM/CMSIS/5.4.0/CMSIS/Core/Include/cmsis_gcc.h ****   \brief   Get APSR Register
 216:/usr/local/lib/ARM/CMSIS/5.4.0/CMSIS/Core/Include/cmsis_gcc.h ****   \details Returns the content of the APSR Register.
 217:/usr/local/lib/ARM/CMSIS/5.4.0/CMSIS/Core/Include/cmsis_gcc.h ****   \return               APSR Register value
 218:/usr/local/lib/ARM/CMSIS/5.4.0/CMSIS/Core/Include/cmsis_gcc.h ****  */
 219:/usr/local/lib/ARM/CMSIS/5.4.0/CMSIS/Core/Include/cmsis_gcc.h **** __STATIC_FORCEINLINE uint32_t __get_APSR(void)
 220:/usr/local/lib/ARM/CMSIS/5.4.0/CMSIS/Core/Include/cmsis_gcc.h **** {
 221:/usr/local/lib/ARM/CMSIS/5.4.0/CMSIS/Core/Include/cmsis_gcc.h ****   uint32_t result;
 222:/usr/local/lib/ARM/CMSIS/5.4.0/CMSIS/Core/Include/cmsis_gcc.h **** 
 223:/usr/local/lib/ARM/CMSIS/5.4.0/CMSIS/Core/Include/cmsis_gcc.h ****   __ASM volatile ("MRS %0, apsr" : "=r" (result) );
 224:/usr/local/lib/ARM/CMSIS/5.4.0/CMSIS/Core/Include/cmsis_gcc.h ****   return(result);
 225:/usr/local/lib/ARM/CMSIS/5.4.0/CMSIS/Core/Include/cmsis_gcc.h **** }
 226:/usr/local/lib/ARM/CMSIS/5.4.0/CMSIS/Core/Include/cmsis_gcc.h **** 
 227:/usr/local/lib/ARM/CMSIS/5.4.0/CMSIS/Core/Include/cmsis_gcc.h **** 
 228:/usr/local/lib/ARM/CMSIS/5.4.0/CMSIS/Core/Include/cmsis_gcc.h **** /**
 229:/usr/local/lib/ARM/CMSIS/5.4.0/CMSIS/Core/Include/cmsis_gcc.h ****   \brief   Get xPSR Register
 230:/usr/local/lib/ARM/CMSIS/5.4.0/CMSIS/Core/Include/cmsis_gcc.h ****   \details Returns the content of the xPSR Register.
 231:/usr/local/lib/ARM/CMSIS/5.4.0/CMSIS/Core/Include/cmsis_gcc.h ****   \return               xPSR Register value
 232:/usr/local/lib/ARM/CMSIS/5.4.0/CMSIS/Core/Include/cmsis_gcc.h ****  */
 233:/usr/local/lib/ARM/CMSIS/5.4.0/CMSIS/Core/Include/cmsis_gcc.h **** __STATIC_FORCEINLINE uint32_t __get_xPSR(void)
 234:/usr/local/lib/ARM/CMSIS/5.4.0/CMSIS/Core/Include/cmsis_gcc.h **** {
 235:/usr/local/lib/ARM/CMSIS/5.4.0/CMSIS/Core/Include/cmsis_gcc.h ****   uint32_t result;
 236:/usr/local/lib/ARM/CMSIS/5.4.0/CMSIS/Core/Include/cmsis_gcc.h **** 
 237:/usr/local/lib/ARM/CMSIS/5.4.0/CMSIS/Core/Include/cmsis_gcc.h ****   __ASM volatile ("MRS %0, xpsr" : "=r" (result) );
 238:/usr/local/lib/ARM/CMSIS/5.4.0/CMSIS/Core/Include/cmsis_gcc.h ****   return(result);
 239:/usr/local/lib/ARM/CMSIS/5.4.0/CMSIS/Core/Include/cmsis_gcc.h **** }
 240:/usr/local/lib/ARM/CMSIS/5.4.0/CMSIS/Core/Include/cmsis_gcc.h **** 
 241:/usr/local/lib/ARM/CMSIS/5.4.0/CMSIS/Core/Include/cmsis_gcc.h **** 
 242:/usr/local/lib/ARM/CMSIS/5.4.0/CMSIS/Core/Include/cmsis_gcc.h **** /**
 243:/usr/local/lib/ARM/CMSIS/5.4.0/CMSIS/Core/Include/cmsis_gcc.h ****   \brief   Get Process Stack Pointer
 244:/usr/local/lib/ARM/CMSIS/5.4.0/CMSIS/Core/Include/cmsis_gcc.h ****   \details Returns the current value of the Process Stack Pointer (PSP).
 245:/usr/local/lib/ARM/CMSIS/5.4.0/CMSIS/Core/Include/cmsis_gcc.h ****   \return               PSP Register value
 246:/usr/local/lib/ARM/CMSIS/5.4.0/CMSIS/Core/Include/cmsis_gcc.h ****  */
 247:/usr/local/lib/ARM/CMSIS/5.4.0/CMSIS/Core/Include/cmsis_gcc.h **** __STATIC_FORCEINLINE uint32_t __get_PSP(void)
 248:/usr/local/lib/ARM/CMSIS/5.4.0/CMSIS/Core/Include/cmsis_gcc.h **** {
 249:/usr/local/lib/ARM/CMSIS/5.4.0/CMSIS/Core/Include/cmsis_gcc.h ****   uint32_t result;
ARM GAS  /tmp/cc4RTizm.s 			page 48


 250:/usr/local/lib/ARM/CMSIS/5.4.0/CMSIS/Core/Include/cmsis_gcc.h **** 
 251:/usr/local/lib/ARM/CMSIS/5.4.0/CMSIS/Core/Include/cmsis_gcc.h ****   __ASM volatile ("MRS %0, psp"  : "=r" (result) );
 252:/usr/local/lib/ARM/CMSIS/5.4.0/CMSIS/Core/Include/cmsis_gcc.h ****   return(result);
 253:/usr/local/lib/ARM/CMSIS/5.4.0/CMSIS/Core/Include/cmsis_gcc.h **** }
 254:/usr/local/lib/ARM/CMSIS/5.4.0/CMSIS/Core/Include/cmsis_gcc.h **** 
 255:/usr/local/lib/ARM/CMSIS/5.4.0/CMSIS/Core/Include/cmsis_gcc.h **** 
 256:/usr/local/lib/ARM/CMSIS/5.4.0/CMSIS/Core/Include/cmsis_gcc.h **** #if (defined (__ARM_FEATURE_CMSE ) && (__ARM_FEATURE_CMSE == 3))
 257:/usr/local/lib/ARM/CMSIS/5.4.0/CMSIS/Core/Include/cmsis_gcc.h **** /**
 258:/usr/local/lib/ARM/CMSIS/5.4.0/CMSIS/Core/Include/cmsis_gcc.h ****   \brief   Get Process Stack Pointer (non-secure)
 259:/usr/local/lib/ARM/CMSIS/5.4.0/CMSIS/Core/Include/cmsis_gcc.h ****   \details Returns the current value of the non-secure Process Stack Pointer (PSP) when in secure s
 260:/usr/local/lib/ARM/CMSIS/5.4.0/CMSIS/Core/Include/cmsis_gcc.h ****   \return               PSP Register value
 261:/usr/local/lib/ARM/CMSIS/5.4.0/CMSIS/Core/Include/cmsis_gcc.h ****  */
 262:/usr/local/lib/ARM/CMSIS/5.4.0/CMSIS/Core/Include/cmsis_gcc.h **** __STATIC_FORCEINLINE uint32_t __TZ_get_PSP_NS(void)
 263:/usr/local/lib/ARM/CMSIS/5.4.0/CMSIS/Core/Include/cmsis_gcc.h **** {
 264:/usr/local/lib/ARM/CMSIS/5.4.0/CMSIS/Core/Include/cmsis_gcc.h ****   uint32_t result;
 265:/usr/local/lib/ARM/CMSIS/5.4.0/CMSIS/Core/Include/cmsis_gcc.h **** 
 266:/usr/local/lib/ARM/CMSIS/5.4.0/CMSIS/Core/Include/cmsis_gcc.h ****   __ASM volatile ("MRS %0, psp_ns"  : "=r" (result) );
 267:/usr/local/lib/ARM/CMSIS/5.4.0/CMSIS/Core/Include/cmsis_gcc.h ****   return(result);
 268:/usr/local/lib/ARM/CMSIS/5.4.0/CMSIS/Core/Include/cmsis_gcc.h **** }
 269:/usr/local/lib/ARM/CMSIS/5.4.0/CMSIS/Core/Include/cmsis_gcc.h **** #endif
 270:/usr/local/lib/ARM/CMSIS/5.4.0/CMSIS/Core/Include/cmsis_gcc.h **** 
 271:/usr/local/lib/ARM/CMSIS/5.4.0/CMSIS/Core/Include/cmsis_gcc.h **** 
 272:/usr/local/lib/ARM/CMSIS/5.4.0/CMSIS/Core/Include/cmsis_gcc.h **** /**
 273:/usr/local/lib/ARM/CMSIS/5.4.0/CMSIS/Core/Include/cmsis_gcc.h ****   \brief   Set Process Stack Pointer
 274:/usr/local/lib/ARM/CMSIS/5.4.0/CMSIS/Core/Include/cmsis_gcc.h ****   \details Assigns the given value to the Process Stack Pointer (PSP).
 275:/usr/local/lib/ARM/CMSIS/5.4.0/CMSIS/Core/Include/cmsis_gcc.h ****   \param [in]    topOfProcStack  Process Stack Pointer value to set
 276:/usr/local/lib/ARM/CMSIS/5.4.0/CMSIS/Core/Include/cmsis_gcc.h ****  */
 277:/usr/local/lib/ARM/CMSIS/5.4.0/CMSIS/Core/Include/cmsis_gcc.h **** __STATIC_FORCEINLINE void __set_PSP(uint32_t topOfProcStack)
 278:/usr/local/lib/ARM/CMSIS/5.4.0/CMSIS/Core/Include/cmsis_gcc.h **** {
 279:/usr/local/lib/ARM/CMSIS/5.4.0/CMSIS/Core/Include/cmsis_gcc.h ****   __ASM volatile ("MSR psp, %0" : : "r" (topOfProcStack) : );
 280:/usr/local/lib/ARM/CMSIS/5.4.0/CMSIS/Core/Include/cmsis_gcc.h **** }
 281:/usr/local/lib/ARM/CMSIS/5.4.0/CMSIS/Core/Include/cmsis_gcc.h **** 
 282:/usr/local/lib/ARM/CMSIS/5.4.0/CMSIS/Core/Include/cmsis_gcc.h **** 
 283:/usr/local/lib/ARM/CMSIS/5.4.0/CMSIS/Core/Include/cmsis_gcc.h **** #if (defined (__ARM_FEATURE_CMSE ) && (__ARM_FEATURE_CMSE == 3))
 284:/usr/local/lib/ARM/CMSIS/5.4.0/CMSIS/Core/Include/cmsis_gcc.h **** /**
 285:/usr/local/lib/ARM/CMSIS/5.4.0/CMSIS/Core/Include/cmsis_gcc.h ****   \brief   Set Process Stack Pointer (non-secure)
 286:/usr/local/lib/ARM/CMSIS/5.4.0/CMSIS/Core/Include/cmsis_gcc.h ****   \details Assigns the given value to the non-secure Process Stack Pointer (PSP) when in secure sta
 287:/usr/local/lib/ARM/CMSIS/5.4.0/CMSIS/Core/Include/cmsis_gcc.h ****   \param [in]    topOfProcStack  Process Stack Pointer value to set
 288:/usr/local/lib/ARM/CMSIS/5.4.0/CMSIS/Core/Include/cmsis_gcc.h ****  */
 289:/usr/local/lib/ARM/CMSIS/5.4.0/CMSIS/Core/Include/cmsis_gcc.h **** __STATIC_FORCEINLINE void __TZ_set_PSP_NS(uint32_t topOfProcStack)
 290:/usr/local/lib/ARM/CMSIS/5.4.0/CMSIS/Core/Include/cmsis_gcc.h **** {
 291:/usr/local/lib/ARM/CMSIS/5.4.0/CMSIS/Core/Include/cmsis_gcc.h ****   __ASM volatile ("MSR psp_ns, %0" : : "r" (topOfProcStack) : );
 292:/usr/local/lib/ARM/CMSIS/5.4.0/CMSIS/Core/Include/cmsis_gcc.h **** }
 293:/usr/local/lib/ARM/CMSIS/5.4.0/CMSIS/Core/Include/cmsis_gcc.h **** #endif
 294:/usr/local/lib/ARM/CMSIS/5.4.0/CMSIS/Core/Include/cmsis_gcc.h **** 
 295:/usr/local/lib/ARM/CMSIS/5.4.0/CMSIS/Core/Include/cmsis_gcc.h **** 
 296:/usr/local/lib/ARM/CMSIS/5.4.0/CMSIS/Core/Include/cmsis_gcc.h **** /**
 297:/usr/local/lib/ARM/CMSIS/5.4.0/CMSIS/Core/Include/cmsis_gcc.h ****   \brief   Get Main Stack Pointer
 298:/usr/local/lib/ARM/CMSIS/5.4.0/CMSIS/Core/Include/cmsis_gcc.h ****   \details Returns the current value of the Main Stack Pointer (MSP).
 299:/usr/local/lib/ARM/CMSIS/5.4.0/CMSIS/Core/Include/cmsis_gcc.h ****   \return               MSP Register value
 300:/usr/local/lib/ARM/CMSIS/5.4.0/CMSIS/Core/Include/cmsis_gcc.h ****  */
 301:/usr/local/lib/ARM/CMSIS/5.4.0/CMSIS/Core/Include/cmsis_gcc.h **** __STATIC_FORCEINLINE uint32_t __get_MSP(void)
 302:/usr/local/lib/ARM/CMSIS/5.4.0/CMSIS/Core/Include/cmsis_gcc.h **** {
 303:/usr/local/lib/ARM/CMSIS/5.4.0/CMSIS/Core/Include/cmsis_gcc.h ****   uint32_t result;
 304:/usr/local/lib/ARM/CMSIS/5.4.0/CMSIS/Core/Include/cmsis_gcc.h **** 
 305:/usr/local/lib/ARM/CMSIS/5.4.0/CMSIS/Core/Include/cmsis_gcc.h ****   __ASM volatile ("MRS %0, msp" : "=r" (result) );
 306:/usr/local/lib/ARM/CMSIS/5.4.0/CMSIS/Core/Include/cmsis_gcc.h ****   return(result);
ARM GAS  /tmp/cc4RTizm.s 			page 49


 307:/usr/local/lib/ARM/CMSIS/5.4.0/CMSIS/Core/Include/cmsis_gcc.h **** }
 308:/usr/local/lib/ARM/CMSIS/5.4.0/CMSIS/Core/Include/cmsis_gcc.h **** 
 309:/usr/local/lib/ARM/CMSIS/5.4.0/CMSIS/Core/Include/cmsis_gcc.h **** 
 310:/usr/local/lib/ARM/CMSIS/5.4.0/CMSIS/Core/Include/cmsis_gcc.h **** #if (defined (__ARM_FEATURE_CMSE ) && (__ARM_FEATURE_CMSE == 3))
 311:/usr/local/lib/ARM/CMSIS/5.4.0/CMSIS/Core/Include/cmsis_gcc.h **** /**
 312:/usr/local/lib/ARM/CMSIS/5.4.0/CMSIS/Core/Include/cmsis_gcc.h ****   \brief   Get Main Stack Pointer (non-secure)
 313:/usr/local/lib/ARM/CMSIS/5.4.0/CMSIS/Core/Include/cmsis_gcc.h ****   \details Returns the current value of the non-secure Main Stack Pointer (MSP) when in secure stat
 314:/usr/local/lib/ARM/CMSIS/5.4.0/CMSIS/Core/Include/cmsis_gcc.h ****   \return               MSP Register value
 315:/usr/local/lib/ARM/CMSIS/5.4.0/CMSIS/Core/Include/cmsis_gcc.h ****  */
 316:/usr/local/lib/ARM/CMSIS/5.4.0/CMSIS/Core/Include/cmsis_gcc.h **** __STATIC_FORCEINLINE uint32_t __TZ_get_MSP_NS(void)
 317:/usr/local/lib/ARM/CMSIS/5.4.0/CMSIS/Core/Include/cmsis_gcc.h **** {
 318:/usr/local/lib/ARM/CMSIS/5.4.0/CMSIS/Core/Include/cmsis_gcc.h ****   uint32_t result;
 319:/usr/local/lib/ARM/CMSIS/5.4.0/CMSIS/Core/Include/cmsis_gcc.h **** 
 320:/usr/local/lib/ARM/CMSIS/5.4.0/CMSIS/Core/Include/cmsis_gcc.h ****   __ASM volatile ("MRS %0, msp_ns" : "=r" (result) );
 321:/usr/local/lib/ARM/CMSIS/5.4.0/CMSIS/Core/Include/cmsis_gcc.h ****   return(result);
 322:/usr/local/lib/ARM/CMSIS/5.4.0/CMSIS/Core/Include/cmsis_gcc.h **** }
 323:/usr/local/lib/ARM/CMSIS/5.4.0/CMSIS/Core/Include/cmsis_gcc.h **** #endif
 324:/usr/local/lib/ARM/CMSIS/5.4.0/CMSIS/Core/Include/cmsis_gcc.h **** 
 325:/usr/local/lib/ARM/CMSIS/5.4.0/CMSIS/Core/Include/cmsis_gcc.h **** 
 326:/usr/local/lib/ARM/CMSIS/5.4.0/CMSIS/Core/Include/cmsis_gcc.h **** /**
 327:/usr/local/lib/ARM/CMSIS/5.4.0/CMSIS/Core/Include/cmsis_gcc.h ****   \brief   Set Main Stack Pointer
 328:/usr/local/lib/ARM/CMSIS/5.4.0/CMSIS/Core/Include/cmsis_gcc.h ****   \details Assigns the given value to the Main Stack Pointer (MSP).
 329:/usr/local/lib/ARM/CMSIS/5.4.0/CMSIS/Core/Include/cmsis_gcc.h ****   \param [in]    topOfMainStack  Main Stack Pointer value to set
 330:/usr/local/lib/ARM/CMSIS/5.4.0/CMSIS/Core/Include/cmsis_gcc.h ****  */
 331:/usr/local/lib/ARM/CMSIS/5.4.0/CMSIS/Core/Include/cmsis_gcc.h **** __STATIC_FORCEINLINE void __set_MSP(uint32_t topOfMainStack)
 332:/usr/local/lib/ARM/CMSIS/5.4.0/CMSIS/Core/Include/cmsis_gcc.h **** {
 333:/usr/local/lib/ARM/CMSIS/5.4.0/CMSIS/Core/Include/cmsis_gcc.h ****   __ASM volatile ("MSR msp, %0" : : "r" (topOfMainStack) : );
 334:/usr/local/lib/ARM/CMSIS/5.4.0/CMSIS/Core/Include/cmsis_gcc.h **** }
 335:/usr/local/lib/ARM/CMSIS/5.4.0/CMSIS/Core/Include/cmsis_gcc.h **** 
 336:/usr/local/lib/ARM/CMSIS/5.4.0/CMSIS/Core/Include/cmsis_gcc.h **** 
 337:/usr/local/lib/ARM/CMSIS/5.4.0/CMSIS/Core/Include/cmsis_gcc.h **** #if (defined (__ARM_FEATURE_CMSE ) && (__ARM_FEATURE_CMSE == 3))
 338:/usr/local/lib/ARM/CMSIS/5.4.0/CMSIS/Core/Include/cmsis_gcc.h **** /**
 339:/usr/local/lib/ARM/CMSIS/5.4.0/CMSIS/Core/Include/cmsis_gcc.h ****   \brief   Set Main Stack Pointer (non-secure)
 340:/usr/local/lib/ARM/CMSIS/5.4.0/CMSIS/Core/Include/cmsis_gcc.h ****   \details Assigns the given value to the non-secure Main Stack Pointer (MSP) when in secure state.
 341:/usr/local/lib/ARM/CMSIS/5.4.0/CMSIS/Core/Include/cmsis_gcc.h ****   \param [in]    topOfMainStack  Main Stack Pointer value to set
 342:/usr/local/lib/ARM/CMSIS/5.4.0/CMSIS/Core/Include/cmsis_gcc.h ****  */
 343:/usr/local/lib/ARM/CMSIS/5.4.0/CMSIS/Core/Include/cmsis_gcc.h **** __STATIC_FORCEINLINE void __TZ_set_MSP_NS(uint32_t topOfMainStack)
 344:/usr/local/lib/ARM/CMSIS/5.4.0/CMSIS/Core/Include/cmsis_gcc.h **** {
 345:/usr/local/lib/ARM/CMSIS/5.4.0/CMSIS/Core/Include/cmsis_gcc.h ****   __ASM volatile ("MSR msp_ns, %0" : : "r" (topOfMainStack) : );
 346:/usr/local/lib/ARM/CMSIS/5.4.0/CMSIS/Core/Include/cmsis_gcc.h **** }
 347:/usr/local/lib/ARM/CMSIS/5.4.0/CMSIS/Core/Include/cmsis_gcc.h **** #endif
 348:/usr/local/lib/ARM/CMSIS/5.4.0/CMSIS/Core/Include/cmsis_gcc.h **** 
 349:/usr/local/lib/ARM/CMSIS/5.4.0/CMSIS/Core/Include/cmsis_gcc.h **** 
 350:/usr/local/lib/ARM/CMSIS/5.4.0/CMSIS/Core/Include/cmsis_gcc.h **** #if (defined (__ARM_FEATURE_CMSE ) && (__ARM_FEATURE_CMSE == 3))
 351:/usr/local/lib/ARM/CMSIS/5.4.0/CMSIS/Core/Include/cmsis_gcc.h **** /**
 352:/usr/local/lib/ARM/CMSIS/5.4.0/CMSIS/Core/Include/cmsis_gcc.h ****   \brief   Get Stack Pointer (non-secure)
 353:/usr/local/lib/ARM/CMSIS/5.4.0/CMSIS/Core/Include/cmsis_gcc.h ****   \details Returns the current value of the non-secure Stack Pointer (SP) when in secure state.
 354:/usr/local/lib/ARM/CMSIS/5.4.0/CMSIS/Core/Include/cmsis_gcc.h ****   \return               SP Register value
 355:/usr/local/lib/ARM/CMSIS/5.4.0/CMSIS/Core/Include/cmsis_gcc.h ****  */
 356:/usr/local/lib/ARM/CMSIS/5.4.0/CMSIS/Core/Include/cmsis_gcc.h **** __STATIC_FORCEINLINE uint32_t __TZ_get_SP_NS(void)
 357:/usr/local/lib/ARM/CMSIS/5.4.0/CMSIS/Core/Include/cmsis_gcc.h **** {
 358:/usr/local/lib/ARM/CMSIS/5.4.0/CMSIS/Core/Include/cmsis_gcc.h ****   uint32_t result;
 359:/usr/local/lib/ARM/CMSIS/5.4.0/CMSIS/Core/Include/cmsis_gcc.h **** 
 360:/usr/local/lib/ARM/CMSIS/5.4.0/CMSIS/Core/Include/cmsis_gcc.h ****   __ASM volatile ("MRS %0, sp_ns" : "=r" (result) );
 361:/usr/local/lib/ARM/CMSIS/5.4.0/CMSIS/Core/Include/cmsis_gcc.h ****   return(result);
 362:/usr/local/lib/ARM/CMSIS/5.4.0/CMSIS/Core/Include/cmsis_gcc.h **** }
 363:/usr/local/lib/ARM/CMSIS/5.4.0/CMSIS/Core/Include/cmsis_gcc.h **** 
ARM GAS  /tmp/cc4RTizm.s 			page 50


 364:/usr/local/lib/ARM/CMSIS/5.4.0/CMSIS/Core/Include/cmsis_gcc.h **** 
 365:/usr/local/lib/ARM/CMSIS/5.4.0/CMSIS/Core/Include/cmsis_gcc.h **** /**
 366:/usr/local/lib/ARM/CMSIS/5.4.0/CMSIS/Core/Include/cmsis_gcc.h ****   \brief   Set Stack Pointer (non-secure)
 367:/usr/local/lib/ARM/CMSIS/5.4.0/CMSIS/Core/Include/cmsis_gcc.h ****   \details Assigns the given value to the non-secure Stack Pointer (SP) when in secure state.
 368:/usr/local/lib/ARM/CMSIS/5.4.0/CMSIS/Core/Include/cmsis_gcc.h ****   \param [in]    topOfStack  Stack Pointer value to set
 369:/usr/local/lib/ARM/CMSIS/5.4.0/CMSIS/Core/Include/cmsis_gcc.h ****  */
 370:/usr/local/lib/ARM/CMSIS/5.4.0/CMSIS/Core/Include/cmsis_gcc.h **** __STATIC_FORCEINLINE void __TZ_set_SP_NS(uint32_t topOfStack)
 371:/usr/local/lib/ARM/CMSIS/5.4.0/CMSIS/Core/Include/cmsis_gcc.h **** {
 372:/usr/local/lib/ARM/CMSIS/5.4.0/CMSIS/Core/Include/cmsis_gcc.h ****   __ASM volatile ("MSR sp_ns, %0" : : "r" (topOfStack) : );
 373:/usr/local/lib/ARM/CMSIS/5.4.0/CMSIS/Core/Include/cmsis_gcc.h **** }
 374:/usr/local/lib/ARM/CMSIS/5.4.0/CMSIS/Core/Include/cmsis_gcc.h **** #endif
 375:/usr/local/lib/ARM/CMSIS/5.4.0/CMSIS/Core/Include/cmsis_gcc.h **** 
 376:/usr/local/lib/ARM/CMSIS/5.4.0/CMSIS/Core/Include/cmsis_gcc.h **** 
 377:/usr/local/lib/ARM/CMSIS/5.4.0/CMSIS/Core/Include/cmsis_gcc.h **** /**
 378:/usr/local/lib/ARM/CMSIS/5.4.0/CMSIS/Core/Include/cmsis_gcc.h ****   \brief   Get Priority Mask
 379:/usr/local/lib/ARM/CMSIS/5.4.0/CMSIS/Core/Include/cmsis_gcc.h ****   \details Returns the current state of the priority mask bit from the Priority Mask Register.
 380:/usr/local/lib/ARM/CMSIS/5.4.0/CMSIS/Core/Include/cmsis_gcc.h ****   \return               Priority Mask value
 381:/usr/local/lib/ARM/CMSIS/5.4.0/CMSIS/Core/Include/cmsis_gcc.h ****  */
 382:/usr/local/lib/ARM/CMSIS/5.4.0/CMSIS/Core/Include/cmsis_gcc.h **** __STATIC_FORCEINLINE uint32_t __get_PRIMASK(void)
 383:/usr/local/lib/ARM/CMSIS/5.4.0/CMSIS/Core/Include/cmsis_gcc.h **** {
 384:/usr/local/lib/ARM/CMSIS/5.4.0/CMSIS/Core/Include/cmsis_gcc.h ****   uint32_t result;
 385:/usr/local/lib/ARM/CMSIS/5.4.0/CMSIS/Core/Include/cmsis_gcc.h **** 
 386:/usr/local/lib/ARM/CMSIS/5.4.0/CMSIS/Core/Include/cmsis_gcc.h ****   __ASM volatile ("MRS %0, primask" : "=r" (result) :: "memory");
 1041              		.loc 4 386 0
 1042              		.syntax unified
 1043              	@ 386 "/usr/local/lib/ARM/CMSIS/5.4.0/CMSIS/Core/Include/cmsis_gcc.h" 1
 1044 000e EFF31083 		MRS r3, primask
 1045              	@ 0 "" 2
 1046              		.thumb
 1047              		.syntax unified
 1048              	.LBE154:
 1049              	.LBE153:
 126:/usr/local/lib/ARM/CMSIS/5.4.0/CMSIS/RTOS2/RTX/Source/rtx_core_cm.h **** #else
 1050              		.loc 2 126 0
 1051 0012 1BB9     		cbnz	r3, .L85
 1052              	.LBB155:
 1053              	.LBB156:
 387:/usr/local/lib/ARM/CMSIS/5.4.0/CMSIS/Core/Include/cmsis_gcc.h ****   return(result);
 388:/usr/local/lib/ARM/CMSIS/5.4.0/CMSIS/Core/Include/cmsis_gcc.h **** }
 389:/usr/local/lib/ARM/CMSIS/5.4.0/CMSIS/Core/Include/cmsis_gcc.h **** 
 390:/usr/local/lib/ARM/CMSIS/5.4.0/CMSIS/Core/Include/cmsis_gcc.h **** 
 391:/usr/local/lib/ARM/CMSIS/5.4.0/CMSIS/Core/Include/cmsis_gcc.h **** #if (defined (__ARM_FEATURE_CMSE ) && (__ARM_FEATURE_CMSE == 3))
 392:/usr/local/lib/ARM/CMSIS/5.4.0/CMSIS/Core/Include/cmsis_gcc.h **** /**
 393:/usr/local/lib/ARM/CMSIS/5.4.0/CMSIS/Core/Include/cmsis_gcc.h ****   \brief   Get Priority Mask (non-secure)
 394:/usr/local/lib/ARM/CMSIS/5.4.0/CMSIS/Core/Include/cmsis_gcc.h ****   \details Returns the current state of the non-secure priority mask bit from the Priority Mask Reg
 395:/usr/local/lib/ARM/CMSIS/5.4.0/CMSIS/Core/Include/cmsis_gcc.h ****   \return               Priority Mask value
 396:/usr/local/lib/ARM/CMSIS/5.4.0/CMSIS/Core/Include/cmsis_gcc.h ****  */
 397:/usr/local/lib/ARM/CMSIS/5.4.0/CMSIS/Core/Include/cmsis_gcc.h **** __STATIC_FORCEINLINE uint32_t __TZ_get_PRIMASK_NS(void)
 398:/usr/local/lib/ARM/CMSIS/5.4.0/CMSIS/Core/Include/cmsis_gcc.h **** {
 399:/usr/local/lib/ARM/CMSIS/5.4.0/CMSIS/Core/Include/cmsis_gcc.h ****   uint32_t result;
 400:/usr/local/lib/ARM/CMSIS/5.4.0/CMSIS/Core/Include/cmsis_gcc.h **** 
 401:/usr/local/lib/ARM/CMSIS/5.4.0/CMSIS/Core/Include/cmsis_gcc.h ****   __ASM volatile ("MRS %0, primask_ns" : "=r" (result) :: "memory");
 402:/usr/local/lib/ARM/CMSIS/5.4.0/CMSIS/Core/Include/cmsis_gcc.h ****   return(result);
 403:/usr/local/lib/ARM/CMSIS/5.4.0/CMSIS/Core/Include/cmsis_gcc.h **** }
 404:/usr/local/lib/ARM/CMSIS/5.4.0/CMSIS/Core/Include/cmsis_gcc.h **** #endif
 405:/usr/local/lib/ARM/CMSIS/5.4.0/CMSIS/Core/Include/cmsis_gcc.h **** 
 406:/usr/local/lib/ARM/CMSIS/5.4.0/CMSIS/Core/Include/cmsis_gcc.h **** 
ARM GAS  /tmp/cc4RTizm.s 			page 51


 407:/usr/local/lib/ARM/CMSIS/5.4.0/CMSIS/Core/Include/cmsis_gcc.h **** /**
 408:/usr/local/lib/ARM/CMSIS/5.4.0/CMSIS/Core/Include/cmsis_gcc.h ****   \brief   Set Priority Mask
 409:/usr/local/lib/ARM/CMSIS/5.4.0/CMSIS/Core/Include/cmsis_gcc.h ****   \details Assigns the given value to the Priority Mask Register.
 410:/usr/local/lib/ARM/CMSIS/5.4.0/CMSIS/Core/Include/cmsis_gcc.h ****   \param [in]    priMask  Priority Mask
 411:/usr/local/lib/ARM/CMSIS/5.4.0/CMSIS/Core/Include/cmsis_gcc.h ****  */
 412:/usr/local/lib/ARM/CMSIS/5.4.0/CMSIS/Core/Include/cmsis_gcc.h **** __STATIC_FORCEINLINE void __set_PRIMASK(uint32_t priMask)
 413:/usr/local/lib/ARM/CMSIS/5.4.0/CMSIS/Core/Include/cmsis_gcc.h **** {
 414:/usr/local/lib/ARM/CMSIS/5.4.0/CMSIS/Core/Include/cmsis_gcc.h ****   __ASM volatile ("MSR primask, %0" : : "r" (priMask) : "memory");
 415:/usr/local/lib/ARM/CMSIS/5.4.0/CMSIS/Core/Include/cmsis_gcc.h **** }
 416:/usr/local/lib/ARM/CMSIS/5.4.0/CMSIS/Core/Include/cmsis_gcc.h **** 
 417:/usr/local/lib/ARM/CMSIS/5.4.0/CMSIS/Core/Include/cmsis_gcc.h **** 
 418:/usr/local/lib/ARM/CMSIS/5.4.0/CMSIS/Core/Include/cmsis_gcc.h **** #if (defined (__ARM_FEATURE_CMSE ) && (__ARM_FEATURE_CMSE == 3))
 419:/usr/local/lib/ARM/CMSIS/5.4.0/CMSIS/Core/Include/cmsis_gcc.h **** /**
 420:/usr/local/lib/ARM/CMSIS/5.4.0/CMSIS/Core/Include/cmsis_gcc.h ****   \brief   Set Priority Mask (non-secure)
 421:/usr/local/lib/ARM/CMSIS/5.4.0/CMSIS/Core/Include/cmsis_gcc.h ****   \details Assigns the given value to the non-secure Priority Mask Register when in secure state.
 422:/usr/local/lib/ARM/CMSIS/5.4.0/CMSIS/Core/Include/cmsis_gcc.h ****   \param [in]    priMask  Priority Mask
 423:/usr/local/lib/ARM/CMSIS/5.4.0/CMSIS/Core/Include/cmsis_gcc.h ****  */
 424:/usr/local/lib/ARM/CMSIS/5.4.0/CMSIS/Core/Include/cmsis_gcc.h **** __STATIC_FORCEINLINE void __TZ_set_PRIMASK_NS(uint32_t priMask)
 425:/usr/local/lib/ARM/CMSIS/5.4.0/CMSIS/Core/Include/cmsis_gcc.h **** {
 426:/usr/local/lib/ARM/CMSIS/5.4.0/CMSIS/Core/Include/cmsis_gcc.h ****   __ASM volatile ("MSR primask_ns, %0" : : "r" (priMask) : "memory");
 427:/usr/local/lib/ARM/CMSIS/5.4.0/CMSIS/Core/Include/cmsis_gcc.h **** }
 428:/usr/local/lib/ARM/CMSIS/5.4.0/CMSIS/Core/Include/cmsis_gcc.h **** #endif
 429:/usr/local/lib/ARM/CMSIS/5.4.0/CMSIS/Core/Include/cmsis_gcc.h **** 
 430:/usr/local/lib/ARM/CMSIS/5.4.0/CMSIS/Core/Include/cmsis_gcc.h **** 
 431:/usr/local/lib/ARM/CMSIS/5.4.0/CMSIS/Core/Include/cmsis_gcc.h **** #if ((defined (__ARM_ARCH_7M__      ) && (__ARM_ARCH_7M__      == 1)) || \
 432:/usr/local/lib/ARM/CMSIS/5.4.0/CMSIS/Core/Include/cmsis_gcc.h ****      (defined (__ARM_ARCH_7EM__     ) && (__ARM_ARCH_7EM__     == 1)) || \
 433:/usr/local/lib/ARM/CMSIS/5.4.0/CMSIS/Core/Include/cmsis_gcc.h ****      (defined (__ARM_ARCH_8M_MAIN__ ) && (__ARM_ARCH_8M_MAIN__ == 1))    )
 434:/usr/local/lib/ARM/CMSIS/5.4.0/CMSIS/Core/Include/cmsis_gcc.h **** /**
 435:/usr/local/lib/ARM/CMSIS/5.4.0/CMSIS/Core/Include/cmsis_gcc.h ****   \brief   Enable FIQ
 436:/usr/local/lib/ARM/CMSIS/5.4.0/CMSIS/Core/Include/cmsis_gcc.h ****   \details Enables FIQ interrupts by clearing the F-bit in the CPSR.
 437:/usr/local/lib/ARM/CMSIS/5.4.0/CMSIS/Core/Include/cmsis_gcc.h ****            Can only be executed in Privileged modes.
 438:/usr/local/lib/ARM/CMSIS/5.4.0/CMSIS/Core/Include/cmsis_gcc.h ****  */
 439:/usr/local/lib/ARM/CMSIS/5.4.0/CMSIS/Core/Include/cmsis_gcc.h **** __STATIC_FORCEINLINE void __enable_fault_irq(void)
 440:/usr/local/lib/ARM/CMSIS/5.4.0/CMSIS/Core/Include/cmsis_gcc.h **** {
 441:/usr/local/lib/ARM/CMSIS/5.4.0/CMSIS/Core/Include/cmsis_gcc.h ****   __ASM volatile ("cpsie f" : : : "memory");
 442:/usr/local/lib/ARM/CMSIS/5.4.0/CMSIS/Core/Include/cmsis_gcc.h **** }
 443:/usr/local/lib/ARM/CMSIS/5.4.0/CMSIS/Core/Include/cmsis_gcc.h **** 
 444:/usr/local/lib/ARM/CMSIS/5.4.0/CMSIS/Core/Include/cmsis_gcc.h **** 
 445:/usr/local/lib/ARM/CMSIS/5.4.0/CMSIS/Core/Include/cmsis_gcc.h **** /**
 446:/usr/local/lib/ARM/CMSIS/5.4.0/CMSIS/Core/Include/cmsis_gcc.h ****   \brief   Disable FIQ
 447:/usr/local/lib/ARM/CMSIS/5.4.0/CMSIS/Core/Include/cmsis_gcc.h ****   \details Disables FIQ interrupts by setting the F-bit in the CPSR.
 448:/usr/local/lib/ARM/CMSIS/5.4.0/CMSIS/Core/Include/cmsis_gcc.h ****            Can only be executed in Privileged modes.
 449:/usr/local/lib/ARM/CMSIS/5.4.0/CMSIS/Core/Include/cmsis_gcc.h ****  */
 450:/usr/local/lib/ARM/CMSIS/5.4.0/CMSIS/Core/Include/cmsis_gcc.h **** __STATIC_FORCEINLINE void __disable_fault_irq(void)
 451:/usr/local/lib/ARM/CMSIS/5.4.0/CMSIS/Core/Include/cmsis_gcc.h **** {
 452:/usr/local/lib/ARM/CMSIS/5.4.0/CMSIS/Core/Include/cmsis_gcc.h ****   __ASM volatile ("cpsid f" : : : "memory");
 453:/usr/local/lib/ARM/CMSIS/5.4.0/CMSIS/Core/Include/cmsis_gcc.h **** }
 454:/usr/local/lib/ARM/CMSIS/5.4.0/CMSIS/Core/Include/cmsis_gcc.h **** 
 455:/usr/local/lib/ARM/CMSIS/5.4.0/CMSIS/Core/Include/cmsis_gcc.h **** 
 456:/usr/local/lib/ARM/CMSIS/5.4.0/CMSIS/Core/Include/cmsis_gcc.h **** /**
 457:/usr/local/lib/ARM/CMSIS/5.4.0/CMSIS/Core/Include/cmsis_gcc.h ****   \brief   Get Base Priority
 458:/usr/local/lib/ARM/CMSIS/5.4.0/CMSIS/Core/Include/cmsis_gcc.h ****   \details Returns the current value of the Base Priority register.
 459:/usr/local/lib/ARM/CMSIS/5.4.0/CMSIS/Core/Include/cmsis_gcc.h ****   \return               Base Priority register value
 460:/usr/local/lib/ARM/CMSIS/5.4.0/CMSIS/Core/Include/cmsis_gcc.h ****  */
 461:/usr/local/lib/ARM/CMSIS/5.4.0/CMSIS/Core/Include/cmsis_gcc.h **** __STATIC_FORCEINLINE uint32_t __get_BASEPRI(void)
 462:/usr/local/lib/ARM/CMSIS/5.4.0/CMSIS/Core/Include/cmsis_gcc.h **** {
 463:/usr/local/lib/ARM/CMSIS/5.4.0/CMSIS/Core/Include/cmsis_gcc.h ****   uint32_t result;
ARM GAS  /tmp/cc4RTizm.s 			page 52


 464:/usr/local/lib/ARM/CMSIS/5.4.0/CMSIS/Core/Include/cmsis_gcc.h **** 
 465:/usr/local/lib/ARM/CMSIS/5.4.0/CMSIS/Core/Include/cmsis_gcc.h ****   __ASM volatile ("MRS %0, basepri" : "=r" (result) );
 1054              		.loc 4 465 0
 1055              		.syntax unified
 1056              	@ 465 "/usr/local/lib/ARM/CMSIS/5.4.0/CMSIS/Core/Include/cmsis_gcc.h" 1
 1057 0014 EFF31183 		MRS r3, basepri
 1058              	@ 0 "" 2
 1059              		.thumb
 1060              		.syntax unified
 1061              	.LBE156:
 1062              	.LBE155:
 126:/usr/local/lib/ARM/CMSIS/5.4.0/CMSIS/RTOS2/RTX/Source/rtx_core_cm.h **** #else
 1063              		.loc 2 126 0
 1064 0018 13B9     		cbnz	r3, .L86
 1065 001a 02E0     		b	.L82
 1066              	.L85:
 1067 001c 0123     		movs	r3, #1
 1068 001e 00E0     		b	.L82
 1069              	.L86:
 1070 0020 0123     		movs	r3, #1
 1071              	.L82:
 1072              	.LBE152:
 1073              	.LBE151:
 1074              		.loc 1 504 0
 1075 0022 33B1     		cbz	r3, .L83
 1076              	.L81:
 505:/usr/local/lib/ARM/CMSIS/5.4.0/CMSIS/RTOS2/RTX/Source/rtx_evflags.c ****     EvrRtxEventFlagsError(NULL, (int32_t)osErrorISR);
 1077              		.loc 1 505 0
 1078 0024 6FF00501 		mvn	r1, #5
 1079 0028 0020     		movs	r0, #0
 1080 002a FFF7FEFF 		bl	EvrRtxEventFlagsError
 1081              	.LVL130:
 506:/usr/local/lib/ARM/CMSIS/5.4.0/CMSIS/RTOS2/RTX/Source/rtx_evflags.c ****     ef_id = NULL;
 1082              		.loc 1 506 0
 1083 002e 0020     		movs	r0, #0
 1084 0030 10BD     		pop	{r4, pc}
 1085              	.LVL131:
 1086              	.L83:
 1087              	.LBB157:
 1088              	.LBB158:
 431:/usr/local/lib/ARM/CMSIS/5.4.0/CMSIS/RTOS2/RTX/Source/rtx_evflags.c **** SVC0_1(EventFlagsGetName, const char *,     osEventFlagsId_t)
 1089              		.loc 1 431 0
 1090 0032 2046     		mov	r0, r4
 1091 0034 DFF804C0 		ldr	ip, .L88
 1092              		.syntax unified
 1093              	@ 431 "/usr/local/lib/ARM/CMSIS/5.4.0/CMSIS/RTOS2/RTX/Source/rtx_evflags.c" 1
 1094 0038 00DF     		svc 0
 1095              	@ 0 "" 2
 1096              	.LVL132:
 1097              		.thumb
 1098              		.syntax unified
 1099              	.LBE158:
 1100              	.LBE157:
 507:/usr/local/lib/ARM/CMSIS/5.4.0/CMSIS/RTOS2/RTX/Source/rtx_evflags.c ****   } else {
 508:/usr/local/lib/ARM/CMSIS/5.4.0/CMSIS/RTOS2/RTX/Source/rtx_evflags.c ****     ef_id = __svcEventFlagsNew(attr);
 509:/usr/local/lib/ARM/CMSIS/5.4.0/CMSIS/RTOS2/RTX/Source/rtx_evflags.c ****   }
 510:/usr/local/lib/ARM/CMSIS/5.4.0/CMSIS/RTOS2/RTX/Source/rtx_evflags.c ****   return ef_id;
ARM GAS  /tmp/cc4RTizm.s 			page 53


 511:/usr/local/lib/ARM/CMSIS/5.4.0/CMSIS/RTOS2/RTX/Source/rtx_evflags.c **** }
 1101              		.loc 1 511 0
 1102 003a 10BD     		pop	{r4, pc}
 1103              	.LVL133:
 1104              	.L89:
 1105              		.align	2
 1106              	.L88:
 1107 003c 00000000 		.word	svcRtxEventFlagsNew
 1108              		.cfi_endproc
 1109              	.LFE194:
 1111              		.section	.text.osEventFlagsGetName,"ax",%progbits
 1112              		.align	2
 1113              		.global	osEventFlagsGetName
 1114              		.thumb
 1115              		.thumb_func
 1117              	osEventFlagsGetName:
 1118              	.LFB195:
 512:/usr/local/lib/ARM/CMSIS/5.4.0/CMSIS/RTOS2/RTX/Source/rtx_evflags.c **** 
 513:/usr/local/lib/ARM/CMSIS/5.4.0/CMSIS/RTOS2/RTX/Source/rtx_evflags.c **** /// Get name of an Event Flags object.
 514:/usr/local/lib/ARM/CMSIS/5.4.0/CMSIS/RTOS2/RTX/Source/rtx_evflags.c **** const char *osEventFlagsGetName (osEventFlagsId_t ef_id) {
 1119              		.loc 1 514 0
 1120              		.cfi_startproc
 1121              		@ args = 0, pretend = 0, frame = 0
 1122              		@ frame_needed = 0, uses_anonymous_args = 0
 1123              	.LVL134:
 1124 0000 08B5     		push	{r3, lr}
 1125              	.LCFI17:
 1126              		.cfi_def_cfa_offset 8
 1127              		.cfi_offset 3, -8
 1128              		.cfi_offset 14, -4
 1129              	.LBB159:
 1130              	.LBB160:
 1131              	.LBB161:
 209:/usr/local/lib/ARM/CMSIS/5.4.0/CMSIS/Core/Include/cmsis_gcc.h ****   return(result);
 1132              		.loc 4 209 0
 1133              		.syntax unified
 1134              	@ 209 "/usr/local/lib/ARM/CMSIS/5.4.0/CMSIS/Core/Include/cmsis_gcc.h" 1
 1135 0002 EFF30583 		MRS r3, ipsr
 1136              	@ 0 "" 2
 1137              		.thumb
 1138              		.syntax unified
 1139              	.LBE161:
 1140              	.LBE160:
 1141              	.LBE159:
 515:/usr/local/lib/ARM/CMSIS/5.4.0/CMSIS/RTOS2/RTX/Source/rtx_evflags.c ****   const char *name;
 516:/usr/local/lib/ARM/CMSIS/5.4.0/CMSIS/RTOS2/RTX/Source/rtx_evflags.c **** 
 517:/usr/local/lib/ARM/CMSIS/5.4.0/CMSIS/RTOS2/RTX/Source/rtx_evflags.c ****   if (IsIrqMode() || IsIrqMasked()) {
 1142              		.loc 1 517 0
 1143 0006 53B9     		cbnz	r3, .L91
 1144              	.LBB162:
 1145              	.LBB163:
 1146              	.LBB164:
 1147              	.LBB165:
 386:/usr/local/lib/ARM/CMSIS/5.4.0/CMSIS/Core/Include/cmsis_gcc.h ****   return(result);
 1148              		.loc 4 386 0
 1149              		.syntax unified
 1150              	@ 386 "/usr/local/lib/ARM/CMSIS/5.4.0/CMSIS/Core/Include/cmsis_gcc.h" 1
ARM GAS  /tmp/cc4RTizm.s 			page 54


 1151 0008 EFF31083 		MRS r3, primask
 1152              	@ 0 "" 2
 1153              		.thumb
 1154              		.syntax unified
 1155              	.LBE165:
 1156              	.LBE164:
 126:/usr/local/lib/ARM/CMSIS/5.4.0/CMSIS/RTOS2/RTX/Source/rtx_core_cm.h **** #else
 1157              		.loc 2 126 0
 1158 000c 1BB9     		cbnz	r3, .L95
 1159              	.LBB166:
 1160              	.LBB167:
 1161              		.loc 4 465 0
 1162              		.syntax unified
 1163              	@ 465 "/usr/local/lib/ARM/CMSIS/5.4.0/CMSIS/Core/Include/cmsis_gcc.h" 1
 1164 000e EFF31183 		MRS r3, basepri
 1165              	@ 0 "" 2
 1166              		.thumb
 1167              		.syntax unified
 1168              	.LBE167:
 1169              	.LBE166:
 126:/usr/local/lib/ARM/CMSIS/5.4.0/CMSIS/RTOS2/RTX/Source/rtx_core_cm.h **** #else
 1170              		.loc 2 126 0
 1171 0012 13B9     		cbnz	r3, .L96
 1172 0014 02E0     		b	.L92
 1173              	.L95:
 1174 0016 0123     		movs	r3, #1
 1175 0018 00E0     		b	.L92
 1176              	.L96:
 1177 001a 0123     		movs	r3, #1
 1178              	.L92:
 1179              	.LBE163:
 1180              	.LBE162:
 1181              		.loc 1 517 0
 1182 001c 23B1     		cbz	r3, .L93
 1183              	.L91:
 518:/usr/local/lib/ARM/CMSIS/5.4.0/CMSIS/RTOS2/RTX/Source/rtx_evflags.c ****     EvrRtxEventFlagsGetName(ef_id, NULL);
 1184              		.loc 1 518 0
 1185 001e 0021     		movs	r1, #0
 1186 0020 FFF7FEFF 		bl	EvrRtxEventFlagsGetName
 1187              	.LVL135:
 519:/usr/local/lib/ARM/CMSIS/5.4.0/CMSIS/RTOS2/RTX/Source/rtx_evflags.c ****     name = NULL;
 1188              		.loc 1 519 0
 1189 0024 0020     		movs	r0, #0
 1190 0026 08BD     		pop	{r3, pc}
 1191              	.LVL136:
 1192              	.L93:
 1193              	.LBB168:
 1194              	.LBB169:
 432:/usr/local/lib/ARM/CMSIS/5.4.0/CMSIS/RTOS2/RTX/Source/rtx_evflags.c **** SVC0_2(EventFlagsSet,     uint32_t,         osEventFlagsId_t, uint32_t)
 1195              		.loc 1 432 0
 1196 0028 DFF804C0 		ldr	ip, .L98
 1197              		.syntax unified
 1198              	@ 432 "/usr/local/lib/ARM/CMSIS/5.4.0/CMSIS/RTOS2/RTX/Source/rtx_evflags.c" 1
 1199 002c 00DF     		svc 0
 1200              	@ 0 "" 2
 1201              	.LVL137:
 1202              		.thumb
ARM GAS  /tmp/cc4RTizm.s 			page 55


 1203              		.syntax unified
 1204              	.LBE169:
 1205              	.LBE168:
 520:/usr/local/lib/ARM/CMSIS/5.4.0/CMSIS/RTOS2/RTX/Source/rtx_evflags.c ****   } else {
 521:/usr/local/lib/ARM/CMSIS/5.4.0/CMSIS/RTOS2/RTX/Source/rtx_evflags.c ****     name = __svcEventFlagsGetName(ef_id);
 522:/usr/local/lib/ARM/CMSIS/5.4.0/CMSIS/RTOS2/RTX/Source/rtx_evflags.c ****   }
 523:/usr/local/lib/ARM/CMSIS/5.4.0/CMSIS/RTOS2/RTX/Source/rtx_evflags.c ****   return name;
 524:/usr/local/lib/ARM/CMSIS/5.4.0/CMSIS/RTOS2/RTX/Source/rtx_evflags.c **** }
 1206              		.loc 1 524 0
 1207 002e 08BD     		pop	{r3, pc}
 1208              	.L99:
 1209              		.align	2
 1210              	.L98:
 1211 0030 00000000 		.word	svcRtxEventFlagsGetName
 1212              		.cfi_endproc
 1213              	.LFE195:
 1215              		.section	.text.osEventFlagsSet,"ax",%progbits
 1216              		.align	2
 1217              		.global	osEventFlagsSet
 1218              		.thumb
 1219              		.thumb_func
 1221              	osEventFlagsSet:
 1222              	.LFB196:
 525:/usr/local/lib/ARM/CMSIS/5.4.0/CMSIS/RTOS2/RTX/Source/rtx_evflags.c **** 
 526:/usr/local/lib/ARM/CMSIS/5.4.0/CMSIS/RTOS2/RTX/Source/rtx_evflags.c **** /// Set the specified Event Flags.
 527:/usr/local/lib/ARM/CMSIS/5.4.0/CMSIS/RTOS2/RTX/Source/rtx_evflags.c **** uint32_t osEventFlagsSet (osEventFlagsId_t ef_id, uint32_t flags) {
 1223              		.loc 1 527 0
 1224              		.cfi_startproc
 1225              		@ args = 0, pretend = 0, frame = 0
 1226              		@ frame_needed = 0, uses_anonymous_args = 0
 1227              	.LVL138:
 1228 0000 38B5     		push	{r3, r4, r5, lr}
 1229              	.LCFI18:
 1230              		.cfi_def_cfa_offset 16
 1231              		.cfi_offset 3, -16
 1232              		.cfi_offset 4, -12
 1233              		.cfi_offset 5, -8
 1234              		.cfi_offset 14, -4
 1235 0002 0446     		mov	r4, r0
 1236 0004 0D46     		mov	r5, r1
 528:/usr/local/lib/ARM/CMSIS/5.4.0/CMSIS/RTOS2/RTX/Source/rtx_evflags.c ****   uint32_t event_flags;
 529:/usr/local/lib/ARM/CMSIS/5.4.0/CMSIS/RTOS2/RTX/Source/rtx_evflags.c **** 
 530:/usr/local/lib/ARM/CMSIS/5.4.0/CMSIS/RTOS2/RTX/Source/rtx_evflags.c ****   EvrRtxEventFlagsSet(ef_id, flags);
 1237              		.loc 1 530 0
 1238 0006 FFF7FEFF 		bl	EvrRtxEventFlagsSet
 1239              	.LVL139:
 1240              	.LBB183:
 1241              	.LBB184:
 1242              	.LBB185:
 209:/usr/local/lib/ARM/CMSIS/5.4.0/CMSIS/Core/Include/cmsis_gcc.h ****   return(result);
 1243              		.loc 4 209 0
 1244              		.syntax unified
 1245              	@ 209 "/usr/local/lib/ARM/CMSIS/5.4.0/CMSIS/Core/Include/cmsis_gcc.h" 1
 1246 000a EFF30583 		MRS r3, ipsr
 1247              	@ 0 "" 2
 1248              		.thumb
 1249              		.syntax unified
ARM GAS  /tmp/cc4RTizm.s 			page 56


 1250              	.LBE185:
 1251              	.LBE184:
 1252              	.LBE183:
 531:/usr/local/lib/ARM/CMSIS/5.4.0/CMSIS/RTOS2/RTX/Source/rtx_evflags.c ****   if (IsIrqMode() || IsIrqMasked()) {
 1253              		.loc 1 531 0
 1254 000e 53B9     		cbnz	r3, .L101
 1255              	.LBB186:
 1256              	.LBB187:
 1257              	.LBB188:
 1258              	.LBB189:
 386:/usr/local/lib/ARM/CMSIS/5.4.0/CMSIS/Core/Include/cmsis_gcc.h ****   return(result);
 1259              		.loc 4 386 0
 1260              		.syntax unified
 1261              	@ 386 "/usr/local/lib/ARM/CMSIS/5.4.0/CMSIS/Core/Include/cmsis_gcc.h" 1
 1262 0010 EFF31083 		MRS r3, primask
 1263              	@ 0 "" 2
 1264              		.thumb
 1265              		.syntax unified
 1266              	.LBE189:
 1267              	.LBE188:
 126:/usr/local/lib/ARM/CMSIS/5.4.0/CMSIS/RTOS2/RTX/Source/rtx_core_cm.h **** #else
 1268              		.loc 2 126 0
 1269 0014 1BB9     		cbnz	r3, .L108
 1270              	.LBB190:
 1271              	.LBB191:
 1272              		.loc 4 465 0
 1273              		.syntax unified
 1274              	@ 465 "/usr/local/lib/ARM/CMSIS/5.4.0/CMSIS/Core/Include/cmsis_gcc.h" 1
 1275 0016 EFF31183 		MRS r3, basepri
 1276              	@ 0 "" 2
 1277              		.thumb
 1278              		.syntax unified
 1279              	.LBE191:
 1280              	.LBE190:
 126:/usr/local/lib/ARM/CMSIS/5.4.0/CMSIS/RTOS2/RTX/Source/rtx_core_cm.h **** #else
 1281              		.loc 2 126 0
 1282 001a 13B9     		cbnz	r3, .L109
 1283 001c 02E0     		b	.L102
 1284              	.L108:
 1285 001e 0123     		movs	r3, #1
 1286 0020 00E0     		b	.L102
 1287              	.L109:
 1288 0022 0123     		movs	r3, #1
 1289              	.L102:
 1290              	.LBE187:
 1291              	.LBE186:
 1292              		.loc 1 531 0
 1293 0024 DBB1     		cbz	r3, .L103
 1294              	.L101:
 1295              	.LVL140:
 1296              	.LBB192:
 1297              	.LBB193:
 451:/usr/local/lib/ARM/CMSIS/5.4.0/CMSIS/RTOS2/RTX/Source/rtx_evflags.c ****       ((flags & ~(((uint32_t)1U << osRtxEventFlagsLimit) - 1U)) != 0U)) {
 1298              		.loc 1 451 0
 1299 0026 24B1     		cbz	r4, .L104
 1300 0028 2378     		ldrb	r3, [r4]	@ zero_extendqisi2
 1301 002a 032B     		cmp	r3, #3
ARM GAS  /tmp/cc4RTizm.s 			page 57


 1302 002c 01D1     		bne	.L104
 1303 002e 002D     		cmp	r5, #0
 1304 0030 07DA     		bge	.L105
 1305              	.L104:
 453:/usr/local/lib/ARM/CMSIS/5.4.0/CMSIS/RTOS2/RTX/Source/rtx_evflags.c ****     //lint -e{904} "Return statement before end of function" [MISRA Note 1]
 1306              		.loc 1 453 0
 1307 0032 6FF00301 		mvn	r1, #3
 1308 0036 2046     		mov	r0, r4
 1309 0038 FFF7FEFF 		bl	EvrRtxEventFlagsError
 1310              	.LVL141:
 455:/usr/local/lib/ARM/CMSIS/5.4.0/CMSIS/RTOS2/RTX/Source/rtx_evflags.c ****   }
 1311              		.loc 1 455 0
 1312 003c 6FF00300 		mvn	r0, #3
 1313 0040 38BD     		pop	{r3, r4, r5, pc}
 1314              	.LVL142:
 1315              	.L105:
 459:/usr/local/lib/ARM/CMSIS/5.4.0/CMSIS/RTOS2/RTX/Source/rtx_evflags.c **** 
 1316              		.loc 1 459 0
 1317 0042 2946     		mov	r1, r5
 1318 0044 2046     		mov	r0, r4
 1319 0046 FFF7FEFF 		bl	EventFlagsSet
 1320              	.LVL143:
 1321 004a 0546     		mov	r5, r0
 1322              	.LVL144:
 462:/usr/local/lib/ARM/CMSIS/5.4.0/CMSIS/RTOS2/RTX/Source/rtx_evflags.c **** 
 1323              		.loc 1 462 0
 1324 004c 2046     		mov	r0, r4
 1325              	.LVL145:
 1326 004e FFF7FEFF 		bl	osRtxPostProcess
 1327              	.LVL146:
 464:/usr/local/lib/ARM/CMSIS/5.4.0/CMSIS/RTOS2/RTX/Source/rtx_evflags.c **** 
 1328              		.loc 1 464 0
 1329 0052 2946     		mov	r1, r5
 1330 0054 2046     		mov	r0, r4
 1331 0056 FFF7FEFF 		bl	EvrRtxEventFlagsSetDone
 1332              	.LVL147:
 466:/usr/local/lib/ARM/CMSIS/5.4.0/CMSIS/RTOS2/RTX/Source/rtx_evflags.c **** }
 1333              		.loc 1 466 0
 1334 005a 2846     		mov	r0, r5
 1335              	.LVL148:
 1336              	.LBE193:
 1337              	.LBE192:
 532:/usr/local/lib/ARM/CMSIS/5.4.0/CMSIS/RTOS2/RTX/Source/rtx_evflags.c ****     event_flags = isrRtxEventFlagsSet(ef_id, flags);
 1338              		.loc 1 532 0
 1339 005c 38BD     		pop	{r3, r4, r5, pc}
 1340              	.LVL149:
 1341              	.L103:
 1342              	.LBB194:
 1343              	.LBB195:
 433:/usr/local/lib/ARM/CMSIS/5.4.0/CMSIS/RTOS2/RTX/Source/rtx_evflags.c **** SVC0_2(EventFlagsClear,   uint32_t,         osEventFlagsId_t, uint32_t)
 1344              		.loc 1 433 0
 1345 005e 2046     		mov	r0, r4
 1346 0060 2946     		mov	r1, r5
 1347 0062 DFF808C0 		ldr	ip, .L111
 1348              		.syntax unified
 1349              	@ 433 "/usr/local/lib/ARM/CMSIS/5.4.0/CMSIS/RTOS2/RTX/Source/rtx_evflags.c" 1
 1350 0066 00DF     		svc 0
ARM GAS  /tmp/cc4RTizm.s 			page 58


 1351              	@ 0 "" 2
 1352              	.LVL150:
 1353              		.thumb
 1354              		.syntax unified
 1355              	.LBE195:
 1356              	.LBE194:
 533:/usr/local/lib/ARM/CMSIS/5.4.0/CMSIS/RTOS2/RTX/Source/rtx_evflags.c ****   } else {
 534:/usr/local/lib/ARM/CMSIS/5.4.0/CMSIS/RTOS2/RTX/Source/rtx_evflags.c ****     event_flags =  __svcEventFlagsSet(ef_id, flags);
 535:/usr/local/lib/ARM/CMSIS/5.4.0/CMSIS/RTOS2/RTX/Source/rtx_evflags.c ****   }
 536:/usr/local/lib/ARM/CMSIS/5.4.0/CMSIS/RTOS2/RTX/Source/rtx_evflags.c ****   return event_flags;
 537:/usr/local/lib/ARM/CMSIS/5.4.0/CMSIS/RTOS2/RTX/Source/rtx_evflags.c **** }
 1357              		.loc 1 537 0
 1358 0068 38BD     		pop	{r3, r4, r5, pc}
 1359              	.LVL151:
 1360              	.L112:
 1361 006a 00BF     		.align	2
 1362              	.L111:
 1363 006c 00000000 		.word	svcRtxEventFlagsSet
 1364              		.cfi_endproc
 1365              	.LFE196:
 1367              		.section	.text.osEventFlagsClear,"ax",%progbits
 1368              		.align	2
 1369              		.global	osEventFlagsClear
 1370              		.thumb
 1371              		.thumb_func
 1373              	osEventFlagsClear:
 1374              	.LFB197:
 538:/usr/local/lib/ARM/CMSIS/5.4.0/CMSIS/RTOS2/RTX/Source/rtx_evflags.c **** 
 539:/usr/local/lib/ARM/CMSIS/5.4.0/CMSIS/RTOS2/RTX/Source/rtx_evflags.c **** /// Clear the specified Event Flags.
 540:/usr/local/lib/ARM/CMSIS/5.4.0/CMSIS/RTOS2/RTX/Source/rtx_evflags.c **** uint32_t osEventFlagsClear (osEventFlagsId_t ef_id, uint32_t flags) {
 1375              		.loc 1 540 0
 1376              		.cfi_startproc
 1377              		@ args = 0, pretend = 0, frame = 0
 1378              		@ frame_needed = 0, uses_anonymous_args = 0
 1379              	.LVL152:
 1380 0000 38B5     		push	{r3, r4, r5, lr}
 1381              	.LCFI19:
 1382              		.cfi_def_cfa_offset 16
 1383              		.cfi_offset 3, -16
 1384              		.cfi_offset 4, -12
 1385              		.cfi_offset 5, -8
 1386              		.cfi_offset 14, -4
 1387 0002 0546     		mov	r5, r0
 1388 0004 0C46     		mov	r4, r1
 541:/usr/local/lib/ARM/CMSIS/5.4.0/CMSIS/RTOS2/RTX/Source/rtx_evflags.c ****   uint32_t event_flags;
 542:/usr/local/lib/ARM/CMSIS/5.4.0/CMSIS/RTOS2/RTX/Source/rtx_evflags.c **** 
 543:/usr/local/lib/ARM/CMSIS/5.4.0/CMSIS/RTOS2/RTX/Source/rtx_evflags.c ****   EvrRtxEventFlagsClear(ef_id, flags);
 1389              		.loc 1 543 0
 1390 0006 FFF7FEFF 		bl	EvrRtxEventFlagsClear
 1391              	.LVL153:
 1392              	.LBB196:
 1393              	.LBB197:
 1394              	.LBB198:
 209:/usr/local/lib/ARM/CMSIS/5.4.0/CMSIS/Core/Include/cmsis_gcc.h ****   return(result);
 1395              		.loc 4 209 0
 1396              		.syntax unified
 1397              	@ 209 "/usr/local/lib/ARM/CMSIS/5.4.0/CMSIS/Core/Include/cmsis_gcc.h" 1
ARM GAS  /tmp/cc4RTizm.s 			page 59


 1398 000a EFF30583 		MRS r3, ipsr
 1399              	@ 0 "" 2
 1400              		.thumb
 1401              		.syntax unified
 1402              	.LBE198:
 1403              	.LBE197:
 1404              	.LBE196:
 544:/usr/local/lib/ARM/CMSIS/5.4.0/CMSIS/RTOS2/RTX/Source/rtx_evflags.c ****   if (IsIrqMode() || IsIrqMasked()) {
 1405              		.loc 1 544 0
 1406 000e 53B9     		cbnz	r3, .L114
 1407              	.LBB199:
 1408              	.LBB200:
 1409              	.LBB201:
 1410              	.LBB202:
 386:/usr/local/lib/ARM/CMSIS/5.4.0/CMSIS/Core/Include/cmsis_gcc.h ****   return(result);
 1411              		.loc 4 386 0
 1412              		.syntax unified
 1413              	@ 386 "/usr/local/lib/ARM/CMSIS/5.4.0/CMSIS/Core/Include/cmsis_gcc.h" 1
 1414 0010 EFF31083 		MRS r3, primask
 1415              	@ 0 "" 2
 1416              		.thumb
 1417              		.syntax unified
 1418              	.LBE202:
 1419              	.LBE201:
 126:/usr/local/lib/ARM/CMSIS/5.4.0/CMSIS/RTOS2/RTX/Source/rtx_core_cm.h **** #else
 1420              		.loc 2 126 0
 1421 0014 1BB9     		cbnz	r3, .L118
 1422              	.LBB203:
 1423              	.LBB204:
 1424              		.loc 4 465 0
 1425              		.syntax unified
 1426              	@ 465 "/usr/local/lib/ARM/CMSIS/5.4.0/CMSIS/Core/Include/cmsis_gcc.h" 1
 1427 0016 EFF31183 		MRS r3, basepri
 1428              	@ 0 "" 2
 1429              		.thumb
 1430              		.syntax unified
 1431              	.LBE204:
 1432              	.LBE203:
 126:/usr/local/lib/ARM/CMSIS/5.4.0/CMSIS/RTOS2/RTX/Source/rtx_core_cm.h **** #else
 1433              		.loc 2 126 0
 1434 001a 13B9     		cbnz	r3, .L119
 1435 001c 02E0     		b	.L115
 1436              	.L118:
 1437 001e 0123     		movs	r3, #1
 1438 0020 00E0     		b	.L115
 1439              	.L119:
 1440 0022 0123     		movs	r3, #1
 1441              	.L115:
 1442              	.LBE200:
 1443              	.LBE199:
 1444              		.loc 1 544 0
 1445 0024 23B1     		cbz	r3, .L116
 1446              	.L114:
 545:/usr/local/lib/ARM/CMSIS/5.4.0/CMSIS/RTOS2/RTX/Source/rtx_evflags.c ****     event_flags = svcRtxEventFlagsClear(ef_id, flags);
 1447              		.loc 1 545 0
 1448 0026 2146     		mov	r1, r4
 1449 0028 2846     		mov	r0, r5
ARM GAS  /tmp/cc4RTizm.s 			page 60


 1450 002a FFF7FEFF 		bl	svcRtxEventFlagsClear
 1451              	.LVL154:
 1452 002e 38BD     		pop	{r3, r4, r5, pc}
 1453              	.LVL155:
 1454              	.L116:
 1455              	.LBB205:
 1456              	.LBB206:
 434:/usr/local/lib/ARM/CMSIS/5.4.0/CMSIS/RTOS2/RTX/Source/rtx_evflags.c **** SVC0_1(EventFlagsGet,     uint32_t,         osEventFlagsId_t)
 1457              		.loc 1 434 0
 1458 0030 2846     		mov	r0, r5
 1459 0032 2146     		mov	r1, r4
 1460 0034 DFF804C0 		ldr	ip, .L121
 1461              		.syntax unified
 1462              	@ 434 "/usr/local/lib/ARM/CMSIS/5.4.0/CMSIS/RTOS2/RTX/Source/rtx_evflags.c" 1
 1463 0038 00DF     		svc 0
 1464              	@ 0 "" 2
 1465              	.LVL156:
 1466              		.thumb
 1467              		.syntax unified
 1468              	.LBE206:
 1469              	.LBE205:
 546:/usr/local/lib/ARM/CMSIS/5.4.0/CMSIS/RTOS2/RTX/Source/rtx_evflags.c ****   } else {
 547:/usr/local/lib/ARM/CMSIS/5.4.0/CMSIS/RTOS2/RTX/Source/rtx_evflags.c ****     event_flags =  __svcEventFlagsClear(ef_id, flags);
 548:/usr/local/lib/ARM/CMSIS/5.4.0/CMSIS/RTOS2/RTX/Source/rtx_evflags.c ****   }
 549:/usr/local/lib/ARM/CMSIS/5.4.0/CMSIS/RTOS2/RTX/Source/rtx_evflags.c ****   return event_flags;
 550:/usr/local/lib/ARM/CMSIS/5.4.0/CMSIS/RTOS2/RTX/Source/rtx_evflags.c **** }
 1470              		.loc 1 550 0
 1471 003a 38BD     		pop	{r3, r4, r5, pc}
 1472              	.LVL157:
 1473              	.L122:
 1474              		.align	2
 1475              	.L121:
 1476 003c 00000000 		.word	svcRtxEventFlagsClear
 1477              		.cfi_endproc
 1478              	.LFE197:
 1480              		.section	.text.osEventFlagsGet,"ax",%progbits
 1481              		.align	2
 1482              		.global	osEventFlagsGet
 1483              		.thumb
 1484              		.thumb_func
 1486              	osEventFlagsGet:
 1487              	.LFB198:
 551:/usr/local/lib/ARM/CMSIS/5.4.0/CMSIS/RTOS2/RTX/Source/rtx_evflags.c **** 
 552:/usr/local/lib/ARM/CMSIS/5.4.0/CMSIS/RTOS2/RTX/Source/rtx_evflags.c **** /// Get the current Event Flags.
 553:/usr/local/lib/ARM/CMSIS/5.4.0/CMSIS/RTOS2/RTX/Source/rtx_evflags.c **** uint32_t osEventFlagsGet (osEventFlagsId_t ef_id) {
 1488              		.loc 1 553 0
 1489              		.cfi_startproc
 1490              		@ args = 0, pretend = 0, frame = 0
 1491              		@ frame_needed = 0, uses_anonymous_args = 0
 1492              	.LVL158:
 1493 0000 08B5     		push	{r3, lr}
 1494              	.LCFI20:
 1495              		.cfi_def_cfa_offset 8
 1496              		.cfi_offset 3, -8
 1497              		.cfi_offset 14, -4
 1498              	.LBB207:
 1499              	.LBB208:
ARM GAS  /tmp/cc4RTizm.s 			page 61


 1500              	.LBB209:
 209:/usr/local/lib/ARM/CMSIS/5.4.0/CMSIS/Core/Include/cmsis_gcc.h ****   return(result);
 1501              		.loc 4 209 0
 1502              		.syntax unified
 1503              	@ 209 "/usr/local/lib/ARM/CMSIS/5.4.0/CMSIS/Core/Include/cmsis_gcc.h" 1
 1504 0002 EFF30583 		MRS r3, ipsr
 1505              	@ 0 "" 2
 1506              		.thumb
 1507              		.syntax unified
 1508              	.LBE209:
 1509              	.LBE208:
 1510              	.LBE207:
 554:/usr/local/lib/ARM/CMSIS/5.4.0/CMSIS/RTOS2/RTX/Source/rtx_evflags.c ****   uint32_t event_flags;
 555:/usr/local/lib/ARM/CMSIS/5.4.0/CMSIS/RTOS2/RTX/Source/rtx_evflags.c **** 
 556:/usr/local/lib/ARM/CMSIS/5.4.0/CMSIS/RTOS2/RTX/Source/rtx_evflags.c ****   if (IsIrqMode() || IsIrqMasked()) {
 1511              		.loc 1 556 0
 1512 0006 53B9     		cbnz	r3, .L124
 1513              	.LBB210:
 1514              	.LBB211:
 1515              	.LBB212:
 1516              	.LBB213:
 386:/usr/local/lib/ARM/CMSIS/5.4.0/CMSIS/Core/Include/cmsis_gcc.h ****   return(result);
 1517              		.loc 4 386 0
 1518              		.syntax unified
 1519              	@ 386 "/usr/local/lib/ARM/CMSIS/5.4.0/CMSIS/Core/Include/cmsis_gcc.h" 1
 1520 0008 EFF31083 		MRS r3, primask
 1521              	@ 0 "" 2
 1522              		.thumb
 1523              		.syntax unified
 1524              	.LBE213:
 1525              	.LBE212:
 126:/usr/local/lib/ARM/CMSIS/5.4.0/CMSIS/RTOS2/RTX/Source/rtx_core_cm.h **** #else
 1526              		.loc 2 126 0
 1527 000c 1BB9     		cbnz	r3, .L128
 1528              	.LBB214:
 1529              	.LBB215:
 1530              		.loc 4 465 0
 1531              		.syntax unified
 1532              	@ 465 "/usr/local/lib/ARM/CMSIS/5.4.0/CMSIS/Core/Include/cmsis_gcc.h" 1
 1533 000e EFF31183 		MRS r3, basepri
 1534              	@ 0 "" 2
 1535              		.thumb
 1536              		.syntax unified
 1537              	.LBE215:
 1538              	.LBE214:
 126:/usr/local/lib/ARM/CMSIS/5.4.0/CMSIS/RTOS2/RTX/Source/rtx_core_cm.h **** #else
 1539              		.loc 2 126 0
 1540 0012 13B9     		cbnz	r3, .L129
 1541 0014 02E0     		b	.L125
 1542              	.L128:
 1543 0016 0123     		movs	r3, #1
 1544 0018 00E0     		b	.L125
 1545              	.L129:
 1546 001a 0123     		movs	r3, #1
 1547              	.L125:
 1548              	.LBE211:
 1549              	.LBE210:
ARM GAS  /tmp/cc4RTizm.s 			page 62


 1550              		.loc 1 556 0
 1551 001c 13B1     		cbz	r3, .L126
 1552              	.L124:
 557:/usr/local/lib/ARM/CMSIS/5.4.0/CMSIS/RTOS2/RTX/Source/rtx_evflags.c ****     event_flags = svcRtxEventFlagsGet(ef_id);
 1553              		.loc 1 557 0
 1554 001e FFF7FEFF 		bl	svcRtxEventFlagsGet
 1555              	.LVL159:
 1556 0022 08BD     		pop	{r3, pc}
 1557              	.LVL160:
 1558              	.L126:
 1559              	.LBB216:
 1560              	.LBB217:
 435:/usr/local/lib/ARM/CMSIS/5.4.0/CMSIS/RTOS2/RTX/Source/rtx_evflags.c **** SVC0_4(EventFlagsWait,    uint32_t,         osEventFlagsId_t, uint32_t, uint32_t, uint32_t)
 1561              		.loc 1 435 0
 1562 0024 DFF804C0 		ldr	ip, .L131
 1563              		.syntax unified
 1564              	@ 435 "/usr/local/lib/ARM/CMSIS/5.4.0/CMSIS/RTOS2/RTX/Source/rtx_evflags.c" 1
 1565 0028 00DF     		svc 0
 1566              	@ 0 "" 2
 1567              	.LVL161:
 1568              		.thumb
 1569              		.syntax unified
 1570              	.LBE217:
 1571              	.LBE216:
 558:/usr/local/lib/ARM/CMSIS/5.4.0/CMSIS/RTOS2/RTX/Source/rtx_evflags.c ****   } else {
 559:/usr/local/lib/ARM/CMSIS/5.4.0/CMSIS/RTOS2/RTX/Source/rtx_evflags.c ****     event_flags =  __svcEventFlagsGet(ef_id);
 560:/usr/local/lib/ARM/CMSIS/5.4.0/CMSIS/RTOS2/RTX/Source/rtx_evflags.c ****   }
 561:/usr/local/lib/ARM/CMSIS/5.4.0/CMSIS/RTOS2/RTX/Source/rtx_evflags.c ****   return event_flags;
 562:/usr/local/lib/ARM/CMSIS/5.4.0/CMSIS/RTOS2/RTX/Source/rtx_evflags.c **** }
 1572              		.loc 1 562 0
 1573 002a 08BD     		pop	{r3, pc}
 1574              	.L132:
 1575              		.align	2
 1576              	.L131:
 1577 002c 00000000 		.word	svcRtxEventFlagsGet
 1578              		.cfi_endproc
 1579              	.LFE198:
 1581              		.section	.text.osEventFlagsWait,"ax",%progbits
 1582              		.align	2
 1583              		.global	osEventFlagsWait
 1584              		.thumb
 1585              		.thumb_func
 1587              	osEventFlagsWait:
 1588              	.LFB199:
 563:/usr/local/lib/ARM/CMSIS/5.4.0/CMSIS/RTOS2/RTX/Source/rtx_evflags.c **** 
 564:/usr/local/lib/ARM/CMSIS/5.4.0/CMSIS/RTOS2/RTX/Source/rtx_evflags.c **** /// Wait for one or more Event Flags to become signaled.
 565:/usr/local/lib/ARM/CMSIS/5.4.0/CMSIS/RTOS2/RTX/Source/rtx_evflags.c **** uint32_t osEventFlagsWait (osEventFlagsId_t ef_id, uint32_t flags, uint32_t options, uint32_t timeo
 1589              		.loc 1 565 0
 1590              		.cfi_startproc
 1591              		@ args = 0, pretend = 0, frame = 0
 1592              		@ frame_needed = 0, uses_anonymous_args = 0
 1593              	.LVL162:
 1594 0000 F8B5     		push	{r3, r4, r5, r6, r7, lr}
 1595              	.LCFI21:
 1596              		.cfi_def_cfa_offset 24
 1597              		.cfi_offset 3, -24
 1598              		.cfi_offset 4, -20
ARM GAS  /tmp/cc4RTizm.s 			page 63


 1599              		.cfi_offset 5, -16
 1600              		.cfi_offset 6, -12
 1601              		.cfi_offset 7, -8
 1602              		.cfi_offset 14, -4
 1603 0002 0446     		mov	r4, r0
 1604 0004 0E46     		mov	r6, r1
 1605 0006 1746     		mov	r7, r2
 1606 0008 1D46     		mov	r5, r3
 566:/usr/local/lib/ARM/CMSIS/5.4.0/CMSIS/RTOS2/RTX/Source/rtx_evflags.c ****   uint32_t event_flags;
 567:/usr/local/lib/ARM/CMSIS/5.4.0/CMSIS/RTOS2/RTX/Source/rtx_evflags.c **** 
 568:/usr/local/lib/ARM/CMSIS/5.4.0/CMSIS/RTOS2/RTX/Source/rtx_evflags.c ****   EvrRtxEventFlagsWait(ef_id, flags, options, timeout);
 1607              		.loc 1 568 0
 1608 000a FFF7FEFF 		bl	EvrRtxEventFlagsWait
 1609              	.LVL163:
 1610              	.LBB231:
 1611              	.LBB232:
 1612              	.LBB233:
 209:/usr/local/lib/ARM/CMSIS/5.4.0/CMSIS/Core/Include/cmsis_gcc.h ****   return(result);
 1613              		.loc 4 209 0
 1614              		.syntax unified
 1615              	@ 209 "/usr/local/lib/ARM/CMSIS/5.4.0/CMSIS/Core/Include/cmsis_gcc.h" 1
 1616 000e EFF30583 		MRS r3, ipsr
 1617              	@ 0 "" 2
 1618              		.thumb
 1619              		.syntax unified
 1620              	.LBE233:
 1621              	.LBE232:
 1622              	.LBE231:
 569:/usr/local/lib/ARM/CMSIS/5.4.0/CMSIS/RTOS2/RTX/Source/rtx_evflags.c ****   if (IsIrqMode() || IsIrqMasked()) {
 1623              		.loc 1 569 0
 1624 0012 53B9     		cbnz	r3, .L134
 1625              	.LBB234:
 1626              	.LBB235:
 1627              	.LBB236:
 1628              	.LBB237:
 386:/usr/local/lib/ARM/CMSIS/5.4.0/CMSIS/Core/Include/cmsis_gcc.h ****   return(result);
 1629              		.loc 4 386 0
 1630              		.syntax unified
 1631              	@ 386 "/usr/local/lib/ARM/CMSIS/5.4.0/CMSIS/Core/Include/cmsis_gcc.h" 1
 1632 0014 EFF31083 		MRS r3, primask
 1633              	@ 0 "" 2
 1634              		.thumb
 1635              		.syntax unified
 1636              	.LBE237:
 1637              	.LBE236:
 126:/usr/local/lib/ARM/CMSIS/5.4.0/CMSIS/RTOS2/RTX/Source/rtx_core_cm.h **** #else
 1638              		.loc 2 126 0
 1639 0018 1BB9     		cbnz	r3, .L142
 1640              	.LBB238:
 1641              	.LBB239:
 1642              		.loc 4 465 0
 1643              		.syntax unified
 1644              	@ 465 "/usr/local/lib/ARM/CMSIS/5.4.0/CMSIS/Core/Include/cmsis_gcc.h" 1
 1645 001a EFF31183 		MRS r3, basepri
 1646              	@ 0 "" 2
 1647              		.thumb
 1648              		.syntax unified
ARM GAS  /tmp/cc4RTizm.s 			page 64


 1649              	.LBE239:
 1650              	.LBE238:
 126:/usr/local/lib/ARM/CMSIS/5.4.0/CMSIS/RTOS2/RTX/Source/rtx_core_cm.h **** #else
 1651              		.loc 2 126 0
 1652 001e 13B9     		cbnz	r3, .L143
 1653 0020 02E0     		b	.L135
 1654              	.L142:
 1655 0022 0123     		movs	r3, #1
 1656 0024 00E0     		b	.L135
 1657              	.L143:
 1658 0026 0123     		movs	r3, #1
 1659              	.L135:
 1660              	.LBE235:
 1661              	.LBE234:
 1662              		.loc 1 569 0
 1663 0028 2BB3     		cbz	r3, .L136
 1664              	.L134:
 1665              	.LVL164:
 1666              	.LBB240:
 1667              	.LBB241:
 477:/usr/local/lib/ARM/CMSIS/5.4.0/CMSIS/RTOS2/RTX/Source/rtx_evflags.c ****       ((flags & ~(((uint32_t)1U << osRtxEventFlagsLimit) - 1U)) != 0U)) {
 1668              		.loc 1 477 0
 1669 002a 2CB1     		cbz	r4, .L137
 1670 002c 2378     		ldrb	r3, [r4]	@ zero_extendqisi2
 1671 002e 032B     		cmp	r3, #3
 1672 0030 02D1     		bne	.L137
 1673 0032 0DB9     		cbnz	r5, .L137
 1674 0034 002E     		cmp	r6, #0
 1675 0036 07DA     		bge	.L138
 1676              	.L137:
 479:/usr/local/lib/ARM/CMSIS/5.4.0/CMSIS/RTOS2/RTX/Source/rtx_evflags.c ****     //lint -e{904} "Return statement before end of function" [MISRA Note 1]
 1677              		.loc 1 479 0
 1678 0038 6FF00301 		mvn	r1, #3
 1679 003c 2046     		mov	r0, r4
 1680 003e FFF7FEFF 		bl	EvrRtxEventFlagsError
 1681              	.LVL165:
 481:/usr/local/lib/ARM/CMSIS/5.4.0/CMSIS/RTOS2/RTX/Source/rtx_evflags.c ****   }
 1682              		.loc 1 481 0
 1683 0042 6FF00300 		mvn	r0, #3
 1684 0046 F8BD     		pop	{r3, r4, r5, r6, r7, pc}
 1685              	.LVL166:
 1686              	.L138:
 485:/usr/local/lib/ARM/CMSIS/5.4.0/CMSIS/RTOS2/RTX/Source/rtx_evflags.c ****   if (event_flags != 0U) {
 1687              		.loc 1 485 0
 1688 0048 3A46     		mov	r2, r7
 1689 004a 3146     		mov	r1, r6
 1690 004c 2046     		mov	r0, r4
 1691 004e FFF7FEFF 		bl	EventFlagsCheck
 1692              	.LVL167:
 486:/usr/local/lib/ARM/CMSIS/5.4.0/CMSIS/RTOS2/RTX/Source/rtx_evflags.c ****     EvrRtxEventFlagsWaitCompleted(ef, flags, options, event_flags);
 1693              		.loc 1 486 0
 1694 0052 0546     		mov	r5, r0
 1695              	.LVL168:
 1696 0054 38B1     		cbz	r0, .L140
 487:/usr/local/lib/ARM/CMSIS/5.4.0/CMSIS/RTOS2/RTX/Source/rtx_evflags.c ****   } else {
 1697              		.loc 1 487 0
 1698 0056 0346     		mov	r3, r0
ARM GAS  /tmp/cc4RTizm.s 			page 65


 1699 0058 3A46     		mov	r2, r7
 1700 005a 3146     		mov	r1, r6
 1701 005c 2046     		mov	r0, r4
 1702              	.LVL169:
 1703 005e FFF7FEFF 		bl	EvrRtxEventFlagsWaitCompleted
 1704              	.LVL170:
 485:/usr/local/lib/ARM/CMSIS/5.4.0/CMSIS/RTOS2/RTX/Source/rtx_evflags.c ****   if (event_flags != 0U) {
 1705              		.loc 1 485 0
 1706 0062 2846     		mov	r0, r5
 1707 0064 F8BD     		pop	{r3, r4, r5, r6, r7, pc}
 1708              	.LVL171:
 1709              	.L140:
 489:/usr/local/lib/ARM/CMSIS/5.4.0/CMSIS/RTOS2/RTX/Source/rtx_evflags.c ****     event_flags = (uint32_t)osErrorResource;
 1710              		.loc 1 489 0
 1711 0066 3A46     		mov	r2, r7
 1712 0068 3146     		mov	r1, r6
 1713 006a 2046     		mov	r0, r4
 1714              	.LVL172:
 1715 006c FFF7FEFF 		bl	EvrRtxEventFlagsWaitNotCompleted
 1716              	.LVL173:
 490:/usr/local/lib/ARM/CMSIS/5.4.0/CMSIS/RTOS2/RTX/Source/rtx_evflags.c ****   }
 1717              		.loc 1 490 0
 1718 0070 6FF00200 		mvn	r0, #2
 1719              	.LVL174:
 1720              	.LBE241:
 1721              	.LBE240:
 570:/usr/local/lib/ARM/CMSIS/5.4.0/CMSIS/RTOS2/RTX/Source/rtx_evflags.c ****     event_flags = isrRtxEventFlagsWait(ef_id, flags, options, timeout);
 1722              		.loc 1 570 0
 1723 0074 F8BD     		pop	{r3, r4, r5, r6, r7, pc}
 1724              	.LVL175:
 1725              	.L136:
 1726              	.LBB242:
 1727              	.LBB243:
 436:/usr/local/lib/ARM/CMSIS/5.4.0/CMSIS/RTOS2/RTX/Source/rtx_evflags.c **** SVC0_1(EventFlagsDelete,  osStatus_t,       osEventFlagsId_t)
 1728              		.loc 1 436 0
 1729 0076 2046     		mov	r0, r4
 1730 0078 3146     		mov	r1, r6
 1731 007a 3A46     		mov	r2, r7
 1732 007c 2B46     		mov	r3, r5
 1733 007e DFF808C0 		ldr	ip, .L145
 1734              		.syntax unified
 1735              	@ 436 "/usr/local/lib/ARM/CMSIS/5.4.0/CMSIS/RTOS2/RTX/Source/rtx_evflags.c" 1
 1736 0082 00DF     		svc 0
 1737              	@ 0 "" 2
 1738              	.LVL176:
 1739              		.thumb
 1740              		.syntax unified
 1741              	.LBE243:
 1742              	.LBE242:
 571:/usr/local/lib/ARM/CMSIS/5.4.0/CMSIS/RTOS2/RTX/Source/rtx_evflags.c ****   } else {
 572:/usr/local/lib/ARM/CMSIS/5.4.0/CMSIS/RTOS2/RTX/Source/rtx_evflags.c ****     event_flags =  __svcEventFlagsWait(ef_id, flags, options, timeout);
 573:/usr/local/lib/ARM/CMSIS/5.4.0/CMSIS/RTOS2/RTX/Source/rtx_evflags.c ****   }
 574:/usr/local/lib/ARM/CMSIS/5.4.0/CMSIS/RTOS2/RTX/Source/rtx_evflags.c ****   return event_flags;
 575:/usr/local/lib/ARM/CMSIS/5.4.0/CMSIS/RTOS2/RTX/Source/rtx_evflags.c **** }
 1743              		.loc 1 575 0
 1744 0084 F8BD     		pop	{r3, r4, r5, r6, r7, pc}
 1745              	.LVL177:
ARM GAS  /tmp/cc4RTizm.s 			page 66


 1746              	.L146:
 1747 0086 00BF     		.align	2
 1748              	.L145:
 1749 0088 00000000 		.word	svcRtxEventFlagsWait
 1750              		.cfi_endproc
 1751              	.LFE199:
 1753              		.section	.text.osEventFlagsDelete,"ax",%progbits
 1754              		.align	2
 1755              		.global	osEventFlagsDelete
 1756              		.thumb
 1757              		.thumb_func
 1759              	osEventFlagsDelete:
 1760              	.LFB200:
 576:/usr/local/lib/ARM/CMSIS/5.4.0/CMSIS/RTOS2/RTX/Source/rtx_evflags.c **** 
 577:/usr/local/lib/ARM/CMSIS/5.4.0/CMSIS/RTOS2/RTX/Source/rtx_evflags.c **** /// Delete an Event Flags object.
 578:/usr/local/lib/ARM/CMSIS/5.4.0/CMSIS/RTOS2/RTX/Source/rtx_evflags.c **** osStatus_t osEventFlagsDelete (osEventFlagsId_t ef_id) {
 1761              		.loc 1 578 0
 1762              		.cfi_startproc
 1763              		@ args = 0, pretend = 0, frame = 0
 1764              		@ frame_needed = 0, uses_anonymous_args = 0
 1765              	.LVL178:
 1766 0000 10B5     		push	{r4, lr}
 1767              	.LCFI22:
 1768              		.cfi_def_cfa_offset 8
 1769              		.cfi_offset 4, -8
 1770              		.cfi_offset 14, -4
 1771 0002 0446     		mov	r4, r0
 579:/usr/local/lib/ARM/CMSIS/5.4.0/CMSIS/RTOS2/RTX/Source/rtx_evflags.c ****   osStatus_t status;
 580:/usr/local/lib/ARM/CMSIS/5.4.0/CMSIS/RTOS2/RTX/Source/rtx_evflags.c **** 
 581:/usr/local/lib/ARM/CMSIS/5.4.0/CMSIS/RTOS2/RTX/Source/rtx_evflags.c ****   EvrRtxEventFlagsDelete(ef_id);
 1772              		.loc 1 581 0
 1773 0004 FFF7FEFF 		bl	EvrRtxEventFlagsDelete
 1774              	.LVL179:
 1775              	.LBB244:
 1776              	.LBB245:
 1777              	.LBB246:
 209:/usr/local/lib/ARM/CMSIS/5.4.0/CMSIS/Core/Include/cmsis_gcc.h ****   return(result);
 1778              		.loc 4 209 0
 1779              		.syntax unified
 1780              	@ 209 "/usr/local/lib/ARM/CMSIS/5.4.0/CMSIS/Core/Include/cmsis_gcc.h" 1
 1781 0008 EFF30583 		MRS r3, ipsr
 1782              	@ 0 "" 2
 1783              		.thumb
 1784              		.syntax unified
 1785              	.LBE246:
 1786              	.LBE245:
 1787              	.LBE244:
 582:/usr/local/lib/ARM/CMSIS/5.4.0/CMSIS/RTOS2/RTX/Source/rtx_evflags.c ****   if (IsIrqMode() || IsIrqMasked()) {
 1788              		.loc 1 582 0
 1789 000c 53B9     		cbnz	r3, .L148
 1790              	.LBB247:
 1791              	.LBB248:
 1792              	.LBB249:
 1793              	.LBB250:
 386:/usr/local/lib/ARM/CMSIS/5.4.0/CMSIS/Core/Include/cmsis_gcc.h ****   return(result);
 1794              		.loc 4 386 0
 1795              		.syntax unified
ARM GAS  /tmp/cc4RTizm.s 			page 67


 1796              	@ 386 "/usr/local/lib/ARM/CMSIS/5.4.0/CMSIS/Core/Include/cmsis_gcc.h" 1
 1797 000e EFF31083 		MRS r3, primask
 1798              	@ 0 "" 2
 1799              		.thumb
 1800              		.syntax unified
 1801              	.LBE250:
 1802              	.LBE249:
 126:/usr/local/lib/ARM/CMSIS/5.4.0/CMSIS/RTOS2/RTX/Source/rtx_core_cm.h **** #else
 1803              		.loc 2 126 0
 1804 0012 1BB9     		cbnz	r3, .L152
 1805              	.LBB251:
 1806              	.LBB252:
 1807              		.loc 4 465 0
 1808              		.syntax unified
 1809              	@ 465 "/usr/local/lib/ARM/CMSIS/5.4.0/CMSIS/Core/Include/cmsis_gcc.h" 1
 1810 0014 EFF31183 		MRS r3, basepri
 1811              	@ 0 "" 2
 1812              		.thumb
 1813              		.syntax unified
 1814              	.LBE252:
 1815              	.LBE251:
 126:/usr/local/lib/ARM/CMSIS/5.4.0/CMSIS/RTOS2/RTX/Source/rtx_core_cm.h **** #else
 1816              		.loc 2 126 0
 1817 0018 13B9     		cbnz	r3, .L153
 1818 001a 02E0     		b	.L149
 1819              	.L152:
 1820 001c 0123     		movs	r3, #1
 1821 001e 00E0     		b	.L149
 1822              	.L153:
 1823 0020 0123     		movs	r3, #1
 1824              	.L149:
 1825              	.LBE248:
 1826              	.LBE247:
 1827              		.loc 1 582 0
 1828 0022 3BB1     		cbz	r3, .L150
 1829              	.L148:
 583:/usr/local/lib/ARM/CMSIS/5.4.0/CMSIS/RTOS2/RTX/Source/rtx_evflags.c ****     EvrRtxEventFlagsError(ef_id, (int32_t)osErrorISR);
 1830              		.loc 1 583 0
 1831 0024 6FF00501 		mvn	r1, #5
 1832 0028 2046     		mov	r0, r4
 1833 002a FFF7FEFF 		bl	EvrRtxEventFlagsError
 1834              	.LVL180:
 584:/usr/local/lib/ARM/CMSIS/5.4.0/CMSIS/RTOS2/RTX/Source/rtx_evflags.c ****     status = osErrorISR;
 1835              		.loc 1 584 0
 1836 002e 6FF00500 		mvn	r0, #5
 1837 0032 10BD     		pop	{r4, pc}
 1838              	.LVL181:
 1839              	.L150:
 1840              	.LBB253:
 1841              	.LBB254:
 437:/usr/local/lib/ARM/CMSIS/5.4.0/CMSIS/RTOS2/RTX/Source/rtx_evflags.c **** //lint --flb "Library End"
 1842              		.loc 1 437 0
 1843 0034 2046     		mov	r0, r4
 1844 0036 DFF808C0 		ldr	ip, .L155
 1845              		.syntax unified
 1846              	@ 437 "/usr/local/lib/ARM/CMSIS/5.4.0/CMSIS/RTOS2/RTX/Source/rtx_evflags.c" 1
 1847 003a 00DF     		svc 0
ARM GAS  /tmp/cc4RTizm.s 			page 68


 1848              	@ 0 "" 2
 1849              	.LVL182:
 1850              		.thumb
 1851              		.syntax unified
 1852              	.LBE254:
 1853              	.LBE253:
 585:/usr/local/lib/ARM/CMSIS/5.4.0/CMSIS/RTOS2/RTX/Source/rtx_evflags.c ****   } else {
 586:/usr/local/lib/ARM/CMSIS/5.4.0/CMSIS/RTOS2/RTX/Source/rtx_evflags.c ****     status = __svcEventFlagsDelete(ef_id);
 587:/usr/local/lib/ARM/CMSIS/5.4.0/CMSIS/RTOS2/RTX/Source/rtx_evflags.c ****   }
 588:/usr/local/lib/ARM/CMSIS/5.4.0/CMSIS/RTOS2/RTX/Source/rtx_evflags.c ****   return status;
 589:/usr/local/lib/ARM/CMSIS/5.4.0/CMSIS/RTOS2/RTX/Source/rtx_evflags.c **** }
 1854              		.loc 1 589 0
 1855 003c 10BD     		pop	{r4, pc}
 1856              	.LVL183:
 1857              	.L156:
 1858 003e 00BF     		.align	2
 1859              	.L155:
 1860 0040 00000000 		.word	svcRtxEventFlagsDelete
 1861              		.cfi_endproc
 1862              	.LFE200:
 1864              		.text
 1865              	.Letext0:
 1866              		.file 5 "/usr/include/newlib/machine/_default_types.h"
 1867              		.file 6 "/usr/include/newlib/sys/_stdint.h"
 1868              		.file 7 "/usr/local/lib/ARM/CMSIS/5.4.0/CMSIS/RTOS2/Include/cmsis_os2.h"
 1869              		.file 8 "/usr/local/lib/ARM/CMSIS/5.4.0/CMSIS/RTOS2/RTX/Include/rtx_os.h"
 1870              		.file 9 "/usr/local/lib/ARM/CMSIS/5.4.0/CMSIS/Core/Include/core_cm4.h"
 1871              		.file 10 "/usr/local/lib/ARM/CMSIS/5.4.0/CMSIS/RTOS2/RTX/Include/rtx_evr.h"
ARM GAS  /tmp/cc4RTizm.s 			page 69


DEFINED SYMBOLS
                            *ABS*:0000000000000000 rtx_evflags.c
     /tmp/cc4RTizm.s:22     .text.EventFlagsSet:0000000000000000 $t
     /tmp/cc4RTizm.s:26     .text.EventFlagsSet:0000000000000000 EventFlagsSet
     /tmp/cc4RTizm.s:72     .text.EventFlagsClear:0000000000000000 $t
     /tmp/cc4RTizm.s:76     .text.EventFlagsClear:0000000000000000 EventFlagsClear
     /tmp/cc4RTizm.s:120    .text.EventFlagsCheck:0000000000000000 $t
     /tmp/cc4RTizm.s:124    .text.EventFlagsCheck:0000000000000000 EventFlagsCheck
     /tmp/cc4RTizm.s:252    .text.svcRtxEventFlagsNew:0000000000000000 $t
     /tmp/cc4RTizm.s:256    .text.svcRtxEventFlagsNew:0000000000000000 svcRtxEventFlagsNew
     /tmp/cc4RTizm.s:397    .text.svcRtxEventFlagsNew:0000000000000094 $d
     /tmp/cc4RTizm.s:407    .text.osRtxEventFlagsPostProcess:0000000000000000 osRtxEventFlagsPostProcess
     /tmp/cc4RTizm.s:403    .text.osRtxEventFlagsPostProcess:0000000000000000 $t
     /tmp/cc4RTizm.s:475    .text.svcRtxEventFlagsGetName:0000000000000000 $t
     /tmp/cc4RTizm.s:479    .text.svcRtxEventFlagsGetName:0000000000000000 svcRtxEventFlagsGetName
     /tmp/cc4RTizm.s:522    .text.svcRtxEventFlagsSet:0000000000000000 $t
     /tmp/cc4RTizm.s:526    .text.svcRtxEventFlagsSet:0000000000000000 svcRtxEventFlagsSet
     /tmp/cc4RTizm.s:647    .text.svcRtxEventFlagsClear:0000000000000000 $t
     /tmp/cc4RTizm.s:651    .text.svcRtxEventFlagsClear:0000000000000000 svcRtxEventFlagsClear
     /tmp/cc4RTizm.s:707    .text.svcRtxEventFlagsGet:0000000000000000 $t
     /tmp/cc4RTizm.s:711    .text.svcRtxEventFlagsGet:0000000000000000 svcRtxEventFlagsGet
     /tmp/cc4RTizm.s:754    .text.svcRtxEventFlagsWait:0000000000000000 $t
     /tmp/cc4RTizm.s:758    .text.svcRtxEventFlagsWait:0000000000000000 svcRtxEventFlagsWait
     /tmp/cc4RTizm.s:896    .text.svcRtxEventFlagsWait:00000000000000a8 $d
     /tmp/cc4RTizm.s:901    .text.svcRtxEventFlagsDelete:0000000000000000 $t
     /tmp/cc4RTizm.s:905    .text.svcRtxEventFlagsDelete:0000000000000000 svcRtxEventFlagsDelete
     /tmp/cc4RTizm.s:995    .text.svcRtxEventFlagsDelete:0000000000000070 $d
     /tmp/cc4RTizm.s:1000   .text.osEventFlagsNew:0000000000000000 $t
     /tmp/cc4RTizm.s:1005   .text.osEventFlagsNew:0000000000000000 osEventFlagsNew
     /tmp/cc4RTizm.s:1107   .text.osEventFlagsNew:000000000000003c $d
     /tmp/cc4RTizm.s:1112   .text.osEventFlagsGetName:0000000000000000 $t
     /tmp/cc4RTizm.s:1117   .text.osEventFlagsGetName:0000000000000000 osEventFlagsGetName
     /tmp/cc4RTizm.s:1211   .text.osEventFlagsGetName:0000000000000030 $d
     /tmp/cc4RTizm.s:1216   .text.osEventFlagsSet:0000000000000000 $t
     /tmp/cc4RTizm.s:1221   .text.osEventFlagsSet:0000000000000000 osEventFlagsSet
     /tmp/cc4RTizm.s:1363   .text.osEventFlagsSet:000000000000006c $d
     /tmp/cc4RTizm.s:1368   .text.osEventFlagsClear:0000000000000000 $t
     /tmp/cc4RTizm.s:1373   .text.osEventFlagsClear:0000000000000000 osEventFlagsClear
     /tmp/cc4RTizm.s:1476   .text.osEventFlagsClear:000000000000003c $d
     /tmp/cc4RTizm.s:1481   .text.osEventFlagsGet:0000000000000000 $t
     /tmp/cc4RTizm.s:1486   .text.osEventFlagsGet:0000000000000000 osEventFlagsGet
     /tmp/cc4RTizm.s:1577   .text.osEventFlagsGet:000000000000002c $d
     /tmp/cc4RTizm.s:1582   .text.osEventFlagsWait:0000000000000000 $t
     /tmp/cc4RTizm.s:1587   .text.osEventFlagsWait:0000000000000000 osEventFlagsWait
     /tmp/cc4RTizm.s:1749   .text.osEventFlagsWait:0000000000000088 $d
     /tmp/cc4RTizm.s:1754   .text.osEventFlagsDelete:0000000000000000 $t
     /tmp/cc4RTizm.s:1759   .text.osEventFlagsDelete:0000000000000000 osEventFlagsDelete
     /tmp/cc4RTizm.s:1860   .text.osEventFlagsDelete:0000000000000040 $d
                     .debug_frame:0000000000000010 $d

UNDEFINED SYMBOLS
EvrRtxEventFlagsError
osRtxMemoryPoolAlloc
osRtxMemoryAlloc
EvrRtxEventFlagsCreated
osRtxInfo
osRtxThreadListRemove
ARM GAS  /tmp/cc4RTizm.s 			page 70


osRtxThreadWaitExit
EvrRtxEventFlagsWaitCompleted
EvrRtxEventFlagsGetName
osRtxThreadDispatch
EvrRtxEventFlagsSetDone
EvrRtxEventFlagsClearDone
EvrRtxEventFlagsGet
EvrRtxEventFlagsWaitPending
osRtxThreadWaitEnter
osRtxThreadListPut
EvrRtxEventFlagsWaitTimeout
EvrRtxEventFlagsWaitNotCompleted
osRtxThreadListGet
osRtxMemoryPoolFree
osRtxMemoryFree
EvrRtxEventFlagsDestroyed
EvrRtxEventFlagsNew
EvrRtxEventFlagsSet
osRtxPostProcess
EvrRtxEventFlagsClear
EvrRtxEventFlagsWait
EvrRtxEventFlagsDelete
