ARM GAS  /tmp/ccOyeoN6.s 			page 1


   1              		.syntax unified
   2              		.cpu cortex-m4
   3              		.eabi_attribute 27, 1
   4              		.eabi_attribute 28, 1
   5              		.fpu fpv4-sp-d16
   6              		.eabi_attribute 20, 1
   7              		.eabi_attribute 21, 1
   8              		.eabi_attribute 23, 3
   9              		.eabi_attribute 24, 1
  10              		.eabi_attribute 25, 1
  11              		.eabi_attribute 26, 1
  12              		.eabi_attribute 30, 1
  13              		.eabi_attribute 34, 1
  14              		.eabi_attribute 18, 4
  15              		.thumb
  16              		.syntax unified
  17              		.file	"rtx_kernel.c"
  18              		.text
  19              	.Ltext0:
  20              		.cfi_sections	.debug_frame
  21              		.section	.text.svcRtxKernelInitialize,"ax",%progbits
  22              		.align	2
  23              		.thumb
  24              		.thumb_func
  26              	svcRtxKernelInitialize:
  27              	.LFB176:
  28              		.file 1 "/usr/local/lib/ARM/CMSIS/5.4.0/CMSIS/RTOS2/RTX/Source/rtx_kernel.c"
   1:/usr/local/lib/ARM/CMSIS/5.4.0/CMSIS/RTOS2/RTX/Source/rtx_kernel.c **** /*
   2:/usr/local/lib/ARM/CMSIS/5.4.0/CMSIS/RTOS2/RTX/Source/rtx_kernel.c ****  * Copyright (c) 2013-2018 Arm Limited. All rights reserved.
   3:/usr/local/lib/ARM/CMSIS/5.4.0/CMSIS/RTOS2/RTX/Source/rtx_kernel.c ****  *
   4:/usr/local/lib/ARM/CMSIS/5.4.0/CMSIS/RTOS2/RTX/Source/rtx_kernel.c ****  * SPDX-License-Identifier: Apache-2.0
   5:/usr/local/lib/ARM/CMSIS/5.4.0/CMSIS/RTOS2/RTX/Source/rtx_kernel.c ****  *
   6:/usr/local/lib/ARM/CMSIS/5.4.0/CMSIS/RTOS2/RTX/Source/rtx_kernel.c ****  * Licensed under the Apache License, Version 2.0 (the License); you may
   7:/usr/local/lib/ARM/CMSIS/5.4.0/CMSIS/RTOS2/RTX/Source/rtx_kernel.c ****  * not use this file except in compliance with the License.
   8:/usr/local/lib/ARM/CMSIS/5.4.0/CMSIS/RTOS2/RTX/Source/rtx_kernel.c ****  * You may obtain a copy of the License at
   9:/usr/local/lib/ARM/CMSIS/5.4.0/CMSIS/RTOS2/RTX/Source/rtx_kernel.c ****  *
  10:/usr/local/lib/ARM/CMSIS/5.4.0/CMSIS/RTOS2/RTX/Source/rtx_kernel.c ****  * www.apache.org/licenses/LICENSE-2.0
  11:/usr/local/lib/ARM/CMSIS/5.4.0/CMSIS/RTOS2/RTX/Source/rtx_kernel.c ****  *
  12:/usr/local/lib/ARM/CMSIS/5.4.0/CMSIS/RTOS2/RTX/Source/rtx_kernel.c ****  * Unless required by applicable law or agreed to in writing, software
  13:/usr/local/lib/ARM/CMSIS/5.4.0/CMSIS/RTOS2/RTX/Source/rtx_kernel.c ****  * distributed under the License is distributed on an AS IS BASIS, WITHOUT
  14:/usr/local/lib/ARM/CMSIS/5.4.0/CMSIS/RTOS2/RTX/Source/rtx_kernel.c ****  * WARRANTIES OR CONDITIONS OF ANY KIND, either express or implied.
  15:/usr/local/lib/ARM/CMSIS/5.4.0/CMSIS/RTOS2/RTX/Source/rtx_kernel.c ****  * See the License for the specific language governing permissions and
  16:/usr/local/lib/ARM/CMSIS/5.4.0/CMSIS/RTOS2/RTX/Source/rtx_kernel.c ****  * limitations under the License.
  17:/usr/local/lib/ARM/CMSIS/5.4.0/CMSIS/RTOS2/RTX/Source/rtx_kernel.c ****  *
  18:/usr/local/lib/ARM/CMSIS/5.4.0/CMSIS/RTOS2/RTX/Source/rtx_kernel.c ****  * -----------------------------------------------------------------------------
  19:/usr/local/lib/ARM/CMSIS/5.4.0/CMSIS/RTOS2/RTX/Source/rtx_kernel.c ****  *
  20:/usr/local/lib/ARM/CMSIS/5.4.0/CMSIS/RTOS2/RTX/Source/rtx_kernel.c ****  * Project:     CMSIS-RTOS RTX
  21:/usr/local/lib/ARM/CMSIS/5.4.0/CMSIS/RTOS2/RTX/Source/rtx_kernel.c ****  * Title:       Kernel functions
  22:/usr/local/lib/ARM/CMSIS/5.4.0/CMSIS/RTOS2/RTX/Source/rtx_kernel.c ****  *
  23:/usr/local/lib/ARM/CMSIS/5.4.0/CMSIS/RTOS2/RTX/Source/rtx_kernel.c ****  * -----------------------------------------------------------------------------
  24:/usr/local/lib/ARM/CMSIS/5.4.0/CMSIS/RTOS2/RTX/Source/rtx_kernel.c ****  */
  25:/usr/local/lib/ARM/CMSIS/5.4.0/CMSIS/RTOS2/RTX/Source/rtx_kernel.c **** 
  26:/usr/local/lib/ARM/CMSIS/5.4.0/CMSIS/RTOS2/RTX/Source/rtx_kernel.c **** #include "rtx_lib.h"
  27:/usr/local/lib/ARM/CMSIS/5.4.0/CMSIS/RTOS2/RTX/Source/rtx_kernel.c **** 
  28:/usr/local/lib/ARM/CMSIS/5.4.0/CMSIS/RTOS2/RTX/Source/rtx_kernel.c **** 
  29:/usr/local/lib/ARM/CMSIS/5.4.0/CMSIS/RTOS2/RTX/Source/rtx_kernel.c **** //  OS Runtime Information
  30:/usr/local/lib/ARM/CMSIS/5.4.0/CMSIS/RTOS2/RTX/Source/rtx_kernel.c **** osRtxInfo_t osRtxInfo __attribute__((section(".data.os"))) =
ARM GAS  /tmp/ccOyeoN6.s 			page 2


  31:/usr/local/lib/ARM/CMSIS/5.4.0/CMSIS/RTOS2/RTX/Source/rtx_kernel.c **** //lint -e{785} "Initialize only OS ID, OS Version and Kernel State"
  32:/usr/local/lib/ARM/CMSIS/5.4.0/CMSIS/RTOS2/RTX/Source/rtx_kernel.c **** { .os_id = osRtxKernelId, .version = osRtxVersionKernel, .kernel.state = osRtxKernelInactive };
  33:/usr/local/lib/ARM/CMSIS/5.4.0/CMSIS/RTOS2/RTX/Source/rtx_kernel.c **** 
  34:/usr/local/lib/ARM/CMSIS/5.4.0/CMSIS/RTOS2/RTX/Source/rtx_kernel.c **** 
  35:/usr/local/lib/ARM/CMSIS/5.4.0/CMSIS/RTOS2/RTX/Source/rtx_kernel.c **** //  ==== Helper functions ====
  36:/usr/local/lib/ARM/CMSIS/5.4.0/CMSIS/RTOS2/RTX/Source/rtx_kernel.c **** 
  37:/usr/local/lib/ARM/CMSIS/5.4.0/CMSIS/RTOS2/RTX/Source/rtx_kernel.c **** /// Block Kernel (disable: thread switching, time tick, post ISR processing).
  38:/usr/local/lib/ARM/CMSIS/5.4.0/CMSIS/RTOS2/RTX/Source/rtx_kernel.c **** static void KernelBlock (void) {
  39:/usr/local/lib/ARM/CMSIS/5.4.0/CMSIS/RTOS2/RTX/Source/rtx_kernel.c **** 
  40:/usr/local/lib/ARM/CMSIS/5.4.0/CMSIS/RTOS2/RTX/Source/rtx_kernel.c ****   OS_Tick_Disable();
  41:/usr/local/lib/ARM/CMSIS/5.4.0/CMSIS/RTOS2/RTX/Source/rtx_kernel.c **** 
  42:/usr/local/lib/ARM/CMSIS/5.4.0/CMSIS/RTOS2/RTX/Source/rtx_kernel.c ****   osRtxInfo.kernel.blocked = 1U;
  43:/usr/local/lib/ARM/CMSIS/5.4.0/CMSIS/RTOS2/RTX/Source/rtx_kernel.c ****   __DSB();
  44:/usr/local/lib/ARM/CMSIS/5.4.0/CMSIS/RTOS2/RTX/Source/rtx_kernel.c **** 
  45:/usr/local/lib/ARM/CMSIS/5.4.0/CMSIS/RTOS2/RTX/Source/rtx_kernel.c ****   if (GetPendSV() != 0U) {
  46:/usr/local/lib/ARM/CMSIS/5.4.0/CMSIS/RTOS2/RTX/Source/rtx_kernel.c ****     ClrPendSV();
  47:/usr/local/lib/ARM/CMSIS/5.4.0/CMSIS/RTOS2/RTX/Source/rtx_kernel.c ****     osRtxInfo.kernel.pendSV = 1U;
  48:/usr/local/lib/ARM/CMSIS/5.4.0/CMSIS/RTOS2/RTX/Source/rtx_kernel.c ****   }
  49:/usr/local/lib/ARM/CMSIS/5.4.0/CMSIS/RTOS2/RTX/Source/rtx_kernel.c **** }
  50:/usr/local/lib/ARM/CMSIS/5.4.0/CMSIS/RTOS2/RTX/Source/rtx_kernel.c **** 
  51:/usr/local/lib/ARM/CMSIS/5.4.0/CMSIS/RTOS2/RTX/Source/rtx_kernel.c **** /// Unblock Kernel
  52:/usr/local/lib/ARM/CMSIS/5.4.0/CMSIS/RTOS2/RTX/Source/rtx_kernel.c **** static void KernelUnblock (void) {
  53:/usr/local/lib/ARM/CMSIS/5.4.0/CMSIS/RTOS2/RTX/Source/rtx_kernel.c **** 
  54:/usr/local/lib/ARM/CMSIS/5.4.0/CMSIS/RTOS2/RTX/Source/rtx_kernel.c ****   osRtxInfo.kernel.blocked = 0U;
  55:/usr/local/lib/ARM/CMSIS/5.4.0/CMSIS/RTOS2/RTX/Source/rtx_kernel.c ****   __DSB();
  56:/usr/local/lib/ARM/CMSIS/5.4.0/CMSIS/RTOS2/RTX/Source/rtx_kernel.c **** 
  57:/usr/local/lib/ARM/CMSIS/5.4.0/CMSIS/RTOS2/RTX/Source/rtx_kernel.c ****   if (osRtxInfo.kernel.pendSV != 0U) {
  58:/usr/local/lib/ARM/CMSIS/5.4.0/CMSIS/RTOS2/RTX/Source/rtx_kernel.c ****     osRtxInfo.kernel.pendSV = 0U;
  59:/usr/local/lib/ARM/CMSIS/5.4.0/CMSIS/RTOS2/RTX/Source/rtx_kernel.c ****     SetPendSV();
  60:/usr/local/lib/ARM/CMSIS/5.4.0/CMSIS/RTOS2/RTX/Source/rtx_kernel.c ****   }
  61:/usr/local/lib/ARM/CMSIS/5.4.0/CMSIS/RTOS2/RTX/Source/rtx_kernel.c **** 
  62:/usr/local/lib/ARM/CMSIS/5.4.0/CMSIS/RTOS2/RTX/Source/rtx_kernel.c ****   OS_Tick_Enable();
  63:/usr/local/lib/ARM/CMSIS/5.4.0/CMSIS/RTOS2/RTX/Source/rtx_kernel.c **** }
  64:/usr/local/lib/ARM/CMSIS/5.4.0/CMSIS/RTOS2/RTX/Source/rtx_kernel.c **** 
  65:/usr/local/lib/ARM/CMSIS/5.4.0/CMSIS/RTOS2/RTX/Source/rtx_kernel.c **** 
  66:/usr/local/lib/ARM/CMSIS/5.4.0/CMSIS/RTOS2/RTX/Source/rtx_kernel.c **** //  ==== Service Calls ====
  67:/usr/local/lib/ARM/CMSIS/5.4.0/CMSIS/RTOS2/RTX/Source/rtx_kernel.c **** 
  68:/usr/local/lib/ARM/CMSIS/5.4.0/CMSIS/RTOS2/RTX/Source/rtx_kernel.c **** /// Initialize the RTOS Kernel.
  69:/usr/local/lib/ARM/CMSIS/5.4.0/CMSIS/RTOS2/RTX/Source/rtx_kernel.c **** /// \note API identical to osKernelInitialize
  70:/usr/local/lib/ARM/CMSIS/5.4.0/CMSIS/RTOS2/RTX/Source/rtx_kernel.c **** static osStatus_t svcRtxKernelInitialize (void) {
  29              		.loc 1 70 0
  30              		.cfi_startproc
  31              		@ args = 0, pretend = 0, frame = 0
  32              		@ frame_needed = 0, uses_anonymous_args = 0
  33 0000 70B5     		push	{r4, r5, r6, lr}
  34              	.LCFI0:
  35              		.cfi_def_cfa_offset 16
  36              		.cfi_offset 4, -16
  37              		.cfi_offset 5, -12
  38              		.cfi_offset 6, -8
  39              		.cfi_offset 14, -4
  71:/usr/local/lib/ARM/CMSIS/5.4.0/CMSIS/RTOS2/RTX/Source/rtx_kernel.c **** 
  72:/usr/local/lib/ARM/CMSIS/5.4.0/CMSIS/RTOS2/RTX/Source/rtx_kernel.c ****   if (osRtxInfo.kernel.state == osRtxKernelReady) {
  40              		.loc 1 72 0
  41 0002 6B4B     		ldr	r3, .L24
  42 0004 1B7A     		ldrb	r3, [r3, #8]	@ zero_extendqisi2
  43 0006 012B     		cmp	r3, #1
ARM GAS  /tmp/ccOyeoN6.s 			page 3


  44 0008 03D1     		bne	.L2
  73:/usr/local/lib/ARM/CMSIS/5.4.0/CMSIS/RTOS2/RTX/Source/rtx_kernel.c ****     EvrRtxKernelInitialized();
  45              		.loc 1 73 0
  46 000a FFF7FEFF 		bl	EvrRtxKernelInitialized
  47              	.LVL0:
  74:/usr/local/lib/ARM/CMSIS/5.4.0/CMSIS/RTOS2/RTX/Source/rtx_kernel.c ****     //lint -e{904} "Return statement before end of function" [MISRA Note 1]
  75:/usr/local/lib/ARM/CMSIS/5.4.0/CMSIS/RTOS2/RTX/Source/rtx_kernel.c ****     return osOK;
  48              		.loc 1 75 0
  49 000e 0020     		movs	r0, #0
  50 0010 70BD     		pop	{r4, r5, r6, pc}
  51              	.L2:
  76:/usr/local/lib/ARM/CMSIS/5.4.0/CMSIS/RTOS2/RTX/Source/rtx_kernel.c ****   }
  77:/usr/local/lib/ARM/CMSIS/5.4.0/CMSIS/RTOS2/RTX/Source/rtx_kernel.c ****   if (osRtxInfo.kernel.state != osRtxKernelInactive) {
  52              		.loc 1 77 0
  53 0012 33B1     		cbz	r3, .L4
  78:/usr/local/lib/ARM/CMSIS/5.4.0/CMSIS/RTOS2/RTX/Source/rtx_kernel.c ****     EvrRtxKernelError((int32_t)osError);
  54              		.loc 1 78 0
  55 0014 4FF0FF30 		mov	r0, #-1
  56 0018 FFF7FEFF 		bl	EvrRtxKernelError
  57              	.LVL1:
  79:/usr/local/lib/ARM/CMSIS/5.4.0/CMSIS/RTOS2/RTX/Source/rtx_kernel.c ****     //lint -e{904} "Return statement before end of function" [MISRA Note 1]
  80:/usr/local/lib/ARM/CMSIS/5.4.0/CMSIS/RTOS2/RTX/Source/rtx_kernel.c ****     return osError;
  58              		.loc 1 80 0
  59 001c 4FF0FF30 		mov	r0, #-1
  60 0020 70BD     		pop	{r4, r5, r6, pc}
  61              	.L4:
  81:/usr/local/lib/ARM/CMSIS/5.4.0/CMSIS/RTOS2/RTX/Source/rtx_kernel.c ****   }
  82:/usr/local/lib/ARM/CMSIS/5.4.0/CMSIS/RTOS2/RTX/Source/rtx_kernel.c **** 
  83:/usr/local/lib/ARM/CMSIS/5.4.0/CMSIS/RTOS2/RTX/Source/rtx_kernel.c ****   if (osRtxConfig.thread_stack_size < (64U + 8U)) {
  62              		.loc 1 83 0
  63 0022 644B     		ldr	r3, .L24+4
  64 0024 5B6D     		ldr	r3, [r3, #84]
  65 0026 472B     		cmp	r3, #71
  66 0028 06D8     		bhi	.L5
  84:/usr/local/lib/ARM/CMSIS/5.4.0/CMSIS/RTOS2/RTX/Source/rtx_kernel.c ****     EvrRtxKernelError(osRtxErrorInvalidThreadStack);
  67              		.loc 1 84 0
  68 002a 6FF00A00 		mvn	r0, #10
  69 002e FFF7FEFF 		bl	EvrRtxKernelError
  70              	.LVL2:
  85:/usr/local/lib/ARM/CMSIS/5.4.0/CMSIS/RTOS2/RTX/Source/rtx_kernel.c ****     //lint -e{904} "Return statement before end of function" [MISRA Note 1]
  86:/usr/local/lib/ARM/CMSIS/5.4.0/CMSIS/RTOS2/RTX/Source/rtx_kernel.c ****     return osError;
  71              		.loc 1 86 0
  72 0032 4FF0FF30 		mov	r0, #-1
  73 0036 70BD     		pop	{r4, r5, r6, pc}
  74              	.L5:
  87:/usr/local/lib/ARM/CMSIS/5.4.0/CMSIS/RTOS2/RTX/Source/rtx_kernel.c ****   }
  88:/usr/local/lib/ARM/CMSIS/5.4.0/CMSIS/RTOS2/RTX/Source/rtx_kernel.c **** 
  89:/usr/local/lib/ARM/CMSIS/5.4.0/CMSIS/RTOS2/RTX/Source/rtx_kernel.c ****   if ((osRtxConfig.isr_queue.data == NULL) || (osRtxConfig.isr_queue.max == 0U)) {
  75              		.loc 1 89 0
  76 0038 5E4B     		ldr	r3, .L24+4
  77 003a DD68     		ldr	r5, [r3, #12]
  78 003c 0DB1     		cbz	r5, .L6
  79              		.loc 1 89 0 is_stmt 0 discriminator 1
  80 003e 1E8A     		ldrh	r6, [r3, #16]
  81 0040 36B9     		cbnz	r6, .L7
  82              	.L6:
  90:/usr/local/lib/ARM/CMSIS/5.4.0/CMSIS/RTOS2/RTX/Source/rtx_kernel.c ****     EvrRtxKernelError((int32_t)osError);
ARM GAS  /tmp/ccOyeoN6.s 			page 4


  83              		.loc 1 90 0 is_stmt 1
  84 0042 4FF0FF30 		mov	r0, #-1
  85 0046 FFF7FEFF 		bl	EvrRtxKernelError
  86              	.LVL3:
  91:/usr/local/lib/ARM/CMSIS/5.4.0/CMSIS/RTOS2/RTX/Source/rtx_kernel.c ****     //lint -e{904} "Return statement before end of function" [MISRA Note 1]
  92:/usr/local/lib/ARM/CMSIS/5.4.0/CMSIS/RTOS2/RTX/Source/rtx_kernel.c ****     return osError;
  87              		.loc 1 92 0
  88 004a 4FF0FF30 		mov	r0, #-1
  89 004e 70BD     		pop	{r4, r5, r6, pc}
  90              	.L7:
  93:/usr/local/lib/ARM/CMSIS/5.4.0/CMSIS/RTOS2/RTX/Source/rtx_kernel.c ****   }
  94:/usr/local/lib/ARM/CMSIS/5.4.0/CMSIS/RTOS2/RTX/Source/rtx_kernel.c **** 
  95:/usr/local/lib/ARM/CMSIS/5.4.0/CMSIS/RTOS2/RTX/Source/rtx_kernel.c **** #if (DOMAIN_NS == 1)
  96:/usr/local/lib/ARM/CMSIS/5.4.0/CMSIS/RTOS2/RTX/Source/rtx_kernel.c ****   // Initialize Secure Process Stack
  97:/usr/local/lib/ARM/CMSIS/5.4.0/CMSIS/RTOS2/RTX/Source/rtx_kernel.c ****   if (TZ_InitContextSystem_S() == 0U) {
  98:/usr/local/lib/ARM/CMSIS/5.4.0/CMSIS/RTOS2/RTX/Source/rtx_kernel.c ****     EvrRtxKernelError(osRtxErrorTZ_InitContext_S);
  99:/usr/local/lib/ARM/CMSIS/5.4.0/CMSIS/RTOS2/RTX/Source/rtx_kernel.c ****     //lint -e{904} "Return statement before end of function" [MISRA Note 1]
 100:/usr/local/lib/ARM/CMSIS/5.4.0/CMSIS/RTOS2/RTX/Source/rtx_kernel.c ****     return osError;
 101:/usr/local/lib/ARM/CMSIS/5.4.0/CMSIS/RTOS2/RTX/Source/rtx_kernel.c ****   }
 102:/usr/local/lib/ARM/CMSIS/5.4.0/CMSIS/RTOS2/RTX/Source/rtx_kernel.c **** #endif
 103:/usr/local/lib/ARM/CMSIS/5.4.0/CMSIS/RTOS2/RTX/Source/rtx_kernel.c **** 
 104:/usr/local/lib/ARM/CMSIS/5.4.0/CMSIS/RTOS2/RTX/Source/rtx_kernel.c ****   // Initialize osRtxInfo
 105:/usr/local/lib/ARM/CMSIS/5.4.0/CMSIS/RTOS2/RTX/Source/rtx_kernel.c ****   memset(&osRtxInfo.kernel, 0, sizeof(osRtxInfo) - offsetof(osRtxInfo_t, kernel));
  91              		.loc 1 105 0
  92 0050 574C     		ldr	r4, .L24
  93 0052 9C22     		movs	r2, #156
  94 0054 0021     		movs	r1, #0
  95 0056 04F10800 		add	r0, r4, #8
  96 005a FFF7FEFF 		bl	memset
  97              	.LVL4:
 106:/usr/local/lib/ARM/CMSIS/5.4.0/CMSIS/RTOS2/RTX/Source/rtx_kernel.c **** 
 107:/usr/local/lib/ARM/CMSIS/5.4.0/CMSIS/RTOS2/RTX/Source/rtx_kernel.c ****   osRtxInfo.isr_queue.data = osRtxConfig.isr_queue.data;
  98              		.loc 1 107 0
  99 005e E565     		str	r5, [r4, #92]
 108:/usr/local/lib/ARM/CMSIS/5.4.0/CMSIS/RTOS2/RTX/Source/rtx_kernel.c ****   osRtxInfo.isr_queue.max  = osRtxConfig.isr_queue.max;
 100              		.loc 1 108 0
 101 0060 A4F85460 		strh	r6, [r4, #84]	@ movhi
 109:/usr/local/lib/ARM/CMSIS/5.4.0/CMSIS/RTOS2/RTX/Source/rtx_kernel.c **** 
 110:/usr/local/lib/ARM/CMSIS/5.4.0/CMSIS/RTOS2/RTX/Source/rtx_kernel.c ****   osRtxInfo.thread.robin.timeout = osRtxConfig.robin_timeout;
 102              		.loc 1 110 0
 103 0064 534B     		ldr	r3, .L24+4
 104 0066 9A68     		ldr	r2, [r3, #8]
 105 0068 2264     		str	r2, [r4, #64]
 111:/usr/local/lib/ARM/CMSIS/5.4.0/CMSIS/RTOS2/RTX/Source/rtx_kernel.c **** 
 112:/usr/local/lib/ARM/CMSIS/5.4.0/CMSIS/RTOS2/RTX/Source/rtx_kernel.c ****   // Initialize Memory Pools (Variable Block Size)
 113:/usr/local/lib/ARM/CMSIS/5.4.0/CMSIS/RTOS2/RTX/Source/rtx_kernel.c ****   if (osRtxMemoryInit(osRtxConfig.mem.common_addr, osRtxConfig.mem.common_size) != 0U) {
 106              		.loc 1 113 0
 107 006a DC6A     		ldr	r4, [r3, #44]
 108 006c 196B     		ldr	r1, [r3, #48]
 109 006e 2046     		mov	r0, r4
 110 0070 FFF7FEFF 		bl	osRtxMemoryInit
 111              	.LVL5:
 112 0074 10B1     		cbz	r0, .L8
 114:/usr/local/lib/ARM/CMSIS/5.4.0/CMSIS/RTOS2/RTX/Source/rtx_kernel.c ****     osRtxInfo.mem.common = osRtxConfig.mem.common_addr;
 113              		.loc 1 114 0
 114 0076 4E4B     		ldr	r3, .L24
 115 0078 C3F88040 		str	r4, [r3, #128]
ARM GAS  /tmp/ccOyeoN6.s 			page 5


 116              	.L8:
 115:/usr/local/lib/ARM/CMSIS/5.4.0/CMSIS/RTOS2/RTX/Source/rtx_kernel.c ****   }
 116:/usr/local/lib/ARM/CMSIS/5.4.0/CMSIS/RTOS2/RTX/Source/rtx_kernel.c ****   if (osRtxMemoryInit(osRtxConfig.mem.stack_addr, osRtxConfig.mem.stack_size) != 0U) {
 117              		.loc 1 116 0
 118 007c 4D4B     		ldr	r3, .L24+4
 119 007e 5C69     		ldr	r4, [r3, #20]
 120 0080 9969     		ldr	r1, [r3, #24]
 121 0082 2046     		mov	r0, r4
 122 0084 FFF7FEFF 		bl	osRtxMemoryInit
 123              	.LVL6:
 124 0088 10B1     		cbz	r0, .L9
 117:/usr/local/lib/ARM/CMSIS/5.4.0/CMSIS/RTOS2/RTX/Source/rtx_kernel.c ****     osRtxInfo.mem.stack = osRtxConfig.mem.stack_addr;
 125              		.loc 1 117 0
 126 008a 494B     		ldr	r3, .L24
 127 008c 5C67     		str	r4, [r3, #116]
 128 008e 03E0     		b	.L10
 129              	.L9:
 118:/usr/local/lib/ARM/CMSIS/5.4.0/CMSIS/RTOS2/RTX/Source/rtx_kernel.c ****   } else {
 119:/usr/local/lib/ARM/CMSIS/5.4.0/CMSIS/RTOS2/RTX/Source/rtx_kernel.c ****     osRtxInfo.mem.stack = osRtxInfo.mem.common;
 130              		.loc 1 119 0
 131 0090 474B     		ldr	r3, .L24
 132 0092 D3F88020 		ldr	r2, [r3, #128]
 133 0096 5A67     		str	r2, [r3, #116]
 134              	.L10:
 120:/usr/local/lib/ARM/CMSIS/5.4.0/CMSIS/RTOS2/RTX/Source/rtx_kernel.c ****   }
 121:/usr/local/lib/ARM/CMSIS/5.4.0/CMSIS/RTOS2/RTX/Source/rtx_kernel.c ****   if (osRtxMemoryInit(osRtxConfig.mem.mp_data_addr, osRtxConfig.mem.mp_data_size) != 0U) {
 135              		.loc 1 121 0
 136 0098 464B     		ldr	r3, .L24+4
 137 009a DC69     		ldr	r4, [r3, #28]
 138 009c 196A     		ldr	r1, [r3, #32]
 139 009e 2046     		mov	r0, r4
 140 00a0 FFF7FEFF 		bl	osRtxMemoryInit
 141              	.LVL7:
 142 00a4 10B1     		cbz	r0, .L11
 122:/usr/local/lib/ARM/CMSIS/5.4.0/CMSIS/RTOS2/RTX/Source/rtx_kernel.c ****     osRtxInfo.mem.mp_data = osRtxConfig.mem.mp_data_addr;
 143              		.loc 1 122 0
 144 00a6 424B     		ldr	r3, .L24
 145 00a8 9C67     		str	r4, [r3, #120]
 146 00aa 03E0     		b	.L12
 147              	.L11:
 123:/usr/local/lib/ARM/CMSIS/5.4.0/CMSIS/RTOS2/RTX/Source/rtx_kernel.c ****   } else {
 124:/usr/local/lib/ARM/CMSIS/5.4.0/CMSIS/RTOS2/RTX/Source/rtx_kernel.c ****     osRtxInfo.mem.mp_data = osRtxInfo.mem.common;
 148              		.loc 1 124 0
 149 00ac 404B     		ldr	r3, .L24
 150 00ae D3F88020 		ldr	r2, [r3, #128]
 151 00b2 9A67     		str	r2, [r3, #120]
 152              	.L12:
 125:/usr/local/lib/ARM/CMSIS/5.4.0/CMSIS/RTOS2/RTX/Source/rtx_kernel.c ****   }
 126:/usr/local/lib/ARM/CMSIS/5.4.0/CMSIS/RTOS2/RTX/Source/rtx_kernel.c ****   if (osRtxMemoryInit(osRtxConfig.mem.mq_data_addr, osRtxConfig.mem.mq_data_size) != 0U) {
 153              		.loc 1 126 0
 154 00b4 3F4B     		ldr	r3, .L24+4
 155 00b6 5C6A     		ldr	r4, [r3, #36]
 156 00b8 996A     		ldr	r1, [r3, #40]
 157 00ba 2046     		mov	r0, r4
 158 00bc FFF7FEFF 		bl	osRtxMemoryInit
 159              	.LVL8:
 160 00c0 10B1     		cbz	r0, .L13
ARM GAS  /tmp/ccOyeoN6.s 			page 6


 127:/usr/local/lib/ARM/CMSIS/5.4.0/CMSIS/RTOS2/RTX/Source/rtx_kernel.c ****     osRtxInfo.mem.mq_data = osRtxConfig.mem.mq_data_addr;
 161              		.loc 1 127 0
 162 00c2 3B4B     		ldr	r3, .L24
 163 00c4 DC67     		str	r4, [r3, #124]
 164 00c6 03E0     		b	.L14
 165              	.L13:
 128:/usr/local/lib/ARM/CMSIS/5.4.0/CMSIS/RTOS2/RTX/Source/rtx_kernel.c ****   } else {
 129:/usr/local/lib/ARM/CMSIS/5.4.0/CMSIS/RTOS2/RTX/Source/rtx_kernel.c ****     osRtxInfo.mem.mq_data = osRtxInfo.mem.common;
 166              		.loc 1 129 0
 167 00c8 394B     		ldr	r3, .L24
 168 00ca D3F88020 		ldr	r2, [r3, #128]
 169 00ce DA67     		str	r2, [r3, #124]
 170              	.L14:
 130:/usr/local/lib/ARM/CMSIS/5.4.0/CMSIS/RTOS2/RTX/Source/rtx_kernel.c ****   }
 131:/usr/local/lib/ARM/CMSIS/5.4.0/CMSIS/RTOS2/RTX/Source/rtx_kernel.c **** 
 132:/usr/local/lib/ARM/CMSIS/5.4.0/CMSIS/RTOS2/RTX/Source/rtx_kernel.c ****   // Initialize Memory Pools (Fixed Block Size)
 133:/usr/local/lib/ARM/CMSIS/5.4.0/CMSIS/RTOS2/RTX/Source/rtx_kernel.c ****   if (osRtxConfig.mpi.stack != NULL) {
 171              		.loc 1 133 0
 172 00d0 384B     		ldr	r3, .L24+4
 173 00d2 5C6B     		ldr	r4, [r3, #52]
 174 00d4 4CB1     		cbz	r4, .L15
 134:/usr/local/lib/ARM/CMSIS/5.4.0/CMSIS/RTOS2/RTX/Source/rtx_kernel.c ****     if (osRtxMemoryPoolInit(osRtxConfig.mpi.stack,
 175              		.loc 1 134 0
 176 00d6 E368     		ldr	r3, [r4, #12]
 177 00d8 A268     		ldr	r2, [r4, #8]
 178 00da 2168     		ldr	r1, [r4]
 179 00dc 2046     		mov	r0, r4
 180 00de FFF7FEFF 		bl	osRtxMemoryPoolInit
 181              	.LVL9:
 182 00e2 10B1     		cbz	r0, .L15
 135:/usr/local/lib/ARM/CMSIS/5.4.0/CMSIS/RTOS2/RTX/Source/rtx_kernel.c ****                             osRtxConfig.mpi.stack->max_blocks,
 136:/usr/local/lib/ARM/CMSIS/5.4.0/CMSIS/RTOS2/RTX/Source/rtx_kernel.c ****                             osRtxConfig.mpi.stack->block_size,
 137:/usr/local/lib/ARM/CMSIS/5.4.0/CMSIS/RTOS2/RTX/Source/rtx_kernel.c ****                             osRtxConfig.mpi.stack->block_base) != 0U) {
 138:/usr/local/lib/ARM/CMSIS/5.4.0/CMSIS/RTOS2/RTX/Source/rtx_kernel.c ****       osRtxInfo.mpi.stack = osRtxConfig.mpi.stack;
 183              		.loc 1 138 0
 184 00e4 324B     		ldr	r3, .L24
 185 00e6 C3F88440 		str	r4, [r3, #132]
 186              	.L15:
 139:/usr/local/lib/ARM/CMSIS/5.4.0/CMSIS/RTOS2/RTX/Source/rtx_kernel.c ****     }
 140:/usr/local/lib/ARM/CMSIS/5.4.0/CMSIS/RTOS2/RTX/Source/rtx_kernel.c ****   }
 141:/usr/local/lib/ARM/CMSIS/5.4.0/CMSIS/RTOS2/RTX/Source/rtx_kernel.c ****   if (osRtxConfig.mpi.thread != NULL) {
 187              		.loc 1 141 0
 188 00ea 324B     		ldr	r3, .L24+4
 189 00ec 9C6B     		ldr	r4, [r3, #56]
 190 00ee 4CB1     		cbz	r4, .L16
 142:/usr/local/lib/ARM/CMSIS/5.4.0/CMSIS/RTOS2/RTX/Source/rtx_kernel.c ****     if (osRtxMemoryPoolInit(osRtxConfig.mpi.thread,
 191              		.loc 1 142 0
 192 00f0 E368     		ldr	r3, [r4, #12]
 193 00f2 A268     		ldr	r2, [r4, #8]
 194 00f4 2168     		ldr	r1, [r4]
 195 00f6 2046     		mov	r0, r4
 196 00f8 FFF7FEFF 		bl	osRtxMemoryPoolInit
 197              	.LVL10:
 198 00fc 10B1     		cbz	r0, .L16
 143:/usr/local/lib/ARM/CMSIS/5.4.0/CMSIS/RTOS2/RTX/Source/rtx_kernel.c ****                             osRtxConfig.mpi.thread->max_blocks,
 144:/usr/local/lib/ARM/CMSIS/5.4.0/CMSIS/RTOS2/RTX/Source/rtx_kernel.c ****                             osRtxConfig.mpi.thread->block_size,
 145:/usr/local/lib/ARM/CMSIS/5.4.0/CMSIS/RTOS2/RTX/Source/rtx_kernel.c ****                             osRtxConfig.mpi.thread->block_base) != 0U) {
ARM GAS  /tmp/ccOyeoN6.s 			page 7


 146:/usr/local/lib/ARM/CMSIS/5.4.0/CMSIS/RTOS2/RTX/Source/rtx_kernel.c ****       osRtxInfo.mpi.thread = osRtxConfig.mpi.thread;
 199              		.loc 1 146 0
 200 00fe 2C4B     		ldr	r3, .L24
 201 0100 C3F88840 		str	r4, [r3, #136]
 202              	.L16:
 147:/usr/local/lib/ARM/CMSIS/5.4.0/CMSIS/RTOS2/RTX/Source/rtx_kernel.c ****     }
 148:/usr/local/lib/ARM/CMSIS/5.4.0/CMSIS/RTOS2/RTX/Source/rtx_kernel.c ****   }
 149:/usr/local/lib/ARM/CMSIS/5.4.0/CMSIS/RTOS2/RTX/Source/rtx_kernel.c ****   if (osRtxConfig.mpi.timer != NULL) {
 203              		.loc 1 149 0
 204 0104 2B4B     		ldr	r3, .L24+4
 205 0106 DC6B     		ldr	r4, [r3, #60]
 206 0108 4CB1     		cbz	r4, .L17
 150:/usr/local/lib/ARM/CMSIS/5.4.0/CMSIS/RTOS2/RTX/Source/rtx_kernel.c ****     if (osRtxMemoryPoolInit(osRtxConfig.mpi.timer,
 207              		.loc 1 150 0
 208 010a E368     		ldr	r3, [r4, #12]
 209 010c A268     		ldr	r2, [r4, #8]
 210 010e 2168     		ldr	r1, [r4]
 211 0110 2046     		mov	r0, r4
 212 0112 FFF7FEFF 		bl	osRtxMemoryPoolInit
 213              	.LVL11:
 214 0116 10B1     		cbz	r0, .L17
 151:/usr/local/lib/ARM/CMSIS/5.4.0/CMSIS/RTOS2/RTX/Source/rtx_kernel.c ****                             osRtxConfig.mpi.timer->max_blocks,
 152:/usr/local/lib/ARM/CMSIS/5.4.0/CMSIS/RTOS2/RTX/Source/rtx_kernel.c ****                             osRtxConfig.mpi.timer->block_size,
 153:/usr/local/lib/ARM/CMSIS/5.4.0/CMSIS/RTOS2/RTX/Source/rtx_kernel.c ****                             osRtxConfig.mpi.timer->block_base) != 0U) {
 154:/usr/local/lib/ARM/CMSIS/5.4.0/CMSIS/RTOS2/RTX/Source/rtx_kernel.c ****       osRtxInfo.mpi.timer = osRtxConfig.mpi.timer;
 215              		.loc 1 154 0
 216 0118 254B     		ldr	r3, .L24
 217 011a C3F88C40 		str	r4, [r3, #140]
 218              	.L17:
 155:/usr/local/lib/ARM/CMSIS/5.4.0/CMSIS/RTOS2/RTX/Source/rtx_kernel.c ****     }
 156:/usr/local/lib/ARM/CMSIS/5.4.0/CMSIS/RTOS2/RTX/Source/rtx_kernel.c ****   }
 157:/usr/local/lib/ARM/CMSIS/5.4.0/CMSIS/RTOS2/RTX/Source/rtx_kernel.c ****   if (osRtxConfig.mpi.event_flags != NULL) {
 219              		.loc 1 157 0
 220 011e 254B     		ldr	r3, .L24+4
 221 0120 1C6C     		ldr	r4, [r3, #64]
 222 0122 4CB1     		cbz	r4, .L18
 158:/usr/local/lib/ARM/CMSIS/5.4.0/CMSIS/RTOS2/RTX/Source/rtx_kernel.c ****     if (osRtxMemoryPoolInit(osRtxConfig.mpi.event_flags,
 223              		.loc 1 158 0
 224 0124 E368     		ldr	r3, [r4, #12]
 225 0126 A268     		ldr	r2, [r4, #8]
 226 0128 2168     		ldr	r1, [r4]
 227 012a 2046     		mov	r0, r4
 228 012c FFF7FEFF 		bl	osRtxMemoryPoolInit
 229              	.LVL12:
 230 0130 10B1     		cbz	r0, .L18
 159:/usr/local/lib/ARM/CMSIS/5.4.0/CMSIS/RTOS2/RTX/Source/rtx_kernel.c ****                             osRtxConfig.mpi.event_flags->max_blocks,
 160:/usr/local/lib/ARM/CMSIS/5.4.0/CMSIS/RTOS2/RTX/Source/rtx_kernel.c ****                             osRtxConfig.mpi.event_flags->block_size,
 161:/usr/local/lib/ARM/CMSIS/5.4.0/CMSIS/RTOS2/RTX/Source/rtx_kernel.c ****                             osRtxConfig.mpi.event_flags->block_base) != 0U) {
 162:/usr/local/lib/ARM/CMSIS/5.4.0/CMSIS/RTOS2/RTX/Source/rtx_kernel.c ****       osRtxInfo.mpi.event_flags = osRtxConfig.mpi.event_flags;
 231              		.loc 1 162 0
 232 0132 1F4B     		ldr	r3, .L24
 233 0134 C3F89040 		str	r4, [r3, #144]
 234              	.L18:
 163:/usr/local/lib/ARM/CMSIS/5.4.0/CMSIS/RTOS2/RTX/Source/rtx_kernel.c ****     }
 164:/usr/local/lib/ARM/CMSIS/5.4.0/CMSIS/RTOS2/RTX/Source/rtx_kernel.c ****   }
 165:/usr/local/lib/ARM/CMSIS/5.4.0/CMSIS/RTOS2/RTX/Source/rtx_kernel.c ****   if (osRtxConfig.mpi.mutex != NULL) {
 235              		.loc 1 165 0
ARM GAS  /tmp/ccOyeoN6.s 			page 8


 236 0138 1E4B     		ldr	r3, .L24+4
 237 013a 5C6C     		ldr	r4, [r3, #68]
 238 013c 4CB1     		cbz	r4, .L19
 166:/usr/local/lib/ARM/CMSIS/5.4.0/CMSIS/RTOS2/RTX/Source/rtx_kernel.c ****     if (osRtxMemoryPoolInit(osRtxConfig.mpi.mutex,
 239              		.loc 1 166 0
 240 013e E368     		ldr	r3, [r4, #12]
 241 0140 A268     		ldr	r2, [r4, #8]
 242 0142 2168     		ldr	r1, [r4]
 243 0144 2046     		mov	r0, r4
 244 0146 FFF7FEFF 		bl	osRtxMemoryPoolInit
 245              	.LVL13:
 246 014a 10B1     		cbz	r0, .L19
 167:/usr/local/lib/ARM/CMSIS/5.4.0/CMSIS/RTOS2/RTX/Source/rtx_kernel.c ****                             osRtxConfig.mpi.mutex->max_blocks,
 168:/usr/local/lib/ARM/CMSIS/5.4.0/CMSIS/RTOS2/RTX/Source/rtx_kernel.c ****                             osRtxConfig.mpi.mutex->block_size,
 169:/usr/local/lib/ARM/CMSIS/5.4.0/CMSIS/RTOS2/RTX/Source/rtx_kernel.c ****                             osRtxConfig.mpi.mutex->block_base) != 0U) {
 170:/usr/local/lib/ARM/CMSIS/5.4.0/CMSIS/RTOS2/RTX/Source/rtx_kernel.c ****       osRtxInfo.mpi.mutex = osRtxConfig.mpi.mutex;
 247              		.loc 1 170 0
 248 014c 184B     		ldr	r3, .L24
 249 014e C3F89440 		str	r4, [r3, #148]
 250              	.L19:
 171:/usr/local/lib/ARM/CMSIS/5.4.0/CMSIS/RTOS2/RTX/Source/rtx_kernel.c ****     }
 172:/usr/local/lib/ARM/CMSIS/5.4.0/CMSIS/RTOS2/RTX/Source/rtx_kernel.c ****   }
 173:/usr/local/lib/ARM/CMSIS/5.4.0/CMSIS/RTOS2/RTX/Source/rtx_kernel.c ****   if (osRtxConfig.mpi.semaphore != NULL) {
 251              		.loc 1 173 0
 252 0152 184B     		ldr	r3, .L24+4
 253 0154 9C6C     		ldr	r4, [r3, #72]
 254 0156 4CB1     		cbz	r4, .L20
 174:/usr/local/lib/ARM/CMSIS/5.4.0/CMSIS/RTOS2/RTX/Source/rtx_kernel.c ****     if (osRtxMemoryPoolInit(osRtxConfig.mpi.semaphore,
 255              		.loc 1 174 0
 256 0158 E368     		ldr	r3, [r4, #12]
 257 015a A268     		ldr	r2, [r4, #8]
 258 015c 2168     		ldr	r1, [r4]
 259 015e 2046     		mov	r0, r4
 260 0160 FFF7FEFF 		bl	osRtxMemoryPoolInit
 261              	.LVL14:
 262 0164 10B1     		cbz	r0, .L20
 175:/usr/local/lib/ARM/CMSIS/5.4.0/CMSIS/RTOS2/RTX/Source/rtx_kernel.c ****                             osRtxConfig.mpi.semaphore->max_blocks,
 176:/usr/local/lib/ARM/CMSIS/5.4.0/CMSIS/RTOS2/RTX/Source/rtx_kernel.c ****                             osRtxConfig.mpi.semaphore->block_size,
 177:/usr/local/lib/ARM/CMSIS/5.4.0/CMSIS/RTOS2/RTX/Source/rtx_kernel.c ****                             osRtxConfig.mpi.semaphore->block_base) != 0U) {
 178:/usr/local/lib/ARM/CMSIS/5.4.0/CMSIS/RTOS2/RTX/Source/rtx_kernel.c ****       osRtxInfo.mpi.semaphore = osRtxConfig.mpi.semaphore;
 263              		.loc 1 178 0
 264 0166 124B     		ldr	r3, .L24
 265 0168 C3F89840 		str	r4, [r3, #152]
 266              	.L20:
 179:/usr/local/lib/ARM/CMSIS/5.4.0/CMSIS/RTOS2/RTX/Source/rtx_kernel.c ****     }
 180:/usr/local/lib/ARM/CMSIS/5.4.0/CMSIS/RTOS2/RTX/Source/rtx_kernel.c ****   }
 181:/usr/local/lib/ARM/CMSIS/5.4.0/CMSIS/RTOS2/RTX/Source/rtx_kernel.c ****   if (osRtxConfig.mpi.memory_pool != NULL) {
 267              		.loc 1 181 0
 268 016c 114B     		ldr	r3, .L24+4
 269 016e DC6C     		ldr	r4, [r3, #76]
 270 0170 4CB1     		cbz	r4, .L21
 182:/usr/local/lib/ARM/CMSIS/5.4.0/CMSIS/RTOS2/RTX/Source/rtx_kernel.c ****     if (osRtxMemoryPoolInit(osRtxConfig.mpi.memory_pool,
 271              		.loc 1 182 0
 272 0172 E368     		ldr	r3, [r4, #12]
 273 0174 A268     		ldr	r2, [r4, #8]
 274 0176 2168     		ldr	r1, [r4]
 275 0178 2046     		mov	r0, r4
ARM GAS  /tmp/ccOyeoN6.s 			page 9


 276 017a FFF7FEFF 		bl	osRtxMemoryPoolInit
 277              	.LVL15:
 278 017e 10B1     		cbz	r0, .L21
 183:/usr/local/lib/ARM/CMSIS/5.4.0/CMSIS/RTOS2/RTX/Source/rtx_kernel.c ****                             osRtxConfig.mpi.memory_pool->max_blocks,
 184:/usr/local/lib/ARM/CMSIS/5.4.0/CMSIS/RTOS2/RTX/Source/rtx_kernel.c ****                             osRtxConfig.mpi.memory_pool->block_size,
 185:/usr/local/lib/ARM/CMSIS/5.4.0/CMSIS/RTOS2/RTX/Source/rtx_kernel.c ****                             osRtxConfig.mpi.memory_pool->block_base) != 0U) {
 186:/usr/local/lib/ARM/CMSIS/5.4.0/CMSIS/RTOS2/RTX/Source/rtx_kernel.c ****       osRtxInfo.mpi.memory_pool = osRtxConfig.mpi.memory_pool;
 279              		.loc 1 186 0
 280 0180 0B4B     		ldr	r3, .L24
 281 0182 C3F89C40 		str	r4, [r3, #156]
 282              	.L21:
 187:/usr/local/lib/ARM/CMSIS/5.4.0/CMSIS/RTOS2/RTX/Source/rtx_kernel.c ****     }
 188:/usr/local/lib/ARM/CMSIS/5.4.0/CMSIS/RTOS2/RTX/Source/rtx_kernel.c ****   }
 189:/usr/local/lib/ARM/CMSIS/5.4.0/CMSIS/RTOS2/RTX/Source/rtx_kernel.c ****   if (osRtxConfig.mpi.message_queue != NULL) {
 283              		.loc 1 189 0
 284 0186 0B4B     		ldr	r3, .L24+4
 285 0188 1C6D     		ldr	r4, [r3, #80]
 286 018a 4CB1     		cbz	r4, .L22
 190:/usr/local/lib/ARM/CMSIS/5.4.0/CMSIS/RTOS2/RTX/Source/rtx_kernel.c ****     if (osRtxMemoryPoolInit(osRtxConfig.mpi.message_queue,
 287              		.loc 1 190 0
 288 018c E368     		ldr	r3, [r4, #12]
 289 018e A268     		ldr	r2, [r4, #8]
 290 0190 2168     		ldr	r1, [r4]
 291 0192 2046     		mov	r0, r4
 292 0194 FFF7FEFF 		bl	osRtxMemoryPoolInit
 293              	.LVL16:
 294 0198 10B1     		cbz	r0, .L22
 191:/usr/local/lib/ARM/CMSIS/5.4.0/CMSIS/RTOS2/RTX/Source/rtx_kernel.c ****                             osRtxConfig.mpi.message_queue->max_blocks,
 192:/usr/local/lib/ARM/CMSIS/5.4.0/CMSIS/RTOS2/RTX/Source/rtx_kernel.c ****                             osRtxConfig.mpi.message_queue->block_size,
 193:/usr/local/lib/ARM/CMSIS/5.4.0/CMSIS/RTOS2/RTX/Source/rtx_kernel.c ****                             osRtxConfig.mpi.message_queue->block_base) != 0U) {
 194:/usr/local/lib/ARM/CMSIS/5.4.0/CMSIS/RTOS2/RTX/Source/rtx_kernel.c ****       osRtxInfo.mpi.message_queue = osRtxConfig.mpi.message_queue;
 295              		.loc 1 194 0
 296 019a 054B     		ldr	r3, .L24
 297 019c C3F8A040 		str	r4, [r3, #160]
 298              	.L22:
 195:/usr/local/lib/ARM/CMSIS/5.4.0/CMSIS/RTOS2/RTX/Source/rtx_kernel.c ****     }
 196:/usr/local/lib/ARM/CMSIS/5.4.0/CMSIS/RTOS2/RTX/Source/rtx_kernel.c ****   }
 197:/usr/local/lib/ARM/CMSIS/5.4.0/CMSIS/RTOS2/RTX/Source/rtx_kernel.c **** 
 198:/usr/local/lib/ARM/CMSIS/5.4.0/CMSIS/RTOS2/RTX/Source/rtx_kernel.c ****   osRtxInfo.kernel.state = osRtxKernelReady;
 299              		.loc 1 198 0
 300 01a0 0122     		movs	r2, #1
 301 01a2 034B     		ldr	r3, .L24
 302 01a4 1A72     		strb	r2, [r3, #8]
 199:/usr/local/lib/ARM/CMSIS/5.4.0/CMSIS/RTOS2/RTX/Source/rtx_kernel.c **** 
 200:/usr/local/lib/ARM/CMSIS/5.4.0/CMSIS/RTOS2/RTX/Source/rtx_kernel.c ****   EvrRtxKernelInitialized();
 303              		.loc 1 200 0
 304 01a6 FFF7FEFF 		bl	EvrRtxKernelInitialized
 305              	.LVL17:
 201:/usr/local/lib/ARM/CMSIS/5.4.0/CMSIS/RTOS2/RTX/Source/rtx_kernel.c **** 
 202:/usr/local/lib/ARM/CMSIS/5.4.0/CMSIS/RTOS2/RTX/Source/rtx_kernel.c ****   return osOK;
 306              		.loc 1 202 0
 307 01aa 0020     		movs	r0, #0
 203:/usr/local/lib/ARM/CMSIS/5.4.0/CMSIS/RTOS2/RTX/Source/rtx_kernel.c **** }
 308              		.loc 1 203 0
 309 01ac 70BD     		pop	{r4, r5, r6, pc}
 310              	.L25:
 311 01ae 00BF     		.align	2
ARM GAS  /tmp/ccOyeoN6.s 			page 10


 312              	.L24:
 313 01b0 00000000 		.word	.LANCHOR0
 314 01b4 00000000 		.word	osRtxConfig
 315              		.cfi_endproc
 316              	.LFE176:
 318              		.section	.text.svcRtxKernelGetInfo,"ax",%progbits
 319              		.align	2
 320              		.thumb
 321              		.thumb_func
 323              	svcRtxKernelGetInfo:
 324              	.LFB177:
 204:/usr/local/lib/ARM/CMSIS/5.4.0/CMSIS/RTOS2/RTX/Source/rtx_kernel.c **** 
 205:/usr/local/lib/ARM/CMSIS/5.4.0/CMSIS/RTOS2/RTX/Source/rtx_kernel.c **** ///  Get RTOS Kernel Information.
 206:/usr/local/lib/ARM/CMSIS/5.4.0/CMSIS/RTOS2/RTX/Source/rtx_kernel.c **** /// \note API identical to osKernelGetInfo
 207:/usr/local/lib/ARM/CMSIS/5.4.0/CMSIS/RTOS2/RTX/Source/rtx_kernel.c **** static osStatus_t svcRtxKernelGetInfo (osVersion_t *version, char *id_buf, uint32_t id_size) {
 325              		.loc 1 207 0
 326              		.cfi_startproc
 327              		@ args = 0, pretend = 0, frame = 0
 328              		@ frame_needed = 0, uses_anonymous_args = 0
 329              	.LVL18:
 330 0000 38B5     		push	{r3, r4, r5, lr}
 331              	.LCFI1:
 332              		.cfi_def_cfa_offset 16
 333              		.cfi_offset 3, -16
 334              		.cfi_offset 4, -12
 335              		.cfi_offset 5, -8
 336              		.cfi_offset 14, -4
 337 0002 0D46     		mov	r5, r1
 208:/usr/local/lib/ARM/CMSIS/5.4.0/CMSIS/RTOS2/RTX/Source/rtx_kernel.c ****   uint32_t size;
 209:/usr/local/lib/ARM/CMSIS/5.4.0/CMSIS/RTOS2/RTX/Source/rtx_kernel.c **** 
 210:/usr/local/lib/ARM/CMSIS/5.4.0/CMSIS/RTOS2/RTX/Source/rtx_kernel.c ****   if (version != NULL) {
 338              		.loc 1 210 0
 339 0004 0446     		mov	r4, r0
 340 0006 18B1     		cbz	r0, .L27
 211:/usr/local/lib/ARM/CMSIS/5.4.0/CMSIS/RTOS2/RTX/Source/rtx_kernel.c ****     version->api    = osRtxVersionAPI;
 341              		.loc 1 211 0
 342 0008 094B     		ldr	r3, .L31
 343 000a 0360     		str	r3, [r0]
 212:/usr/local/lib/ARM/CMSIS/5.4.0/CMSIS/RTOS2/RTX/Source/rtx_kernel.c ****     version->kernel = osRtxVersionKernel;
 344              		.loc 1 212 0
 345 000c 094B     		ldr	r3, .L31+4
 346 000e 4360     		str	r3, [r0, #4]
 347              	.L27:
 213:/usr/local/lib/ARM/CMSIS/5.4.0/CMSIS/RTOS2/RTX/Source/rtx_kernel.c ****   }
 214:/usr/local/lib/ARM/CMSIS/5.4.0/CMSIS/RTOS2/RTX/Source/rtx_kernel.c **** 
 215:/usr/local/lib/ARM/CMSIS/5.4.0/CMSIS/RTOS2/RTX/Source/rtx_kernel.c ****   if ((id_buf != NULL) && (id_size != 0U)) {
 348              		.loc 1 215 0
 349 0010 3DB1     		cbz	r5, .L28
 350              		.loc 1 215 0 is_stmt 0 discriminator 1
 351 0012 32B1     		cbz	r2, .L28
 216:/usr/local/lib/ARM/CMSIS/5.4.0/CMSIS/RTOS2/RTX/Source/rtx_kernel.c ****     if (id_size > sizeof(osRtxKernelId)) {
 352              		.loc 1 216 0 is_stmt 1
 353 0014 0B2A     		cmp	r2, #11
 354 0016 00D9     		bls	.L29
 217:/usr/local/lib/ARM/CMSIS/5.4.0/CMSIS/RTOS2/RTX/Source/rtx_kernel.c ****       size = sizeof(osRtxKernelId);
 355              		.loc 1 217 0
 356 0018 0B22     		movs	r2, #11
ARM GAS  /tmp/ccOyeoN6.s 			page 11


 357              	.LVL19:
 358              	.L29:
 218:/usr/local/lib/ARM/CMSIS/5.4.0/CMSIS/RTOS2/RTX/Source/rtx_kernel.c ****     } else {
 219:/usr/local/lib/ARM/CMSIS/5.4.0/CMSIS/RTOS2/RTX/Source/rtx_kernel.c ****       size = id_size;
 220:/usr/local/lib/ARM/CMSIS/5.4.0/CMSIS/RTOS2/RTX/Source/rtx_kernel.c ****     }
 221:/usr/local/lib/ARM/CMSIS/5.4.0/CMSIS/RTOS2/RTX/Source/rtx_kernel.c ****     memcpy(id_buf, osRtxKernelId, size);
 359              		.loc 1 221 0
 360 001a 0749     		ldr	r1, .L31+8
 361              	.LVL20:
 362 001c 2846     		mov	r0, r5
 363              	.LVL21:
 364 001e FFF7FEFF 		bl	memcpy
 365              	.LVL22:
 366              	.L28:
 222:/usr/local/lib/ARM/CMSIS/5.4.0/CMSIS/RTOS2/RTX/Source/rtx_kernel.c ****   }
 223:/usr/local/lib/ARM/CMSIS/5.4.0/CMSIS/RTOS2/RTX/Source/rtx_kernel.c **** 
 224:/usr/local/lib/ARM/CMSIS/5.4.0/CMSIS/RTOS2/RTX/Source/rtx_kernel.c ****   EvrRtxKernelInfoRetrieved(version, id_buf);
 367              		.loc 1 224 0
 368 0022 2946     		mov	r1, r5
 369 0024 2046     		mov	r0, r4
 370 0026 FFF7FEFF 		bl	EvrRtxKernelInfoRetrieved
 371              	.LVL23:
 225:/usr/local/lib/ARM/CMSIS/5.4.0/CMSIS/RTOS2/RTX/Source/rtx_kernel.c **** 
 226:/usr/local/lib/ARM/CMSIS/5.4.0/CMSIS/RTOS2/RTX/Source/rtx_kernel.c ****   return osOK;
 227:/usr/local/lib/ARM/CMSIS/5.4.0/CMSIS/RTOS2/RTX/Source/rtx_kernel.c **** }
 372              		.loc 1 227 0
 373 002a 0020     		movs	r0, #0
 374 002c 38BD     		pop	{r3, r4, r5, pc}
 375              	.LVL24:
 376              	.L32:
 377 002e 00BF     		.align	2
 378              	.L31:
 379 0030 13543101 		.word	20010003
 380 0034 C08CFB02 		.word	50040000
 381 0038 00000000 		.word	.LC0
 382              		.cfi_endproc
 383              	.LFE177:
 385              		.section	.text.svcRtxKernelGetState,"ax",%progbits
 386              		.align	2
 387              		.thumb
 388              		.thumb_func
 390              	svcRtxKernelGetState:
 391              	.LFB178:
 228:/usr/local/lib/ARM/CMSIS/5.4.0/CMSIS/RTOS2/RTX/Source/rtx_kernel.c **** 
 229:/usr/local/lib/ARM/CMSIS/5.4.0/CMSIS/RTOS2/RTX/Source/rtx_kernel.c **** /// Get the current RTOS Kernel state.
 230:/usr/local/lib/ARM/CMSIS/5.4.0/CMSIS/RTOS2/RTX/Source/rtx_kernel.c **** /// \note API identical to osKernelGetState
 231:/usr/local/lib/ARM/CMSIS/5.4.0/CMSIS/RTOS2/RTX/Source/rtx_kernel.c **** static osKernelState_t svcRtxKernelGetState (void) {
 392              		.loc 1 231 0
 393              		.cfi_startproc
 394              		@ args = 0, pretend = 0, frame = 0
 395              		@ frame_needed = 0, uses_anonymous_args = 0
 396 0000 10B5     		push	{r4, lr}
 397              	.LCFI2:
 398              		.cfi_def_cfa_offset 8
 399              		.cfi_offset 4, -8
 400              		.cfi_offset 14, -4
 401              	.LBB230:
ARM GAS  /tmp/ccOyeoN6.s 			page 12


 402              	.LBB231:
 403              		.file 2 "/usr/local/lib/ARM/CMSIS/5.4.0/CMSIS/RTOS2/RTX/Source/rtx_lib.h"
   1:/usr/local/lib/ARM/CMSIS/5.4.0/CMSIS/RTOS2/RTX/Source/rtx_lib.h **** /*
   2:/usr/local/lib/ARM/CMSIS/5.4.0/CMSIS/RTOS2/RTX/Source/rtx_lib.h ****  * Copyright (c) 2013-2018 Arm Limited. All rights reserved.
   3:/usr/local/lib/ARM/CMSIS/5.4.0/CMSIS/RTOS2/RTX/Source/rtx_lib.h ****  *
   4:/usr/local/lib/ARM/CMSIS/5.4.0/CMSIS/RTOS2/RTX/Source/rtx_lib.h ****  * SPDX-License-Identifier: Apache-2.0
   5:/usr/local/lib/ARM/CMSIS/5.4.0/CMSIS/RTOS2/RTX/Source/rtx_lib.h ****  *
   6:/usr/local/lib/ARM/CMSIS/5.4.0/CMSIS/RTOS2/RTX/Source/rtx_lib.h ****  * Licensed under the Apache License, Version 2.0 (the License); you may
   7:/usr/local/lib/ARM/CMSIS/5.4.0/CMSIS/RTOS2/RTX/Source/rtx_lib.h ****  * not use this file except in compliance with the License.
   8:/usr/local/lib/ARM/CMSIS/5.4.0/CMSIS/RTOS2/RTX/Source/rtx_lib.h ****  * You may obtain a copy of the License at
   9:/usr/local/lib/ARM/CMSIS/5.4.0/CMSIS/RTOS2/RTX/Source/rtx_lib.h ****  *
  10:/usr/local/lib/ARM/CMSIS/5.4.0/CMSIS/RTOS2/RTX/Source/rtx_lib.h ****  * www.apache.org/licenses/LICENSE-2.0
  11:/usr/local/lib/ARM/CMSIS/5.4.0/CMSIS/RTOS2/RTX/Source/rtx_lib.h ****  *
  12:/usr/local/lib/ARM/CMSIS/5.4.0/CMSIS/RTOS2/RTX/Source/rtx_lib.h ****  * Unless required by applicable law or agreed to in writing, software
  13:/usr/local/lib/ARM/CMSIS/5.4.0/CMSIS/RTOS2/RTX/Source/rtx_lib.h ****  * distributed under the License is distributed on an AS IS BASIS, WITHOUT
  14:/usr/local/lib/ARM/CMSIS/5.4.0/CMSIS/RTOS2/RTX/Source/rtx_lib.h ****  * WARRANTIES OR CONDITIONS OF ANY KIND, either express or implied.
  15:/usr/local/lib/ARM/CMSIS/5.4.0/CMSIS/RTOS2/RTX/Source/rtx_lib.h ****  * See the License for the specific language governing permissions and
  16:/usr/local/lib/ARM/CMSIS/5.4.0/CMSIS/RTOS2/RTX/Source/rtx_lib.h ****  * limitations under the License.
  17:/usr/local/lib/ARM/CMSIS/5.4.0/CMSIS/RTOS2/RTX/Source/rtx_lib.h ****  *
  18:/usr/local/lib/ARM/CMSIS/5.4.0/CMSIS/RTOS2/RTX/Source/rtx_lib.h ****  * -----------------------------------------------------------------------------
  19:/usr/local/lib/ARM/CMSIS/5.4.0/CMSIS/RTOS2/RTX/Source/rtx_lib.h ****  *
  20:/usr/local/lib/ARM/CMSIS/5.4.0/CMSIS/RTOS2/RTX/Source/rtx_lib.h ****  * Project:     CMSIS-RTOS RTX
  21:/usr/local/lib/ARM/CMSIS/5.4.0/CMSIS/RTOS2/RTX/Source/rtx_lib.h ****  * Title:       RTX Library definitions
  22:/usr/local/lib/ARM/CMSIS/5.4.0/CMSIS/RTOS2/RTX/Source/rtx_lib.h ****  *
  23:/usr/local/lib/ARM/CMSIS/5.4.0/CMSIS/RTOS2/RTX/Source/rtx_lib.h ****  * -----------------------------------------------------------------------------
  24:/usr/local/lib/ARM/CMSIS/5.4.0/CMSIS/RTOS2/RTX/Source/rtx_lib.h ****  */
  25:/usr/local/lib/ARM/CMSIS/5.4.0/CMSIS/RTOS2/RTX/Source/rtx_lib.h **** 
  26:/usr/local/lib/ARM/CMSIS/5.4.0/CMSIS/RTOS2/RTX/Source/rtx_lib.h **** #ifndef RTX_LIB_H_
  27:/usr/local/lib/ARM/CMSIS/5.4.0/CMSIS/RTOS2/RTX/Source/rtx_lib.h **** #define RTX_LIB_H_
  28:/usr/local/lib/ARM/CMSIS/5.4.0/CMSIS/RTOS2/RTX/Source/rtx_lib.h **** 
  29:/usr/local/lib/ARM/CMSIS/5.4.0/CMSIS/RTOS2/RTX/Source/rtx_lib.h **** #include <string.h>
  30:/usr/local/lib/ARM/CMSIS/5.4.0/CMSIS/RTOS2/RTX/Source/rtx_lib.h **** #include "rtx_core_c.h"                 // Cortex core definitions
  31:/usr/local/lib/ARM/CMSIS/5.4.0/CMSIS/RTOS2/RTX/Source/rtx_lib.h **** #if ((defined(__ARM_ARCH_8M_BASE__) && (__ARM_ARCH_8M_BASE__ != 0)) || \
  32:/usr/local/lib/ARM/CMSIS/5.4.0/CMSIS/RTOS2/RTX/Source/rtx_lib.h ****      (defined(__ARM_ARCH_8M_MAIN__) && (__ARM_ARCH_8M_MAIN__ != 0)))
  33:/usr/local/lib/ARM/CMSIS/5.4.0/CMSIS/RTOS2/RTX/Source/rtx_lib.h **** #include "tz_context.h"                 // TrustZone Context API
  34:/usr/local/lib/ARM/CMSIS/5.4.0/CMSIS/RTOS2/RTX/Source/rtx_lib.h **** #endif
  35:/usr/local/lib/ARM/CMSIS/5.4.0/CMSIS/RTOS2/RTX/Source/rtx_lib.h **** #include "os_tick.h"                    // CMSIS OS Tick API
  36:/usr/local/lib/ARM/CMSIS/5.4.0/CMSIS/RTOS2/RTX/Source/rtx_lib.h **** #include "cmsis_os2.h"                  // CMSIS RTOS API
  37:/usr/local/lib/ARM/CMSIS/5.4.0/CMSIS/RTOS2/RTX/Source/rtx_lib.h **** #include "RTX_Config.h"                 // RTX Configuration
  38:/usr/local/lib/ARM/CMSIS/5.4.0/CMSIS/RTOS2/RTX/Source/rtx_lib.h **** #include "rtx_os.h"                     // RTX OS definitions
  39:/usr/local/lib/ARM/CMSIS/5.4.0/CMSIS/RTOS2/RTX/Source/rtx_lib.h **** #include "rtx_evr.h"                    // RTX Event Recorder definitions
  40:/usr/local/lib/ARM/CMSIS/5.4.0/CMSIS/RTOS2/RTX/Source/rtx_lib.h **** 
  41:/usr/local/lib/ARM/CMSIS/5.4.0/CMSIS/RTOS2/RTX/Source/rtx_lib.h **** 
  42:/usr/local/lib/ARM/CMSIS/5.4.0/CMSIS/RTOS2/RTX/Source/rtx_lib.h **** //  ==== Library defines ====
  43:/usr/local/lib/ARM/CMSIS/5.4.0/CMSIS/RTOS2/RTX/Source/rtx_lib.h **** 
  44:/usr/local/lib/ARM/CMSIS/5.4.0/CMSIS/RTOS2/RTX/Source/rtx_lib.h **** #define os_thread_t         osRtxThread_t
  45:/usr/local/lib/ARM/CMSIS/5.4.0/CMSIS/RTOS2/RTX/Source/rtx_lib.h **** #define os_timer_t          osRtxTimer_t
  46:/usr/local/lib/ARM/CMSIS/5.4.0/CMSIS/RTOS2/RTX/Source/rtx_lib.h **** #define os_timer_finfo_t    osRtxTimerFinfo_t
  47:/usr/local/lib/ARM/CMSIS/5.4.0/CMSIS/RTOS2/RTX/Source/rtx_lib.h **** #define os_event_flags_t    osRtxEventFlags_t
  48:/usr/local/lib/ARM/CMSIS/5.4.0/CMSIS/RTOS2/RTX/Source/rtx_lib.h **** #define os_mutex_t          osRtxMutex_t
  49:/usr/local/lib/ARM/CMSIS/5.4.0/CMSIS/RTOS2/RTX/Source/rtx_lib.h **** #define os_semaphore_t      osRtxSemaphore_t
  50:/usr/local/lib/ARM/CMSIS/5.4.0/CMSIS/RTOS2/RTX/Source/rtx_lib.h **** #define os_mp_info_t        osRtxMpInfo_t
  51:/usr/local/lib/ARM/CMSIS/5.4.0/CMSIS/RTOS2/RTX/Source/rtx_lib.h **** #define os_memory_pool_t    osRtxMemoryPool_t
  52:/usr/local/lib/ARM/CMSIS/5.4.0/CMSIS/RTOS2/RTX/Source/rtx_lib.h **** #define os_message_t        osRtxMessage_t
  53:/usr/local/lib/ARM/CMSIS/5.4.0/CMSIS/RTOS2/RTX/Source/rtx_lib.h **** #define os_message_queue_t  osRtxMessageQueue_t
  54:/usr/local/lib/ARM/CMSIS/5.4.0/CMSIS/RTOS2/RTX/Source/rtx_lib.h **** #define os_object_t         osRtxObject_t
  55:/usr/local/lib/ARM/CMSIS/5.4.0/CMSIS/RTOS2/RTX/Source/rtx_lib.h **** 
ARM GAS  /tmp/ccOyeoN6.s 			page 13


  56:/usr/local/lib/ARM/CMSIS/5.4.0/CMSIS/RTOS2/RTX/Source/rtx_lib.h **** //  ==== Inline functions ====
  57:/usr/local/lib/ARM/CMSIS/5.4.0/CMSIS/RTOS2/RTX/Source/rtx_lib.h **** 
  58:/usr/local/lib/ARM/CMSIS/5.4.0/CMSIS/RTOS2/RTX/Source/rtx_lib.h **** // Thread ID
  59:/usr/local/lib/ARM/CMSIS/5.4.0/CMSIS/RTOS2/RTX/Source/rtx_lib.h **** __STATIC_INLINE os_thread_t *osRtxThreadId (osThreadId_t thread_id) {
  60:/usr/local/lib/ARM/CMSIS/5.4.0/CMSIS/RTOS2/RTX/Source/rtx_lib.h ****   //lint -e{9079} -e{9087} "cast from pointer to void to pointer to object type" [MISRA Note 2]
  61:/usr/local/lib/ARM/CMSIS/5.4.0/CMSIS/RTOS2/RTX/Source/rtx_lib.h ****   return ((os_thread_t *)thread_id);
  62:/usr/local/lib/ARM/CMSIS/5.4.0/CMSIS/RTOS2/RTX/Source/rtx_lib.h **** }
  63:/usr/local/lib/ARM/CMSIS/5.4.0/CMSIS/RTOS2/RTX/Source/rtx_lib.h **** // Timer ID
  64:/usr/local/lib/ARM/CMSIS/5.4.0/CMSIS/RTOS2/RTX/Source/rtx_lib.h **** __STATIC_INLINE os_timer_t *osRtxTimerId (osTimerId_t timer_id) {
  65:/usr/local/lib/ARM/CMSIS/5.4.0/CMSIS/RTOS2/RTX/Source/rtx_lib.h ****   //lint -e{9079} -e{9087} "cast from pointer to void to pointer to object type" [MISRA Note 2]
  66:/usr/local/lib/ARM/CMSIS/5.4.0/CMSIS/RTOS2/RTX/Source/rtx_lib.h ****   return ((os_timer_t *)timer_id);
  67:/usr/local/lib/ARM/CMSIS/5.4.0/CMSIS/RTOS2/RTX/Source/rtx_lib.h **** }
  68:/usr/local/lib/ARM/CMSIS/5.4.0/CMSIS/RTOS2/RTX/Source/rtx_lib.h **** // Event Flags ID
  69:/usr/local/lib/ARM/CMSIS/5.4.0/CMSIS/RTOS2/RTX/Source/rtx_lib.h **** __STATIC_INLINE os_event_flags_t *osRtxEventFlagsId (osEventFlagsId_t ef_id) {
  70:/usr/local/lib/ARM/CMSIS/5.4.0/CMSIS/RTOS2/RTX/Source/rtx_lib.h ****   //lint -e{9079} -e{9087} "cast from pointer to void to pointer to object type" [MISRA Note 2]
  71:/usr/local/lib/ARM/CMSIS/5.4.0/CMSIS/RTOS2/RTX/Source/rtx_lib.h ****   return ((os_event_flags_t *)ef_id);
  72:/usr/local/lib/ARM/CMSIS/5.4.0/CMSIS/RTOS2/RTX/Source/rtx_lib.h **** }
  73:/usr/local/lib/ARM/CMSIS/5.4.0/CMSIS/RTOS2/RTX/Source/rtx_lib.h **** // Mutex ID
  74:/usr/local/lib/ARM/CMSIS/5.4.0/CMSIS/RTOS2/RTX/Source/rtx_lib.h **** __STATIC_INLINE os_mutex_t *osRtxMutexId (osMutexId_t mutex_id) {
  75:/usr/local/lib/ARM/CMSIS/5.4.0/CMSIS/RTOS2/RTX/Source/rtx_lib.h ****   //lint -e{9079} -e{9087} "cast from pointer to void to pointer to object type" [MISRA Note 2]
  76:/usr/local/lib/ARM/CMSIS/5.4.0/CMSIS/RTOS2/RTX/Source/rtx_lib.h ****   return ((os_mutex_t *)mutex_id);
  77:/usr/local/lib/ARM/CMSIS/5.4.0/CMSIS/RTOS2/RTX/Source/rtx_lib.h **** }
  78:/usr/local/lib/ARM/CMSIS/5.4.0/CMSIS/RTOS2/RTX/Source/rtx_lib.h **** // Semaphore ID
  79:/usr/local/lib/ARM/CMSIS/5.4.0/CMSIS/RTOS2/RTX/Source/rtx_lib.h **** __STATIC_INLINE os_semaphore_t *osRtxSemaphoreId (osSemaphoreId_t semaphore_id) {
  80:/usr/local/lib/ARM/CMSIS/5.4.0/CMSIS/RTOS2/RTX/Source/rtx_lib.h ****   //lint -e{9079} -e{9087} "cast from pointer to void to pointer to object type" [MISRA Note 2]
  81:/usr/local/lib/ARM/CMSIS/5.4.0/CMSIS/RTOS2/RTX/Source/rtx_lib.h ****   return ((os_semaphore_t *)semaphore_id);
  82:/usr/local/lib/ARM/CMSIS/5.4.0/CMSIS/RTOS2/RTX/Source/rtx_lib.h **** }
  83:/usr/local/lib/ARM/CMSIS/5.4.0/CMSIS/RTOS2/RTX/Source/rtx_lib.h **** // Memory Pool ID
  84:/usr/local/lib/ARM/CMSIS/5.4.0/CMSIS/RTOS2/RTX/Source/rtx_lib.h **** __STATIC_INLINE os_memory_pool_t *osRtxMemoryPoolId (osMemoryPoolId_t mp_id) {
  85:/usr/local/lib/ARM/CMSIS/5.4.0/CMSIS/RTOS2/RTX/Source/rtx_lib.h ****   //lint -e{9079} -e{9087} "cast from pointer to void to pointer to object type" [MISRA Note 2]
  86:/usr/local/lib/ARM/CMSIS/5.4.0/CMSIS/RTOS2/RTX/Source/rtx_lib.h ****   return ((os_memory_pool_t *)mp_id);
  87:/usr/local/lib/ARM/CMSIS/5.4.0/CMSIS/RTOS2/RTX/Source/rtx_lib.h **** }
  88:/usr/local/lib/ARM/CMSIS/5.4.0/CMSIS/RTOS2/RTX/Source/rtx_lib.h **** // Message Queue ID
  89:/usr/local/lib/ARM/CMSIS/5.4.0/CMSIS/RTOS2/RTX/Source/rtx_lib.h **** __STATIC_INLINE os_message_queue_t *osRtxMessageQueueId (osMessageQueueId_t mq_id) {
  90:/usr/local/lib/ARM/CMSIS/5.4.0/CMSIS/RTOS2/RTX/Source/rtx_lib.h ****   //lint -e{9079} -e{9087} "cast from pointer to void to pointer to object type" [MISRA Note 2]
  91:/usr/local/lib/ARM/CMSIS/5.4.0/CMSIS/RTOS2/RTX/Source/rtx_lib.h ****   return ((os_message_queue_t *)mq_id);
  92:/usr/local/lib/ARM/CMSIS/5.4.0/CMSIS/RTOS2/RTX/Source/rtx_lib.h **** }
  93:/usr/local/lib/ARM/CMSIS/5.4.0/CMSIS/RTOS2/RTX/Source/rtx_lib.h **** 
  94:/usr/local/lib/ARM/CMSIS/5.4.0/CMSIS/RTOS2/RTX/Source/rtx_lib.h **** // Generic Object
  95:/usr/local/lib/ARM/CMSIS/5.4.0/CMSIS/RTOS2/RTX/Source/rtx_lib.h **** __STATIC_INLINE os_object_t *osRtxObject (void *object) {
  96:/usr/local/lib/ARM/CMSIS/5.4.0/CMSIS/RTOS2/RTX/Source/rtx_lib.h ****   //lint -e{9079} -e{9087} "cast from pointer to void to pointer to object type" [MISRA Note 3]
  97:/usr/local/lib/ARM/CMSIS/5.4.0/CMSIS/RTOS2/RTX/Source/rtx_lib.h ****   return ((os_object_t *)object);
  98:/usr/local/lib/ARM/CMSIS/5.4.0/CMSIS/RTOS2/RTX/Source/rtx_lib.h **** }
  99:/usr/local/lib/ARM/CMSIS/5.4.0/CMSIS/RTOS2/RTX/Source/rtx_lib.h **** 
 100:/usr/local/lib/ARM/CMSIS/5.4.0/CMSIS/RTOS2/RTX/Source/rtx_lib.h **** // Thread Object
 101:/usr/local/lib/ARM/CMSIS/5.4.0/CMSIS/RTOS2/RTX/Source/rtx_lib.h **** __STATIC_INLINE os_thread_t *osRtxThreadObject (os_object_t *object) {
 102:/usr/local/lib/ARM/CMSIS/5.4.0/CMSIS/RTOS2/RTX/Source/rtx_lib.h ****   //lint -e{740} -e{826} -e{9087} "cast from pointer to generic object to specific object" [MISRA N
 103:/usr/local/lib/ARM/CMSIS/5.4.0/CMSIS/RTOS2/RTX/Source/rtx_lib.h ****   return ((os_thread_t *)object);
 104:/usr/local/lib/ARM/CMSIS/5.4.0/CMSIS/RTOS2/RTX/Source/rtx_lib.h **** }
 105:/usr/local/lib/ARM/CMSIS/5.4.0/CMSIS/RTOS2/RTX/Source/rtx_lib.h **** // Timer Object
 106:/usr/local/lib/ARM/CMSIS/5.4.0/CMSIS/RTOS2/RTX/Source/rtx_lib.h **** __STATIC_INLINE os_timer_t *osRtxTimerObject (os_object_t *object) {
 107:/usr/local/lib/ARM/CMSIS/5.4.0/CMSIS/RTOS2/RTX/Source/rtx_lib.h ****   //lint -e{740} -e{826} -e{9087} "cast from pointer to generic object to specific object" [MISRA N
 108:/usr/local/lib/ARM/CMSIS/5.4.0/CMSIS/RTOS2/RTX/Source/rtx_lib.h ****   return ((os_timer_t *)object);
 109:/usr/local/lib/ARM/CMSIS/5.4.0/CMSIS/RTOS2/RTX/Source/rtx_lib.h **** }
 110:/usr/local/lib/ARM/CMSIS/5.4.0/CMSIS/RTOS2/RTX/Source/rtx_lib.h **** // Event Flags Object
 111:/usr/local/lib/ARM/CMSIS/5.4.0/CMSIS/RTOS2/RTX/Source/rtx_lib.h **** __STATIC_INLINE os_event_flags_t *osRtxEventFlagsObject (os_object_t *object) {
 112:/usr/local/lib/ARM/CMSIS/5.4.0/CMSIS/RTOS2/RTX/Source/rtx_lib.h ****   //lint -e{740} -e{826} -e{9087} "cast from pointer to generic object to specific object" [MISRA N
ARM GAS  /tmp/ccOyeoN6.s 			page 14


 113:/usr/local/lib/ARM/CMSIS/5.4.0/CMSIS/RTOS2/RTX/Source/rtx_lib.h ****   return ((os_event_flags_t *)object);
 114:/usr/local/lib/ARM/CMSIS/5.4.0/CMSIS/RTOS2/RTX/Source/rtx_lib.h **** }
 115:/usr/local/lib/ARM/CMSIS/5.4.0/CMSIS/RTOS2/RTX/Source/rtx_lib.h **** // Mutex Object
 116:/usr/local/lib/ARM/CMSIS/5.4.0/CMSIS/RTOS2/RTX/Source/rtx_lib.h **** __STATIC_INLINE os_mutex_t *osRtxMutexObject (os_object_t *object) {
 117:/usr/local/lib/ARM/CMSIS/5.4.0/CMSIS/RTOS2/RTX/Source/rtx_lib.h ****   //lint -e{740} -e{826} -e{9087} "cast from pointer to generic object to specific object" [MISRA N
 118:/usr/local/lib/ARM/CMSIS/5.4.0/CMSIS/RTOS2/RTX/Source/rtx_lib.h ****   return ((os_mutex_t *)object);
 119:/usr/local/lib/ARM/CMSIS/5.4.0/CMSIS/RTOS2/RTX/Source/rtx_lib.h **** }
 120:/usr/local/lib/ARM/CMSIS/5.4.0/CMSIS/RTOS2/RTX/Source/rtx_lib.h **** // Semaphore Object
 121:/usr/local/lib/ARM/CMSIS/5.4.0/CMSIS/RTOS2/RTX/Source/rtx_lib.h **** __STATIC_INLINE os_semaphore_t *osRtxSemaphoreObject (os_object_t *object) {
 122:/usr/local/lib/ARM/CMSIS/5.4.0/CMSIS/RTOS2/RTX/Source/rtx_lib.h ****   //lint -e{740} -e{826} -e{9087} "cast from pointer to generic object to specific object" [MISRA N
 123:/usr/local/lib/ARM/CMSIS/5.4.0/CMSIS/RTOS2/RTX/Source/rtx_lib.h ****   return ((os_semaphore_t *)object);
 124:/usr/local/lib/ARM/CMSIS/5.4.0/CMSIS/RTOS2/RTX/Source/rtx_lib.h **** }
 125:/usr/local/lib/ARM/CMSIS/5.4.0/CMSIS/RTOS2/RTX/Source/rtx_lib.h **** // Memory Pool Object
 126:/usr/local/lib/ARM/CMSIS/5.4.0/CMSIS/RTOS2/RTX/Source/rtx_lib.h **** __STATIC_INLINE os_memory_pool_t *osRtxMemoryPoolObject (os_object_t *object) {
 127:/usr/local/lib/ARM/CMSIS/5.4.0/CMSIS/RTOS2/RTX/Source/rtx_lib.h ****   //lint -e{740} -e{826} -e{9087} "cast from pointer to generic object to specific object" [MISRA N
 128:/usr/local/lib/ARM/CMSIS/5.4.0/CMSIS/RTOS2/RTX/Source/rtx_lib.h ****   return ((os_memory_pool_t *)object);
 129:/usr/local/lib/ARM/CMSIS/5.4.0/CMSIS/RTOS2/RTX/Source/rtx_lib.h **** }
 130:/usr/local/lib/ARM/CMSIS/5.4.0/CMSIS/RTOS2/RTX/Source/rtx_lib.h **** // Message Queue Object
 131:/usr/local/lib/ARM/CMSIS/5.4.0/CMSIS/RTOS2/RTX/Source/rtx_lib.h **** __STATIC_INLINE os_message_queue_t *osRtxMessageQueueObject (os_object_t *object) {
 132:/usr/local/lib/ARM/CMSIS/5.4.0/CMSIS/RTOS2/RTX/Source/rtx_lib.h ****   //lint -e{740} -e{826} -e{9087} "cast from pointer to generic object to specific object" [MISRA N
 133:/usr/local/lib/ARM/CMSIS/5.4.0/CMSIS/RTOS2/RTX/Source/rtx_lib.h ****   return ((os_message_queue_t *)object);
 134:/usr/local/lib/ARM/CMSIS/5.4.0/CMSIS/RTOS2/RTX/Source/rtx_lib.h **** }
 135:/usr/local/lib/ARM/CMSIS/5.4.0/CMSIS/RTOS2/RTX/Source/rtx_lib.h **** // Message Object
 136:/usr/local/lib/ARM/CMSIS/5.4.0/CMSIS/RTOS2/RTX/Source/rtx_lib.h **** __STATIC_INLINE os_message_t *osRtxMessageObject (os_object_t *object) {
 137:/usr/local/lib/ARM/CMSIS/5.4.0/CMSIS/RTOS2/RTX/Source/rtx_lib.h ****   //lint -e{740} -e{826} -e{9087} "cast from pointer to generic object to specific object" [MISRA N
 138:/usr/local/lib/ARM/CMSIS/5.4.0/CMSIS/RTOS2/RTX/Source/rtx_lib.h ****   return ((os_message_t *)object);
 139:/usr/local/lib/ARM/CMSIS/5.4.0/CMSIS/RTOS2/RTX/Source/rtx_lib.h **** }
 140:/usr/local/lib/ARM/CMSIS/5.4.0/CMSIS/RTOS2/RTX/Source/rtx_lib.h **** 
 141:/usr/local/lib/ARM/CMSIS/5.4.0/CMSIS/RTOS2/RTX/Source/rtx_lib.h **** // Kernel State
 142:/usr/local/lib/ARM/CMSIS/5.4.0/CMSIS/RTOS2/RTX/Source/rtx_lib.h **** __STATIC_INLINE osKernelState_t osRtxKernelState (void) {
 143:/usr/local/lib/ARM/CMSIS/5.4.0/CMSIS/RTOS2/RTX/Source/rtx_lib.h ****   //lint -e{9030} -e{9034} "cast to enum"
 144:/usr/local/lib/ARM/CMSIS/5.4.0/CMSIS/RTOS2/RTX/Source/rtx_lib.h ****   return ((osKernelState_t)(osRtxInfo.kernel.state));
 404              		.loc 2 144 0
 405 0002 034B     		ldr	r3, .L35
 406 0004 1C7A     		ldrb	r4, [r3, #8]	@ zero_extendqisi2
 407              	.LBE231:
 408              	.LBE230:
 232:/usr/local/lib/ARM/CMSIS/5.4.0/CMSIS/RTOS2/RTX/Source/rtx_kernel.c ****   osKernelState_t state = osRtxKernelState();
 233:/usr/local/lib/ARM/CMSIS/5.4.0/CMSIS/RTOS2/RTX/Source/rtx_kernel.c ****   EvrRtxKernelGetState(state);
 409              		.loc 1 233 0
 410 0006 2046     		mov	r0, r4
 411 0008 FFF7FEFF 		bl	EvrRtxKernelGetState
 412              	.LVL25:
 234:/usr/local/lib/ARM/CMSIS/5.4.0/CMSIS/RTOS2/RTX/Source/rtx_kernel.c ****   return state;
 235:/usr/local/lib/ARM/CMSIS/5.4.0/CMSIS/RTOS2/RTX/Source/rtx_kernel.c **** }
 413              		.loc 1 235 0
 414 000c 2046     		mov	r0, r4
 415 000e 10BD     		pop	{r4, pc}
 416              	.L36:
 417              		.align	2
 418              	.L35:
 419 0010 00000000 		.word	.LANCHOR0
 420              		.cfi_endproc
 421              	.LFE178:
 423              		.section	.text.KernelUnblock,"ax",%progbits
 424              		.align	2
 425              		.thumb
ARM GAS  /tmp/ccOyeoN6.s 			page 15


 426              		.thumb_func
 428              	KernelUnblock:
 429              	.LFB175:
  52:/usr/local/lib/ARM/CMSIS/5.4.0/CMSIS/RTOS2/RTX/Source/rtx_kernel.c **** 
 430              		.loc 1 52 0
 431              		.cfi_startproc
 432              		@ args = 0, pretend = 0, frame = 0
 433              		@ frame_needed = 0, uses_anonymous_args = 0
 434 0000 08B5     		push	{r3, lr}
 435              	.LCFI3:
 436              		.cfi_def_cfa_offset 8
 437              		.cfi_offset 3, -8
 438              		.cfi_offset 14, -4
  54:/usr/local/lib/ARM/CMSIS/5.4.0/CMSIS/RTOS2/RTX/Source/rtx_kernel.c ****   __DSB();
 439              		.loc 1 54 0
 440 0002 084B     		ldr	r3, .L40
 441 0004 0022     		movs	r2, #0
 442 0006 5A72     		strb	r2, [r3, #9]
 443              	.LBB232:
 444              	.LBB233:
 445              		.file 3 "/usr/local/lib/ARM/CMSIS/5.4.0/CMSIS/Core/Include/cmsis_gcc.h"
   1:/usr/local/lib/ARM/CMSIS/5.4.0/CMSIS/Core/Include/cmsis_gcc.h **** /**************************************************************************//**
   2:/usr/local/lib/ARM/CMSIS/5.4.0/CMSIS/Core/Include/cmsis_gcc.h ****  * @file     cmsis_gcc.h
   3:/usr/local/lib/ARM/CMSIS/5.4.0/CMSIS/Core/Include/cmsis_gcc.h ****  * @brief    CMSIS compiler GCC header file
   4:/usr/local/lib/ARM/CMSIS/5.4.0/CMSIS/Core/Include/cmsis_gcc.h ****  * @version  V5.0.4
   5:/usr/local/lib/ARM/CMSIS/5.4.0/CMSIS/Core/Include/cmsis_gcc.h ****  * @date     09. April 2018
   6:/usr/local/lib/ARM/CMSIS/5.4.0/CMSIS/Core/Include/cmsis_gcc.h ****  ******************************************************************************/
   7:/usr/local/lib/ARM/CMSIS/5.4.0/CMSIS/Core/Include/cmsis_gcc.h **** /*
   8:/usr/local/lib/ARM/CMSIS/5.4.0/CMSIS/Core/Include/cmsis_gcc.h ****  * Copyright (c) 2009-2018 Arm Limited. All rights reserved.
   9:/usr/local/lib/ARM/CMSIS/5.4.0/CMSIS/Core/Include/cmsis_gcc.h ****  *
  10:/usr/local/lib/ARM/CMSIS/5.4.0/CMSIS/Core/Include/cmsis_gcc.h ****  * SPDX-License-Identifier: Apache-2.0
  11:/usr/local/lib/ARM/CMSIS/5.4.0/CMSIS/Core/Include/cmsis_gcc.h ****  *
  12:/usr/local/lib/ARM/CMSIS/5.4.0/CMSIS/Core/Include/cmsis_gcc.h ****  * Licensed under the Apache License, Version 2.0 (the License); you may
  13:/usr/local/lib/ARM/CMSIS/5.4.0/CMSIS/Core/Include/cmsis_gcc.h ****  * not use this file except in compliance with the License.
  14:/usr/local/lib/ARM/CMSIS/5.4.0/CMSIS/Core/Include/cmsis_gcc.h ****  * You may obtain a copy of the License at
  15:/usr/local/lib/ARM/CMSIS/5.4.0/CMSIS/Core/Include/cmsis_gcc.h ****  *
  16:/usr/local/lib/ARM/CMSIS/5.4.0/CMSIS/Core/Include/cmsis_gcc.h ****  * www.apache.org/licenses/LICENSE-2.0
  17:/usr/local/lib/ARM/CMSIS/5.4.0/CMSIS/Core/Include/cmsis_gcc.h ****  *
  18:/usr/local/lib/ARM/CMSIS/5.4.0/CMSIS/Core/Include/cmsis_gcc.h ****  * Unless required by applicable law or agreed to in writing, software
  19:/usr/local/lib/ARM/CMSIS/5.4.0/CMSIS/Core/Include/cmsis_gcc.h ****  * distributed under the License is distributed on an AS IS BASIS, WITHOUT
  20:/usr/local/lib/ARM/CMSIS/5.4.0/CMSIS/Core/Include/cmsis_gcc.h ****  * WARRANTIES OR CONDITIONS OF ANY KIND, either express or implied.
  21:/usr/local/lib/ARM/CMSIS/5.4.0/CMSIS/Core/Include/cmsis_gcc.h ****  * See the License for the specific language governing permissions and
  22:/usr/local/lib/ARM/CMSIS/5.4.0/CMSIS/Core/Include/cmsis_gcc.h ****  * limitations under the License.
  23:/usr/local/lib/ARM/CMSIS/5.4.0/CMSIS/Core/Include/cmsis_gcc.h ****  */
  24:/usr/local/lib/ARM/CMSIS/5.4.0/CMSIS/Core/Include/cmsis_gcc.h **** 
  25:/usr/local/lib/ARM/CMSIS/5.4.0/CMSIS/Core/Include/cmsis_gcc.h **** #ifndef __CMSIS_GCC_H
  26:/usr/local/lib/ARM/CMSIS/5.4.0/CMSIS/Core/Include/cmsis_gcc.h **** #define __CMSIS_GCC_H
  27:/usr/local/lib/ARM/CMSIS/5.4.0/CMSIS/Core/Include/cmsis_gcc.h **** 
  28:/usr/local/lib/ARM/CMSIS/5.4.0/CMSIS/Core/Include/cmsis_gcc.h **** /* ignore some GCC warnings */
  29:/usr/local/lib/ARM/CMSIS/5.4.0/CMSIS/Core/Include/cmsis_gcc.h **** #pragma GCC diagnostic push
  30:/usr/local/lib/ARM/CMSIS/5.4.0/CMSIS/Core/Include/cmsis_gcc.h **** #pragma GCC diagnostic ignored "-Wsign-conversion"
  31:/usr/local/lib/ARM/CMSIS/5.4.0/CMSIS/Core/Include/cmsis_gcc.h **** #pragma GCC diagnostic ignored "-Wconversion"
  32:/usr/local/lib/ARM/CMSIS/5.4.0/CMSIS/Core/Include/cmsis_gcc.h **** #pragma GCC diagnostic ignored "-Wunused-parameter"
  33:/usr/local/lib/ARM/CMSIS/5.4.0/CMSIS/Core/Include/cmsis_gcc.h **** 
  34:/usr/local/lib/ARM/CMSIS/5.4.0/CMSIS/Core/Include/cmsis_gcc.h **** /* Fallback for __has_builtin */
  35:/usr/local/lib/ARM/CMSIS/5.4.0/CMSIS/Core/Include/cmsis_gcc.h **** #ifndef __has_builtin
  36:/usr/local/lib/ARM/CMSIS/5.4.0/CMSIS/Core/Include/cmsis_gcc.h ****   #define __has_builtin(x) (0)
ARM GAS  /tmp/ccOyeoN6.s 			page 16


  37:/usr/local/lib/ARM/CMSIS/5.4.0/CMSIS/Core/Include/cmsis_gcc.h **** #endif
  38:/usr/local/lib/ARM/CMSIS/5.4.0/CMSIS/Core/Include/cmsis_gcc.h **** 
  39:/usr/local/lib/ARM/CMSIS/5.4.0/CMSIS/Core/Include/cmsis_gcc.h **** /* CMSIS compiler specific defines */
  40:/usr/local/lib/ARM/CMSIS/5.4.0/CMSIS/Core/Include/cmsis_gcc.h **** #ifndef   __ASM
  41:/usr/local/lib/ARM/CMSIS/5.4.0/CMSIS/Core/Include/cmsis_gcc.h ****   #define __ASM                                  __asm
  42:/usr/local/lib/ARM/CMSIS/5.4.0/CMSIS/Core/Include/cmsis_gcc.h **** #endif
  43:/usr/local/lib/ARM/CMSIS/5.4.0/CMSIS/Core/Include/cmsis_gcc.h **** #ifndef   __INLINE
  44:/usr/local/lib/ARM/CMSIS/5.4.0/CMSIS/Core/Include/cmsis_gcc.h ****   #define __INLINE                               inline
  45:/usr/local/lib/ARM/CMSIS/5.4.0/CMSIS/Core/Include/cmsis_gcc.h **** #endif
  46:/usr/local/lib/ARM/CMSIS/5.4.0/CMSIS/Core/Include/cmsis_gcc.h **** #ifndef   __STATIC_INLINE
  47:/usr/local/lib/ARM/CMSIS/5.4.0/CMSIS/Core/Include/cmsis_gcc.h ****   #define __STATIC_INLINE                        static inline
  48:/usr/local/lib/ARM/CMSIS/5.4.0/CMSIS/Core/Include/cmsis_gcc.h **** #endif
  49:/usr/local/lib/ARM/CMSIS/5.4.0/CMSIS/Core/Include/cmsis_gcc.h **** #ifndef   __STATIC_FORCEINLINE                 
  50:/usr/local/lib/ARM/CMSIS/5.4.0/CMSIS/Core/Include/cmsis_gcc.h ****   #define __STATIC_FORCEINLINE                   __attribute__((always_inline)) static inline
  51:/usr/local/lib/ARM/CMSIS/5.4.0/CMSIS/Core/Include/cmsis_gcc.h **** #endif                                           
  52:/usr/local/lib/ARM/CMSIS/5.4.0/CMSIS/Core/Include/cmsis_gcc.h **** #ifndef   __NO_RETURN
  53:/usr/local/lib/ARM/CMSIS/5.4.0/CMSIS/Core/Include/cmsis_gcc.h ****   #define __NO_RETURN                            __attribute__((__noreturn__))
  54:/usr/local/lib/ARM/CMSIS/5.4.0/CMSIS/Core/Include/cmsis_gcc.h **** #endif
  55:/usr/local/lib/ARM/CMSIS/5.4.0/CMSIS/Core/Include/cmsis_gcc.h **** #ifndef   __USED
  56:/usr/local/lib/ARM/CMSIS/5.4.0/CMSIS/Core/Include/cmsis_gcc.h ****   #define __USED                                 __attribute__((used))
  57:/usr/local/lib/ARM/CMSIS/5.4.0/CMSIS/Core/Include/cmsis_gcc.h **** #endif
  58:/usr/local/lib/ARM/CMSIS/5.4.0/CMSIS/Core/Include/cmsis_gcc.h **** #ifndef   __WEAK
  59:/usr/local/lib/ARM/CMSIS/5.4.0/CMSIS/Core/Include/cmsis_gcc.h ****   #define __WEAK                                 __attribute__((weak))
  60:/usr/local/lib/ARM/CMSIS/5.4.0/CMSIS/Core/Include/cmsis_gcc.h **** #endif
  61:/usr/local/lib/ARM/CMSIS/5.4.0/CMSIS/Core/Include/cmsis_gcc.h **** #ifndef   __PACKED
  62:/usr/local/lib/ARM/CMSIS/5.4.0/CMSIS/Core/Include/cmsis_gcc.h ****   #define __PACKED                               __attribute__((packed, aligned(1)))
  63:/usr/local/lib/ARM/CMSIS/5.4.0/CMSIS/Core/Include/cmsis_gcc.h **** #endif
  64:/usr/local/lib/ARM/CMSIS/5.4.0/CMSIS/Core/Include/cmsis_gcc.h **** #ifndef   __PACKED_STRUCT
  65:/usr/local/lib/ARM/CMSIS/5.4.0/CMSIS/Core/Include/cmsis_gcc.h ****   #define __PACKED_STRUCT                        struct __attribute__((packed, aligned(1)))
  66:/usr/local/lib/ARM/CMSIS/5.4.0/CMSIS/Core/Include/cmsis_gcc.h **** #endif
  67:/usr/local/lib/ARM/CMSIS/5.4.0/CMSIS/Core/Include/cmsis_gcc.h **** #ifndef   __PACKED_UNION
  68:/usr/local/lib/ARM/CMSIS/5.4.0/CMSIS/Core/Include/cmsis_gcc.h ****   #define __PACKED_UNION                         union __attribute__((packed, aligned(1)))
  69:/usr/local/lib/ARM/CMSIS/5.4.0/CMSIS/Core/Include/cmsis_gcc.h **** #endif
  70:/usr/local/lib/ARM/CMSIS/5.4.0/CMSIS/Core/Include/cmsis_gcc.h **** #ifndef   __UNALIGNED_UINT32        /* deprecated */
  71:/usr/local/lib/ARM/CMSIS/5.4.0/CMSIS/Core/Include/cmsis_gcc.h ****   #pragma GCC diagnostic push
  72:/usr/local/lib/ARM/CMSIS/5.4.0/CMSIS/Core/Include/cmsis_gcc.h ****   #pragma GCC diagnostic ignored "-Wpacked"
  73:/usr/local/lib/ARM/CMSIS/5.4.0/CMSIS/Core/Include/cmsis_gcc.h ****   #pragma GCC diagnostic ignored "-Wattributes"
  74:/usr/local/lib/ARM/CMSIS/5.4.0/CMSIS/Core/Include/cmsis_gcc.h ****   struct __attribute__((packed)) T_UINT32 { uint32_t v; };
  75:/usr/local/lib/ARM/CMSIS/5.4.0/CMSIS/Core/Include/cmsis_gcc.h ****   #pragma GCC diagnostic pop
  76:/usr/local/lib/ARM/CMSIS/5.4.0/CMSIS/Core/Include/cmsis_gcc.h ****   #define __UNALIGNED_UINT32(x)                  (((struct T_UINT32 *)(x))->v)
  77:/usr/local/lib/ARM/CMSIS/5.4.0/CMSIS/Core/Include/cmsis_gcc.h **** #endif
  78:/usr/local/lib/ARM/CMSIS/5.4.0/CMSIS/Core/Include/cmsis_gcc.h **** #ifndef   __UNALIGNED_UINT16_WRITE
  79:/usr/local/lib/ARM/CMSIS/5.4.0/CMSIS/Core/Include/cmsis_gcc.h ****   #pragma GCC diagnostic push
  80:/usr/local/lib/ARM/CMSIS/5.4.0/CMSIS/Core/Include/cmsis_gcc.h ****   #pragma GCC diagnostic ignored "-Wpacked"
  81:/usr/local/lib/ARM/CMSIS/5.4.0/CMSIS/Core/Include/cmsis_gcc.h ****   #pragma GCC diagnostic ignored "-Wattributes"
  82:/usr/local/lib/ARM/CMSIS/5.4.0/CMSIS/Core/Include/cmsis_gcc.h ****   __PACKED_STRUCT T_UINT16_WRITE { uint16_t v; };
  83:/usr/local/lib/ARM/CMSIS/5.4.0/CMSIS/Core/Include/cmsis_gcc.h ****   #pragma GCC diagnostic pop
  84:/usr/local/lib/ARM/CMSIS/5.4.0/CMSIS/Core/Include/cmsis_gcc.h ****   #define __UNALIGNED_UINT16_WRITE(addr, val)    (void)((((struct T_UINT16_WRITE *)(void *)(addr))-
  85:/usr/local/lib/ARM/CMSIS/5.4.0/CMSIS/Core/Include/cmsis_gcc.h **** #endif
  86:/usr/local/lib/ARM/CMSIS/5.4.0/CMSIS/Core/Include/cmsis_gcc.h **** #ifndef   __UNALIGNED_UINT16_READ
  87:/usr/local/lib/ARM/CMSIS/5.4.0/CMSIS/Core/Include/cmsis_gcc.h ****   #pragma GCC diagnostic push
  88:/usr/local/lib/ARM/CMSIS/5.4.0/CMSIS/Core/Include/cmsis_gcc.h ****   #pragma GCC diagnostic ignored "-Wpacked"
  89:/usr/local/lib/ARM/CMSIS/5.4.0/CMSIS/Core/Include/cmsis_gcc.h ****   #pragma GCC diagnostic ignored "-Wattributes"
  90:/usr/local/lib/ARM/CMSIS/5.4.0/CMSIS/Core/Include/cmsis_gcc.h ****   __PACKED_STRUCT T_UINT16_READ { uint16_t v; };
  91:/usr/local/lib/ARM/CMSIS/5.4.0/CMSIS/Core/Include/cmsis_gcc.h ****   #pragma GCC diagnostic pop
  92:/usr/local/lib/ARM/CMSIS/5.4.0/CMSIS/Core/Include/cmsis_gcc.h ****   #define __UNALIGNED_UINT16_READ(addr)          (((const struct T_UINT16_READ *)(const void *)(add
  93:/usr/local/lib/ARM/CMSIS/5.4.0/CMSIS/Core/Include/cmsis_gcc.h **** #endif
ARM GAS  /tmp/ccOyeoN6.s 			page 17


  94:/usr/local/lib/ARM/CMSIS/5.4.0/CMSIS/Core/Include/cmsis_gcc.h **** #ifndef   __UNALIGNED_UINT32_WRITE
  95:/usr/local/lib/ARM/CMSIS/5.4.0/CMSIS/Core/Include/cmsis_gcc.h ****   #pragma GCC diagnostic push
  96:/usr/local/lib/ARM/CMSIS/5.4.0/CMSIS/Core/Include/cmsis_gcc.h ****   #pragma GCC diagnostic ignored "-Wpacked"
  97:/usr/local/lib/ARM/CMSIS/5.4.0/CMSIS/Core/Include/cmsis_gcc.h ****   #pragma GCC diagnostic ignored "-Wattributes"
  98:/usr/local/lib/ARM/CMSIS/5.4.0/CMSIS/Core/Include/cmsis_gcc.h ****   __PACKED_STRUCT T_UINT32_WRITE { uint32_t v; };
  99:/usr/local/lib/ARM/CMSIS/5.4.0/CMSIS/Core/Include/cmsis_gcc.h ****   #pragma GCC diagnostic pop
 100:/usr/local/lib/ARM/CMSIS/5.4.0/CMSIS/Core/Include/cmsis_gcc.h ****   #define __UNALIGNED_UINT32_WRITE(addr, val)    (void)((((struct T_UINT32_WRITE *)(void *)(addr))-
 101:/usr/local/lib/ARM/CMSIS/5.4.0/CMSIS/Core/Include/cmsis_gcc.h **** #endif
 102:/usr/local/lib/ARM/CMSIS/5.4.0/CMSIS/Core/Include/cmsis_gcc.h **** #ifndef   __UNALIGNED_UINT32_READ
 103:/usr/local/lib/ARM/CMSIS/5.4.0/CMSIS/Core/Include/cmsis_gcc.h ****   #pragma GCC diagnostic push
 104:/usr/local/lib/ARM/CMSIS/5.4.0/CMSIS/Core/Include/cmsis_gcc.h ****   #pragma GCC diagnostic ignored "-Wpacked"
 105:/usr/local/lib/ARM/CMSIS/5.4.0/CMSIS/Core/Include/cmsis_gcc.h ****   #pragma GCC diagnostic ignored "-Wattributes"
 106:/usr/local/lib/ARM/CMSIS/5.4.0/CMSIS/Core/Include/cmsis_gcc.h ****   __PACKED_STRUCT T_UINT32_READ { uint32_t v; };
 107:/usr/local/lib/ARM/CMSIS/5.4.0/CMSIS/Core/Include/cmsis_gcc.h ****   #pragma GCC diagnostic pop
 108:/usr/local/lib/ARM/CMSIS/5.4.0/CMSIS/Core/Include/cmsis_gcc.h ****   #define __UNALIGNED_UINT32_READ(addr)          (((const struct T_UINT32_READ *)(const void *)(add
 109:/usr/local/lib/ARM/CMSIS/5.4.0/CMSIS/Core/Include/cmsis_gcc.h **** #endif
 110:/usr/local/lib/ARM/CMSIS/5.4.0/CMSIS/Core/Include/cmsis_gcc.h **** #ifndef   __ALIGNED
 111:/usr/local/lib/ARM/CMSIS/5.4.0/CMSIS/Core/Include/cmsis_gcc.h ****   #define __ALIGNED(x)                           __attribute__((aligned(x)))
 112:/usr/local/lib/ARM/CMSIS/5.4.0/CMSIS/Core/Include/cmsis_gcc.h **** #endif
 113:/usr/local/lib/ARM/CMSIS/5.4.0/CMSIS/Core/Include/cmsis_gcc.h **** #ifndef   __RESTRICT
 114:/usr/local/lib/ARM/CMSIS/5.4.0/CMSIS/Core/Include/cmsis_gcc.h ****   #define __RESTRICT                             __restrict
 115:/usr/local/lib/ARM/CMSIS/5.4.0/CMSIS/Core/Include/cmsis_gcc.h **** #endif
 116:/usr/local/lib/ARM/CMSIS/5.4.0/CMSIS/Core/Include/cmsis_gcc.h **** 
 117:/usr/local/lib/ARM/CMSIS/5.4.0/CMSIS/Core/Include/cmsis_gcc.h **** 
 118:/usr/local/lib/ARM/CMSIS/5.4.0/CMSIS/Core/Include/cmsis_gcc.h **** /* ###########################  Core Function Access  ########################### */
 119:/usr/local/lib/ARM/CMSIS/5.4.0/CMSIS/Core/Include/cmsis_gcc.h **** /** \ingroup  CMSIS_Core_FunctionInterface
 120:/usr/local/lib/ARM/CMSIS/5.4.0/CMSIS/Core/Include/cmsis_gcc.h ****     \defgroup CMSIS_Core_RegAccFunctions CMSIS Core Register Access Functions
 121:/usr/local/lib/ARM/CMSIS/5.4.0/CMSIS/Core/Include/cmsis_gcc.h ****   @{
 122:/usr/local/lib/ARM/CMSIS/5.4.0/CMSIS/Core/Include/cmsis_gcc.h ****  */
 123:/usr/local/lib/ARM/CMSIS/5.4.0/CMSIS/Core/Include/cmsis_gcc.h **** 
 124:/usr/local/lib/ARM/CMSIS/5.4.0/CMSIS/Core/Include/cmsis_gcc.h **** /**
 125:/usr/local/lib/ARM/CMSIS/5.4.0/CMSIS/Core/Include/cmsis_gcc.h ****   \brief   Enable IRQ Interrupts
 126:/usr/local/lib/ARM/CMSIS/5.4.0/CMSIS/Core/Include/cmsis_gcc.h ****   \details Enables IRQ interrupts by clearing the I-bit in the CPSR.
 127:/usr/local/lib/ARM/CMSIS/5.4.0/CMSIS/Core/Include/cmsis_gcc.h ****            Can only be executed in Privileged modes.
 128:/usr/local/lib/ARM/CMSIS/5.4.0/CMSIS/Core/Include/cmsis_gcc.h ****  */
 129:/usr/local/lib/ARM/CMSIS/5.4.0/CMSIS/Core/Include/cmsis_gcc.h **** __STATIC_FORCEINLINE void __enable_irq(void)
 130:/usr/local/lib/ARM/CMSIS/5.4.0/CMSIS/Core/Include/cmsis_gcc.h **** {
 131:/usr/local/lib/ARM/CMSIS/5.4.0/CMSIS/Core/Include/cmsis_gcc.h ****   __ASM volatile ("cpsie i" : : : "memory");
 132:/usr/local/lib/ARM/CMSIS/5.4.0/CMSIS/Core/Include/cmsis_gcc.h **** }
 133:/usr/local/lib/ARM/CMSIS/5.4.0/CMSIS/Core/Include/cmsis_gcc.h **** 
 134:/usr/local/lib/ARM/CMSIS/5.4.0/CMSIS/Core/Include/cmsis_gcc.h **** 
 135:/usr/local/lib/ARM/CMSIS/5.4.0/CMSIS/Core/Include/cmsis_gcc.h **** /**
 136:/usr/local/lib/ARM/CMSIS/5.4.0/CMSIS/Core/Include/cmsis_gcc.h ****   \brief   Disable IRQ Interrupts
 137:/usr/local/lib/ARM/CMSIS/5.4.0/CMSIS/Core/Include/cmsis_gcc.h ****   \details Disables IRQ interrupts by setting the I-bit in the CPSR.
 138:/usr/local/lib/ARM/CMSIS/5.4.0/CMSIS/Core/Include/cmsis_gcc.h ****            Can only be executed in Privileged modes.
 139:/usr/local/lib/ARM/CMSIS/5.4.0/CMSIS/Core/Include/cmsis_gcc.h ****  */
 140:/usr/local/lib/ARM/CMSIS/5.4.0/CMSIS/Core/Include/cmsis_gcc.h **** __STATIC_FORCEINLINE void __disable_irq(void)
 141:/usr/local/lib/ARM/CMSIS/5.4.0/CMSIS/Core/Include/cmsis_gcc.h **** {
 142:/usr/local/lib/ARM/CMSIS/5.4.0/CMSIS/Core/Include/cmsis_gcc.h ****   __ASM volatile ("cpsid i" : : : "memory");
 143:/usr/local/lib/ARM/CMSIS/5.4.0/CMSIS/Core/Include/cmsis_gcc.h **** }
 144:/usr/local/lib/ARM/CMSIS/5.4.0/CMSIS/Core/Include/cmsis_gcc.h **** 
 145:/usr/local/lib/ARM/CMSIS/5.4.0/CMSIS/Core/Include/cmsis_gcc.h **** 
 146:/usr/local/lib/ARM/CMSIS/5.4.0/CMSIS/Core/Include/cmsis_gcc.h **** /**
 147:/usr/local/lib/ARM/CMSIS/5.4.0/CMSIS/Core/Include/cmsis_gcc.h ****   \brief   Get Control Register
 148:/usr/local/lib/ARM/CMSIS/5.4.0/CMSIS/Core/Include/cmsis_gcc.h ****   \details Returns the content of the Control Register.
 149:/usr/local/lib/ARM/CMSIS/5.4.0/CMSIS/Core/Include/cmsis_gcc.h ****   \return               Control Register value
 150:/usr/local/lib/ARM/CMSIS/5.4.0/CMSIS/Core/Include/cmsis_gcc.h ****  */
ARM GAS  /tmp/ccOyeoN6.s 			page 18


 151:/usr/local/lib/ARM/CMSIS/5.4.0/CMSIS/Core/Include/cmsis_gcc.h **** __STATIC_FORCEINLINE uint32_t __get_CONTROL(void)
 152:/usr/local/lib/ARM/CMSIS/5.4.0/CMSIS/Core/Include/cmsis_gcc.h **** {
 153:/usr/local/lib/ARM/CMSIS/5.4.0/CMSIS/Core/Include/cmsis_gcc.h ****   uint32_t result;
 154:/usr/local/lib/ARM/CMSIS/5.4.0/CMSIS/Core/Include/cmsis_gcc.h **** 
 155:/usr/local/lib/ARM/CMSIS/5.4.0/CMSIS/Core/Include/cmsis_gcc.h ****   __ASM volatile ("MRS %0, control" : "=r" (result) );
 156:/usr/local/lib/ARM/CMSIS/5.4.0/CMSIS/Core/Include/cmsis_gcc.h ****   return(result);
 157:/usr/local/lib/ARM/CMSIS/5.4.0/CMSIS/Core/Include/cmsis_gcc.h **** }
 158:/usr/local/lib/ARM/CMSIS/5.4.0/CMSIS/Core/Include/cmsis_gcc.h **** 
 159:/usr/local/lib/ARM/CMSIS/5.4.0/CMSIS/Core/Include/cmsis_gcc.h **** 
 160:/usr/local/lib/ARM/CMSIS/5.4.0/CMSIS/Core/Include/cmsis_gcc.h **** #if (defined (__ARM_FEATURE_CMSE ) && (__ARM_FEATURE_CMSE == 3))
 161:/usr/local/lib/ARM/CMSIS/5.4.0/CMSIS/Core/Include/cmsis_gcc.h **** /**
 162:/usr/local/lib/ARM/CMSIS/5.4.0/CMSIS/Core/Include/cmsis_gcc.h ****   \brief   Get Control Register (non-secure)
 163:/usr/local/lib/ARM/CMSIS/5.4.0/CMSIS/Core/Include/cmsis_gcc.h ****   \details Returns the content of the non-secure Control Register when in secure mode.
 164:/usr/local/lib/ARM/CMSIS/5.4.0/CMSIS/Core/Include/cmsis_gcc.h ****   \return               non-secure Control Register value
 165:/usr/local/lib/ARM/CMSIS/5.4.0/CMSIS/Core/Include/cmsis_gcc.h ****  */
 166:/usr/local/lib/ARM/CMSIS/5.4.0/CMSIS/Core/Include/cmsis_gcc.h **** __STATIC_FORCEINLINE uint32_t __TZ_get_CONTROL_NS(void)
 167:/usr/local/lib/ARM/CMSIS/5.4.0/CMSIS/Core/Include/cmsis_gcc.h **** {
 168:/usr/local/lib/ARM/CMSIS/5.4.0/CMSIS/Core/Include/cmsis_gcc.h ****   uint32_t result;
 169:/usr/local/lib/ARM/CMSIS/5.4.0/CMSIS/Core/Include/cmsis_gcc.h **** 
 170:/usr/local/lib/ARM/CMSIS/5.4.0/CMSIS/Core/Include/cmsis_gcc.h ****   __ASM volatile ("MRS %0, control_ns" : "=r" (result) );
 171:/usr/local/lib/ARM/CMSIS/5.4.0/CMSIS/Core/Include/cmsis_gcc.h ****   return(result);
 172:/usr/local/lib/ARM/CMSIS/5.4.0/CMSIS/Core/Include/cmsis_gcc.h **** }
 173:/usr/local/lib/ARM/CMSIS/5.4.0/CMSIS/Core/Include/cmsis_gcc.h **** #endif
 174:/usr/local/lib/ARM/CMSIS/5.4.0/CMSIS/Core/Include/cmsis_gcc.h **** 
 175:/usr/local/lib/ARM/CMSIS/5.4.0/CMSIS/Core/Include/cmsis_gcc.h **** 
 176:/usr/local/lib/ARM/CMSIS/5.4.0/CMSIS/Core/Include/cmsis_gcc.h **** /**
 177:/usr/local/lib/ARM/CMSIS/5.4.0/CMSIS/Core/Include/cmsis_gcc.h ****   \brief   Set Control Register
 178:/usr/local/lib/ARM/CMSIS/5.4.0/CMSIS/Core/Include/cmsis_gcc.h ****   \details Writes the given value to the Control Register.
 179:/usr/local/lib/ARM/CMSIS/5.4.0/CMSIS/Core/Include/cmsis_gcc.h ****   \param [in]    control  Control Register value to set
 180:/usr/local/lib/ARM/CMSIS/5.4.0/CMSIS/Core/Include/cmsis_gcc.h ****  */
 181:/usr/local/lib/ARM/CMSIS/5.4.0/CMSIS/Core/Include/cmsis_gcc.h **** __STATIC_FORCEINLINE void __set_CONTROL(uint32_t control)
 182:/usr/local/lib/ARM/CMSIS/5.4.0/CMSIS/Core/Include/cmsis_gcc.h **** {
 183:/usr/local/lib/ARM/CMSIS/5.4.0/CMSIS/Core/Include/cmsis_gcc.h ****   __ASM volatile ("MSR control, %0" : : "r" (control) : "memory");
 184:/usr/local/lib/ARM/CMSIS/5.4.0/CMSIS/Core/Include/cmsis_gcc.h **** }
 185:/usr/local/lib/ARM/CMSIS/5.4.0/CMSIS/Core/Include/cmsis_gcc.h **** 
 186:/usr/local/lib/ARM/CMSIS/5.4.0/CMSIS/Core/Include/cmsis_gcc.h **** 
 187:/usr/local/lib/ARM/CMSIS/5.4.0/CMSIS/Core/Include/cmsis_gcc.h **** #if (defined (__ARM_FEATURE_CMSE ) && (__ARM_FEATURE_CMSE == 3))
 188:/usr/local/lib/ARM/CMSIS/5.4.0/CMSIS/Core/Include/cmsis_gcc.h **** /**
 189:/usr/local/lib/ARM/CMSIS/5.4.0/CMSIS/Core/Include/cmsis_gcc.h ****   \brief   Set Control Register (non-secure)
 190:/usr/local/lib/ARM/CMSIS/5.4.0/CMSIS/Core/Include/cmsis_gcc.h ****   \details Writes the given value to the non-secure Control Register when in secure state.
 191:/usr/local/lib/ARM/CMSIS/5.4.0/CMSIS/Core/Include/cmsis_gcc.h ****   \param [in]    control  Control Register value to set
 192:/usr/local/lib/ARM/CMSIS/5.4.0/CMSIS/Core/Include/cmsis_gcc.h ****  */
 193:/usr/local/lib/ARM/CMSIS/5.4.0/CMSIS/Core/Include/cmsis_gcc.h **** __STATIC_FORCEINLINE void __TZ_set_CONTROL_NS(uint32_t control)
 194:/usr/local/lib/ARM/CMSIS/5.4.0/CMSIS/Core/Include/cmsis_gcc.h **** {
 195:/usr/local/lib/ARM/CMSIS/5.4.0/CMSIS/Core/Include/cmsis_gcc.h ****   __ASM volatile ("MSR control_ns, %0" : : "r" (control) : "memory");
 196:/usr/local/lib/ARM/CMSIS/5.4.0/CMSIS/Core/Include/cmsis_gcc.h **** }
 197:/usr/local/lib/ARM/CMSIS/5.4.0/CMSIS/Core/Include/cmsis_gcc.h **** #endif
 198:/usr/local/lib/ARM/CMSIS/5.4.0/CMSIS/Core/Include/cmsis_gcc.h **** 
 199:/usr/local/lib/ARM/CMSIS/5.4.0/CMSIS/Core/Include/cmsis_gcc.h **** 
 200:/usr/local/lib/ARM/CMSIS/5.4.0/CMSIS/Core/Include/cmsis_gcc.h **** /**
 201:/usr/local/lib/ARM/CMSIS/5.4.0/CMSIS/Core/Include/cmsis_gcc.h ****   \brief   Get IPSR Register
 202:/usr/local/lib/ARM/CMSIS/5.4.0/CMSIS/Core/Include/cmsis_gcc.h ****   \details Returns the content of the IPSR Register.
 203:/usr/local/lib/ARM/CMSIS/5.4.0/CMSIS/Core/Include/cmsis_gcc.h ****   \return               IPSR Register value
 204:/usr/local/lib/ARM/CMSIS/5.4.0/CMSIS/Core/Include/cmsis_gcc.h ****  */
 205:/usr/local/lib/ARM/CMSIS/5.4.0/CMSIS/Core/Include/cmsis_gcc.h **** __STATIC_FORCEINLINE uint32_t __get_IPSR(void)
 206:/usr/local/lib/ARM/CMSIS/5.4.0/CMSIS/Core/Include/cmsis_gcc.h **** {
 207:/usr/local/lib/ARM/CMSIS/5.4.0/CMSIS/Core/Include/cmsis_gcc.h ****   uint32_t result;
ARM GAS  /tmp/ccOyeoN6.s 			page 19


 208:/usr/local/lib/ARM/CMSIS/5.4.0/CMSIS/Core/Include/cmsis_gcc.h **** 
 209:/usr/local/lib/ARM/CMSIS/5.4.0/CMSIS/Core/Include/cmsis_gcc.h ****   __ASM volatile ("MRS %0, ipsr" : "=r" (result) );
 210:/usr/local/lib/ARM/CMSIS/5.4.0/CMSIS/Core/Include/cmsis_gcc.h ****   return(result);
 211:/usr/local/lib/ARM/CMSIS/5.4.0/CMSIS/Core/Include/cmsis_gcc.h **** }
 212:/usr/local/lib/ARM/CMSIS/5.4.0/CMSIS/Core/Include/cmsis_gcc.h **** 
 213:/usr/local/lib/ARM/CMSIS/5.4.0/CMSIS/Core/Include/cmsis_gcc.h **** 
 214:/usr/local/lib/ARM/CMSIS/5.4.0/CMSIS/Core/Include/cmsis_gcc.h **** /**
 215:/usr/local/lib/ARM/CMSIS/5.4.0/CMSIS/Core/Include/cmsis_gcc.h ****   \brief   Get APSR Register
 216:/usr/local/lib/ARM/CMSIS/5.4.0/CMSIS/Core/Include/cmsis_gcc.h ****   \details Returns the content of the APSR Register.
 217:/usr/local/lib/ARM/CMSIS/5.4.0/CMSIS/Core/Include/cmsis_gcc.h ****   \return               APSR Register value
 218:/usr/local/lib/ARM/CMSIS/5.4.0/CMSIS/Core/Include/cmsis_gcc.h ****  */
 219:/usr/local/lib/ARM/CMSIS/5.4.0/CMSIS/Core/Include/cmsis_gcc.h **** __STATIC_FORCEINLINE uint32_t __get_APSR(void)
 220:/usr/local/lib/ARM/CMSIS/5.4.0/CMSIS/Core/Include/cmsis_gcc.h **** {
 221:/usr/local/lib/ARM/CMSIS/5.4.0/CMSIS/Core/Include/cmsis_gcc.h ****   uint32_t result;
 222:/usr/local/lib/ARM/CMSIS/5.4.0/CMSIS/Core/Include/cmsis_gcc.h **** 
 223:/usr/local/lib/ARM/CMSIS/5.4.0/CMSIS/Core/Include/cmsis_gcc.h ****   __ASM volatile ("MRS %0, apsr" : "=r" (result) );
 224:/usr/local/lib/ARM/CMSIS/5.4.0/CMSIS/Core/Include/cmsis_gcc.h ****   return(result);
 225:/usr/local/lib/ARM/CMSIS/5.4.0/CMSIS/Core/Include/cmsis_gcc.h **** }
 226:/usr/local/lib/ARM/CMSIS/5.4.0/CMSIS/Core/Include/cmsis_gcc.h **** 
 227:/usr/local/lib/ARM/CMSIS/5.4.0/CMSIS/Core/Include/cmsis_gcc.h **** 
 228:/usr/local/lib/ARM/CMSIS/5.4.0/CMSIS/Core/Include/cmsis_gcc.h **** /**
 229:/usr/local/lib/ARM/CMSIS/5.4.0/CMSIS/Core/Include/cmsis_gcc.h ****   \brief   Get xPSR Register
 230:/usr/local/lib/ARM/CMSIS/5.4.0/CMSIS/Core/Include/cmsis_gcc.h ****   \details Returns the content of the xPSR Register.
 231:/usr/local/lib/ARM/CMSIS/5.4.0/CMSIS/Core/Include/cmsis_gcc.h ****   \return               xPSR Register value
 232:/usr/local/lib/ARM/CMSIS/5.4.0/CMSIS/Core/Include/cmsis_gcc.h ****  */
 233:/usr/local/lib/ARM/CMSIS/5.4.0/CMSIS/Core/Include/cmsis_gcc.h **** __STATIC_FORCEINLINE uint32_t __get_xPSR(void)
 234:/usr/local/lib/ARM/CMSIS/5.4.0/CMSIS/Core/Include/cmsis_gcc.h **** {
 235:/usr/local/lib/ARM/CMSIS/5.4.0/CMSIS/Core/Include/cmsis_gcc.h ****   uint32_t result;
 236:/usr/local/lib/ARM/CMSIS/5.4.0/CMSIS/Core/Include/cmsis_gcc.h **** 
 237:/usr/local/lib/ARM/CMSIS/5.4.0/CMSIS/Core/Include/cmsis_gcc.h ****   __ASM volatile ("MRS %0, xpsr" : "=r" (result) );
 238:/usr/local/lib/ARM/CMSIS/5.4.0/CMSIS/Core/Include/cmsis_gcc.h ****   return(result);
 239:/usr/local/lib/ARM/CMSIS/5.4.0/CMSIS/Core/Include/cmsis_gcc.h **** }
 240:/usr/local/lib/ARM/CMSIS/5.4.0/CMSIS/Core/Include/cmsis_gcc.h **** 
 241:/usr/local/lib/ARM/CMSIS/5.4.0/CMSIS/Core/Include/cmsis_gcc.h **** 
 242:/usr/local/lib/ARM/CMSIS/5.4.0/CMSIS/Core/Include/cmsis_gcc.h **** /**
 243:/usr/local/lib/ARM/CMSIS/5.4.0/CMSIS/Core/Include/cmsis_gcc.h ****   \brief   Get Process Stack Pointer
 244:/usr/local/lib/ARM/CMSIS/5.4.0/CMSIS/Core/Include/cmsis_gcc.h ****   \details Returns the current value of the Process Stack Pointer (PSP).
 245:/usr/local/lib/ARM/CMSIS/5.4.0/CMSIS/Core/Include/cmsis_gcc.h ****   \return               PSP Register value
 246:/usr/local/lib/ARM/CMSIS/5.4.0/CMSIS/Core/Include/cmsis_gcc.h ****  */
 247:/usr/local/lib/ARM/CMSIS/5.4.0/CMSIS/Core/Include/cmsis_gcc.h **** __STATIC_FORCEINLINE uint32_t __get_PSP(void)
 248:/usr/local/lib/ARM/CMSIS/5.4.0/CMSIS/Core/Include/cmsis_gcc.h **** {
 249:/usr/local/lib/ARM/CMSIS/5.4.0/CMSIS/Core/Include/cmsis_gcc.h ****   uint32_t result;
 250:/usr/local/lib/ARM/CMSIS/5.4.0/CMSIS/Core/Include/cmsis_gcc.h **** 
 251:/usr/local/lib/ARM/CMSIS/5.4.0/CMSIS/Core/Include/cmsis_gcc.h ****   __ASM volatile ("MRS %0, psp"  : "=r" (result) );
 252:/usr/local/lib/ARM/CMSIS/5.4.0/CMSIS/Core/Include/cmsis_gcc.h ****   return(result);
 253:/usr/local/lib/ARM/CMSIS/5.4.0/CMSIS/Core/Include/cmsis_gcc.h **** }
 254:/usr/local/lib/ARM/CMSIS/5.4.0/CMSIS/Core/Include/cmsis_gcc.h **** 
 255:/usr/local/lib/ARM/CMSIS/5.4.0/CMSIS/Core/Include/cmsis_gcc.h **** 
 256:/usr/local/lib/ARM/CMSIS/5.4.0/CMSIS/Core/Include/cmsis_gcc.h **** #if (defined (__ARM_FEATURE_CMSE ) && (__ARM_FEATURE_CMSE == 3))
 257:/usr/local/lib/ARM/CMSIS/5.4.0/CMSIS/Core/Include/cmsis_gcc.h **** /**
 258:/usr/local/lib/ARM/CMSIS/5.4.0/CMSIS/Core/Include/cmsis_gcc.h ****   \brief   Get Process Stack Pointer (non-secure)
 259:/usr/local/lib/ARM/CMSIS/5.4.0/CMSIS/Core/Include/cmsis_gcc.h ****   \details Returns the current value of the non-secure Process Stack Pointer (PSP) when in secure s
 260:/usr/local/lib/ARM/CMSIS/5.4.0/CMSIS/Core/Include/cmsis_gcc.h ****   \return               PSP Register value
 261:/usr/local/lib/ARM/CMSIS/5.4.0/CMSIS/Core/Include/cmsis_gcc.h ****  */
 262:/usr/local/lib/ARM/CMSIS/5.4.0/CMSIS/Core/Include/cmsis_gcc.h **** __STATIC_FORCEINLINE uint32_t __TZ_get_PSP_NS(void)
 263:/usr/local/lib/ARM/CMSIS/5.4.0/CMSIS/Core/Include/cmsis_gcc.h **** {
 264:/usr/local/lib/ARM/CMSIS/5.4.0/CMSIS/Core/Include/cmsis_gcc.h ****   uint32_t result;
ARM GAS  /tmp/ccOyeoN6.s 			page 20


 265:/usr/local/lib/ARM/CMSIS/5.4.0/CMSIS/Core/Include/cmsis_gcc.h **** 
 266:/usr/local/lib/ARM/CMSIS/5.4.0/CMSIS/Core/Include/cmsis_gcc.h ****   __ASM volatile ("MRS %0, psp_ns"  : "=r" (result) );
 267:/usr/local/lib/ARM/CMSIS/5.4.0/CMSIS/Core/Include/cmsis_gcc.h ****   return(result);
 268:/usr/local/lib/ARM/CMSIS/5.4.0/CMSIS/Core/Include/cmsis_gcc.h **** }
 269:/usr/local/lib/ARM/CMSIS/5.4.0/CMSIS/Core/Include/cmsis_gcc.h **** #endif
 270:/usr/local/lib/ARM/CMSIS/5.4.0/CMSIS/Core/Include/cmsis_gcc.h **** 
 271:/usr/local/lib/ARM/CMSIS/5.4.0/CMSIS/Core/Include/cmsis_gcc.h **** 
 272:/usr/local/lib/ARM/CMSIS/5.4.0/CMSIS/Core/Include/cmsis_gcc.h **** /**
 273:/usr/local/lib/ARM/CMSIS/5.4.0/CMSIS/Core/Include/cmsis_gcc.h ****   \brief   Set Process Stack Pointer
 274:/usr/local/lib/ARM/CMSIS/5.4.0/CMSIS/Core/Include/cmsis_gcc.h ****   \details Assigns the given value to the Process Stack Pointer (PSP).
 275:/usr/local/lib/ARM/CMSIS/5.4.0/CMSIS/Core/Include/cmsis_gcc.h ****   \param [in]    topOfProcStack  Process Stack Pointer value to set
 276:/usr/local/lib/ARM/CMSIS/5.4.0/CMSIS/Core/Include/cmsis_gcc.h ****  */
 277:/usr/local/lib/ARM/CMSIS/5.4.0/CMSIS/Core/Include/cmsis_gcc.h **** __STATIC_FORCEINLINE void __set_PSP(uint32_t topOfProcStack)
 278:/usr/local/lib/ARM/CMSIS/5.4.0/CMSIS/Core/Include/cmsis_gcc.h **** {
 279:/usr/local/lib/ARM/CMSIS/5.4.0/CMSIS/Core/Include/cmsis_gcc.h ****   __ASM volatile ("MSR psp, %0" : : "r" (topOfProcStack) : );
 280:/usr/local/lib/ARM/CMSIS/5.4.0/CMSIS/Core/Include/cmsis_gcc.h **** }
 281:/usr/local/lib/ARM/CMSIS/5.4.0/CMSIS/Core/Include/cmsis_gcc.h **** 
 282:/usr/local/lib/ARM/CMSIS/5.4.0/CMSIS/Core/Include/cmsis_gcc.h **** 
 283:/usr/local/lib/ARM/CMSIS/5.4.0/CMSIS/Core/Include/cmsis_gcc.h **** #if (defined (__ARM_FEATURE_CMSE ) && (__ARM_FEATURE_CMSE == 3))
 284:/usr/local/lib/ARM/CMSIS/5.4.0/CMSIS/Core/Include/cmsis_gcc.h **** /**
 285:/usr/local/lib/ARM/CMSIS/5.4.0/CMSIS/Core/Include/cmsis_gcc.h ****   \brief   Set Process Stack Pointer (non-secure)
 286:/usr/local/lib/ARM/CMSIS/5.4.0/CMSIS/Core/Include/cmsis_gcc.h ****   \details Assigns the given value to the non-secure Process Stack Pointer (PSP) when in secure sta
 287:/usr/local/lib/ARM/CMSIS/5.4.0/CMSIS/Core/Include/cmsis_gcc.h ****   \param [in]    topOfProcStack  Process Stack Pointer value to set
 288:/usr/local/lib/ARM/CMSIS/5.4.0/CMSIS/Core/Include/cmsis_gcc.h ****  */
 289:/usr/local/lib/ARM/CMSIS/5.4.0/CMSIS/Core/Include/cmsis_gcc.h **** __STATIC_FORCEINLINE void __TZ_set_PSP_NS(uint32_t topOfProcStack)
 290:/usr/local/lib/ARM/CMSIS/5.4.0/CMSIS/Core/Include/cmsis_gcc.h **** {
 291:/usr/local/lib/ARM/CMSIS/5.4.0/CMSIS/Core/Include/cmsis_gcc.h ****   __ASM volatile ("MSR psp_ns, %0" : : "r" (topOfProcStack) : );
 292:/usr/local/lib/ARM/CMSIS/5.4.0/CMSIS/Core/Include/cmsis_gcc.h **** }
 293:/usr/local/lib/ARM/CMSIS/5.4.0/CMSIS/Core/Include/cmsis_gcc.h **** #endif
 294:/usr/local/lib/ARM/CMSIS/5.4.0/CMSIS/Core/Include/cmsis_gcc.h **** 
 295:/usr/local/lib/ARM/CMSIS/5.4.0/CMSIS/Core/Include/cmsis_gcc.h **** 
 296:/usr/local/lib/ARM/CMSIS/5.4.0/CMSIS/Core/Include/cmsis_gcc.h **** /**
 297:/usr/local/lib/ARM/CMSIS/5.4.0/CMSIS/Core/Include/cmsis_gcc.h ****   \brief   Get Main Stack Pointer
 298:/usr/local/lib/ARM/CMSIS/5.4.0/CMSIS/Core/Include/cmsis_gcc.h ****   \details Returns the current value of the Main Stack Pointer (MSP).
 299:/usr/local/lib/ARM/CMSIS/5.4.0/CMSIS/Core/Include/cmsis_gcc.h ****   \return               MSP Register value
 300:/usr/local/lib/ARM/CMSIS/5.4.0/CMSIS/Core/Include/cmsis_gcc.h ****  */
 301:/usr/local/lib/ARM/CMSIS/5.4.0/CMSIS/Core/Include/cmsis_gcc.h **** __STATIC_FORCEINLINE uint32_t __get_MSP(void)
 302:/usr/local/lib/ARM/CMSIS/5.4.0/CMSIS/Core/Include/cmsis_gcc.h **** {
 303:/usr/local/lib/ARM/CMSIS/5.4.0/CMSIS/Core/Include/cmsis_gcc.h ****   uint32_t result;
 304:/usr/local/lib/ARM/CMSIS/5.4.0/CMSIS/Core/Include/cmsis_gcc.h **** 
 305:/usr/local/lib/ARM/CMSIS/5.4.0/CMSIS/Core/Include/cmsis_gcc.h ****   __ASM volatile ("MRS %0, msp" : "=r" (result) );
 306:/usr/local/lib/ARM/CMSIS/5.4.0/CMSIS/Core/Include/cmsis_gcc.h ****   return(result);
 307:/usr/local/lib/ARM/CMSIS/5.4.0/CMSIS/Core/Include/cmsis_gcc.h **** }
 308:/usr/local/lib/ARM/CMSIS/5.4.0/CMSIS/Core/Include/cmsis_gcc.h **** 
 309:/usr/local/lib/ARM/CMSIS/5.4.0/CMSIS/Core/Include/cmsis_gcc.h **** 
 310:/usr/local/lib/ARM/CMSIS/5.4.0/CMSIS/Core/Include/cmsis_gcc.h **** #if (defined (__ARM_FEATURE_CMSE ) && (__ARM_FEATURE_CMSE == 3))
 311:/usr/local/lib/ARM/CMSIS/5.4.0/CMSIS/Core/Include/cmsis_gcc.h **** /**
 312:/usr/local/lib/ARM/CMSIS/5.4.0/CMSIS/Core/Include/cmsis_gcc.h ****   \brief   Get Main Stack Pointer (non-secure)
 313:/usr/local/lib/ARM/CMSIS/5.4.0/CMSIS/Core/Include/cmsis_gcc.h ****   \details Returns the current value of the non-secure Main Stack Pointer (MSP) when in secure stat
 314:/usr/local/lib/ARM/CMSIS/5.4.0/CMSIS/Core/Include/cmsis_gcc.h ****   \return               MSP Register value
 315:/usr/local/lib/ARM/CMSIS/5.4.0/CMSIS/Core/Include/cmsis_gcc.h ****  */
 316:/usr/local/lib/ARM/CMSIS/5.4.0/CMSIS/Core/Include/cmsis_gcc.h **** __STATIC_FORCEINLINE uint32_t __TZ_get_MSP_NS(void)
 317:/usr/local/lib/ARM/CMSIS/5.4.0/CMSIS/Core/Include/cmsis_gcc.h **** {
 318:/usr/local/lib/ARM/CMSIS/5.4.0/CMSIS/Core/Include/cmsis_gcc.h ****   uint32_t result;
 319:/usr/local/lib/ARM/CMSIS/5.4.0/CMSIS/Core/Include/cmsis_gcc.h **** 
 320:/usr/local/lib/ARM/CMSIS/5.4.0/CMSIS/Core/Include/cmsis_gcc.h ****   __ASM volatile ("MRS %0, msp_ns" : "=r" (result) );
 321:/usr/local/lib/ARM/CMSIS/5.4.0/CMSIS/Core/Include/cmsis_gcc.h ****   return(result);
ARM GAS  /tmp/ccOyeoN6.s 			page 21


 322:/usr/local/lib/ARM/CMSIS/5.4.0/CMSIS/Core/Include/cmsis_gcc.h **** }
 323:/usr/local/lib/ARM/CMSIS/5.4.0/CMSIS/Core/Include/cmsis_gcc.h **** #endif
 324:/usr/local/lib/ARM/CMSIS/5.4.0/CMSIS/Core/Include/cmsis_gcc.h **** 
 325:/usr/local/lib/ARM/CMSIS/5.4.0/CMSIS/Core/Include/cmsis_gcc.h **** 
 326:/usr/local/lib/ARM/CMSIS/5.4.0/CMSIS/Core/Include/cmsis_gcc.h **** /**
 327:/usr/local/lib/ARM/CMSIS/5.4.0/CMSIS/Core/Include/cmsis_gcc.h ****   \brief   Set Main Stack Pointer
 328:/usr/local/lib/ARM/CMSIS/5.4.0/CMSIS/Core/Include/cmsis_gcc.h ****   \details Assigns the given value to the Main Stack Pointer (MSP).
 329:/usr/local/lib/ARM/CMSIS/5.4.0/CMSIS/Core/Include/cmsis_gcc.h ****   \param [in]    topOfMainStack  Main Stack Pointer value to set
 330:/usr/local/lib/ARM/CMSIS/5.4.0/CMSIS/Core/Include/cmsis_gcc.h ****  */
 331:/usr/local/lib/ARM/CMSIS/5.4.0/CMSIS/Core/Include/cmsis_gcc.h **** __STATIC_FORCEINLINE void __set_MSP(uint32_t topOfMainStack)
 332:/usr/local/lib/ARM/CMSIS/5.4.0/CMSIS/Core/Include/cmsis_gcc.h **** {
 333:/usr/local/lib/ARM/CMSIS/5.4.0/CMSIS/Core/Include/cmsis_gcc.h ****   __ASM volatile ("MSR msp, %0" : : "r" (topOfMainStack) : );
 334:/usr/local/lib/ARM/CMSIS/5.4.0/CMSIS/Core/Include/cmsis_gcc.h **** }
 335:/usr/local/lib/ARM/CMSIS/5.4.0/CMSIS/Core/Include/cmsis_gcc.h **** 
 336:/usr/local/lib/ARM/CMSIS/5.4.0/CMSIS/Core/Include/cmsis_gcc.h **** 
 337:/usr/local/lib/ARM/CMSIS/5.4.0/CMSIS/Core/Include/cmsis_gcc.h **** #if (defined (__ARM_FEATURE_CMSE ) && (__ARM_FEATURE_CMSE == 3))
 338:/usr/local/lib/ARM/CMSIS/5.4.0/CMSIS/Core/Include/cmsis_gcc.h **** /**
 339:/usr/local/lib/ARM/CMSIS/5.4.0/CMSIS/Core/Include/cmsis_gcc.h ****   \brief   Set Main Stack Pointer (non-secure)
 340:/usr/local/lib/ARM/CMSIS/5.4.0/CMSIS/Core/Include/cmsis_gcc.h ****   \details Assigns the given value to the non-secure Main Stack Pointer (MSP) when in secure state.
 341:/usr/local/lib/ARM/CMSIS/5.4.0/CMSIS/Core/Include/cmsis_gcc.h ****   \param [in]    topOfMainStack  Main Stack Pointer value to set
 342:/usr/local/lib/ARM/CMSIS/5.4.0/CMSIS/Core/Include/cmsis_gcc.h ****  */
 343:/usr/local/lib/ARM/CMSIS/5.4.0/CMSIS/Core/Include/cmsis_gcc.h **** __STATIC_FORCEINLINE void __TZ_set_MSP_NS(uint32_t topOfMainStack)
 344:/usr/local/lib/ARM/CMSIS/5.4.0/CMSIS/Core/Include/cmsis_gcc.h **** {
 345:/usr/local/lib/ARM/CMSIS/5.4.0/CMSIS/Core/Include/cmsis_gcc.h ****   __ASM volatile ("MSR msp_ns, %0" : : "r" (topOfMainStack) : );
 346:/usr/local/lib/ARM/CMSIS/5.4.0/CMSIS/Core/Include/cmsis_gcc.h **** }
 347:/usr/local/lib/ARM/CMSIS/5.4.0/CMSIS/Core/Include/cmsis_gcc.h **** #endif
 348:/usr/local/lib/ARM/CMSIS/5.4.0/CMSIS/Core/Include/cmsis_gcc.h **** 
 349:/usr/local/lib/ARM/CMSIS/5.4.0/CMSIS/Core/Include/cmsis_gcc.h **** 
 350:/usr/local/lib/ARM/CMSIS/5.4.0/CMSIS/Core/Include/cmsis_gcc.h **** #if (defined (__ARM_FEATURE_CMSE ) && (__ARM_FEATURE_CMSE == 3))
 351:/usr/local/lib/ARM/CMSIS/5.4.0/CMSIS/Core/Include/cmsis_gcc.h **** /**
 352:/usr/local/lib/ARM/CMSIS/5.4.0/CMSIS/Core/Include/cmsis_gcc.h ****   \brief   Get Stack Pointer (non-secure)
 353:/usr/local/lib/ARM/CMSIS/5.4.0/CMSIS/Core/Include/cmsis_gcc.h ****   \details Returns the current value of the non-secure Stack Pointer (SP) when in secure state.
 354:/usr/local/lib/ARM/CMSIS/5.4.0/CMSIS/Core/Include/cmsis_gcc.h ****   \return               SP Register value
 355:/usr/local/lib/ARM/CMSIS/5.4.0/CMSIS/Core/Include/cmsis_gcc.h ****  */
 356:/usr/local/lib/ARM/CMSIS/5.4.0/CMSIS/Core/Include/cmsis_gcc.h **** __STATIC_FORCEINLINE uint32_t __TZ_get_SP_NS(void)
 357:/usr/local/lib/ARM/CMSIS/5.4.0/CMSIS/Core/Include/cmsis_gcc.h **** {
 358:/usr/local/lib/ARM/CMSIS/5.4.0/CMSIS/Core/Include/cmsis_gcc.h ****   uint32_t result;
 359:/usr/local/lib/ARM/CMSIS/5.4.0/CMSIS/Core/Include/cmsis_gcc.h **** 
 360:/usr/local/lib/ARM/CMSIS/5.4.0/CMSIS/Core/Include/cmsis_gcc.h ****   __ASM volatile ("MRS %0, sp_ns" : "=r" (result) );
 361:/usr/local/lib/ARM/CMSIS/5.4.0/CMSIS/Core/Include/cmsis_gcc.h ****   return(result);
 362:/usr/local/lib/ARM/CMSIS/5.4.0/CMSIS/Core/Include/cmsis_gcc.h **** }
 363:/usr/local/lib/ARM/CMSIS/5.4.0/CMSIS/Core/Include/cmsis_gcc.h **** 
 364:/usr/local/lib/ARM/CMSIS/5.4.0/CMSIS/Core/Include/cmsis_gcc.h **** 
 365:/usr/local/lib/ARM/CMSIS/5.4.0/CMSIS/Core/Include/cmsis_gcc.h **** /**
 366:/usr/local/lib/ARM/CMSIS/5.4.0/CMSIS/Core/Include/cmsis_gcc.h ****   \brief   Set Stack Pointer (non-secure)
 367:/usr/local/lib/ARM/CMSIS/5.4.0/CMSIS/Core/Include/cmsis_gcc.h ****   \details Assigns the given value to the non-secure Stack Pointer (SP) when in secure state.
 368:/usr/local/lib/ARM/CMSIS/5.4.0/CMSIS/Core/Include/cmsis_gcc.h ****   \param [in]    topOfStack  Stack Pointer value to set
 369:/usr/local/lib/ARM/CMSIS/5.4.0/CMSIS/Core/Include/cmsis_gcc.h ****  */
 370:/usr/local/lib/ARM/CMSIS/5.4.0/CMSIS/Core/Include/cmsis_gcc.h **** __STATIC_FORCEINLINE void __TZ_set_SP_NS(uint32_t topOfStack)
 371:/usr/local/lib/ARM/CMSIS/5.4.0/CMSIS/Core/Include/cmsis_gcc.h **** {
 372:/usr/local/lib/ARM/CMSIS/5.4.0/CMSIS/Core/Include/cmsis_gcc.h ****   __ASM volatile ("MSR sp_ns, %0" : : "r" (topOfStack) : );
 373:/usr/local/lib/ARM/CMSIS/5.4.0/CMSIS/Core/Include/cmsis_gcc.h **** }
 374:/usr/local/lib/ARM/CMSIS/5.4.0/CMSIS/Core/Include/cmsis_gcc.h **** #endif
 375:/usr/local/lib/ARM/CMSIS/5.4.0/CMSIS/Core/Include/cmsis_gcc.h **** 
 376:/usr/local/lib/ARM/CMSIS/5.4.0/CMSIS/Core/Include/cmsis_gcc.h **** 
 377:/usr/local/lib/ARM/CMSIS/5.4.0/CMSIS/Core/Include/cmsis_gcc.h **** /**
 378:/usr/local/lib/ARM/CMSIS/5.4.0/CMSIS/Core/Include/cmsis_gcc.h ****   \brief   Get Priority Mask
ARM GAS  /tmp/ccOyeoN6.s 			page 22


 379:/usr/local/lib/ARM/CMSIS/5.4.0/CMSIS/Core/Include/cmsis_gcc.h ****   \details Returns the current state of the priority mask bit from the Priority Mask Register.
 380:/usr/local/lib/ARM/CMSIS/5.4.0/CMSIS/Core/Include/cmsis_gcc.h ****   \return               Priority Mask value
 381:/usr/local/lib/ARM/CMSIS/5.4.0/CMSIS/Core/Include/cmsis_gcc.h ****  */
 382:/usr/local/lib/ARM/CMSIS/5.4.0/CMSIS/Core/Include/cmsis_gcc.h **** __STATIC_FORCEINLINE uint32_t __get_PRIMASK(void)
 383:/usr/local/lib/ARM/CMSIS/5.4.0/CMSIS/Core/Include/cmsis_gcc.h **** {
 384:/usr/local/lib/ARM/CMSIS/5.4.0/CMSIS/Core/Include/cmsis_gcc.h ****   uint32_t result;
 385:/usr/local/lib/ARM/CMSIS/5.4.0/CMSIS/Core/Include/cmsis_gcc.h **** 
 386:/usr/local/lib/ARM/CMSIS/5.4.0/CMSIS/Core/Include/cmsis_gcc.h ****   __ASM volatile ("MRS %0, primask" : "=r" (result) :: "memory");
 387:/usr/local/lib/ARM/CMSIS/5.4.0/CMSIS/Core/Include/cmsis_gcc.h ****   return(result);
 388:/usr/local/lib/ARM/CMSIS/5.4.0/CMSIS/Core/Include/cmsis_gcc.h **** }
 389:/usr/local/lib/ARM/CMSIS/5.4.0/CMSIS/Core/Include/cmsis_gcc.h **** 
 390:/usr/local/lib/ARM/CMSIS/5.4.0/CMSIS/Core/Include/cmsis_gcc.h **** 
 391:/usr/local/lib/ARM/CMSIS/5.4.0/CMSIS/Core/Include/cmsis_gcc.h **** #if (defined (__ARM_FEATURE_CMSE ) && (__ARM_FEATURE_CMSE == 3))
 392:/usr/local/lib/ARM/CMSIS/5.4.0/CMSIS/Core/Include/cmsis_gcc.h **** /**
 393:/usr/local/lib/ARM/CMSIS/5.4.0/CMSIS/Core/Include/cmsis_gcc.h ****   \brief   Get Priority Mask (non-secure)
 394:/usr/local/lib/ARM/CMSIS/5.4.0/CMSIS/Core/Include/cmsis_gcc.h ****   \details Returns the current state of the non-secure priority mask bit from the Priority Mask Reg
 395:/usr/local/lib/ARM/CMSIS/5.4.0/CMSIS/Core/Include/cmsis_gcc.h ****   \return               Priority Mask value
 396:/usr/local/lib/ARM/CMSIS/5.4.0/CMSIS/Core/Include/cmsis_gcc.h ****  */
 397:/usr/local/lib/ARM/CMSIS/5.4.0/CMSIS/Core/Include/cmsis_gcc.h **** __STATIC_FORCEINLINE uint32_t __TZ_get_PRIMASK_NS(void)
 398:/usr/local/lib/ARM/CMSIS/5.4.0/CMSIS/Core/Include/cmsis_gcc.h **** {
 399:/usr/local/lib/ARM/CMSIS/5.4.0/CMSIS/Core/Include/cmsis_gcc.h ****   uint32_t result;
 400:/usr/local/lib/ARM/CMSIS/5.4.0/CMSIS/Core/Include/cmsis_gcc.h **** 
 401:/usr/local/lib/ARM/CMSIS/5.4.0/CMSIS/Core/Include/cmsis_gcc.h ****   __ASM volatile ("MRS %0, primask_ns" : "=r" (result) :: "memory");
 402:/usr/local/lib/ARM/CMSIS/5.4.0/CMSIS/Core/Include/cmsis_gcc.h ****   return(result);
 403:/usr/local/lib/ARM/CMSIS/5.4.0/CMSIS/Core/Include/cmsis_gcc.h **** }
 404:/usr/local/lib/ARM/CMSIS/5.4.0/CMSIS/Core/Include/cmsis_gcc.h **** #endif
 405:/usr/local/lib/ARM/CMSIS/5.4.0/CMSIS/Core/Include/cmsis_gcc.h **** 
 406:/usr/local/lib/ARM/CMSIS/5.4.0/CMSIS/Core/Include/cmsis_gcc.h **** 
 407:/usr/local/lib/ARM/CMSIS/5.4.0/CMSIS/Core/Include/cmsis_gcc.h **** /**
 408:/usr/local/lib/ARM/CMSIS/5.4.0/CMSIS/Core/Include/cmsis_gcc.h ****   \brief   Set Priority Mask
 409:/usr/local/lib/ARM/CMSIS/5.4.0/CMSIS/Core/Include/cmsis_gcc.h ****   \details Assigns the given value to the Priority Mask Register.
 410:/usr/local/lib/ARM/CMSIS/5.4.0/CMSIS/Core/Include/cmsis_gcc.h ****   \param [in]    priMask  Priority Mask
 411:/usr/local/lib/ARM/CMSIS/5.4.0/CMSIS/Core/Include/cmsis_gcc.h ****  */
 412:/usr/local/lib/ARM/CMSIS/5.4.0/CMSIS/Core/Include/cmsis_gcc.h **** __STATIC_FORCEINLINE void __set_PRIMASK(uint32_t priMask)
 413:/usr/local/lib/ARM/CMSIS/5.4.0/CMSIS/Core/Include/cmsis_gcc.h **** {
 414:/usr/local/lib/ARM/CMSIS/5.4.0/CMSIS/Core/Include/cmsis_gcc.h ****   __ASM volatile ("MSR primask, %0" : : "r" (priMask) : "memory");
 415:/usr/local/lib/ARM/CMSIS/5.4.0/CMSIS/Core/Include/cmsis_gcc.h **** }
 416:/usr/local/lib/ARM/CMSIS/5.4.0/CMSIS/Core/Include/cmsis_gcc.h **** 
 417:/usr/local/lib/ARM/CMSIS/5.4.0/CMSIS/Core/Include/cmsis_gcc.h **** 
 418:/usr/local/lib/ARM/CMSIS/5.4.0/CMSIS/Core/Include/cmsis_gcc.h **** #if (defined (__ARM_FEATURE_CMSE ) && (__ARM_FEATURE_CMSE == 3))
 419:/usr/local/lib/ARM/CMSIS/5.4.0/CMSIS/Core/Include/cmsis_gcc.h **** /**
 420:/usr/local/lib/ARM/CMSIS/5.4.0/CMSIS/Core/Include/cmsis_gcc.h ****   \brief   Set Priority Mask (non-secure)
 421:/usr/local/lib/ARM/CMSIS/5.4.0/CMSIS/Core/Include/cmsis_gcc.h ****   \details Assigns the given value to the non-secure Priority Mask Register when in secure state.
 422:/usr/local/lib/ARM/CMSIS/5.4.0/CMSIS/Core/Include/cmsis_gcc.h ****   \param [in]    priMask  Priority Mask
 423:/usr/local/lib/ARM/CMSIS/5.4.0/CMSIS/Core/Include/cmsis_gcc.h ****  */
 424:/usr/local/lib/ARM/CMSIS/5.4.0/CMSIS/Core/Include/cmsis_gcc.h **** __STATIC_FORCEINLINE void __TZ_set_PRIMASK_NS(uint32_t priMask)
 425:/usr/local/lib/ARM/CMSIS/5.4.0/CMSIS/Core/Include/cmsis_gcc.h **** {
 426:/usr/local/lib/ARM/CMSIS/5.4.0/CMSIS/Core/Include/cmsis_gcc.h ****   __ASM volatile ("MSR primask_ns, %0" : : "r" (priMask) : "memory");
 427:/usr/local/lib/ARM/CMSIS/5.4.0/CMSIS/Core/Include/cmsis_gcc.h **** }
 428:/usr/local/lib/ARM/CMSIS/5.4.0/CMSIS/Core/Include/cmsis_gcc.h **** #endif
 429:/usr/local/lib/ARM/CMSIS/5.4.0/CMSIS/Core/Include/cmsis_gcc.h **** 
 430:/usr/local/lib/ARM/CMSIS/5.4.0/CMSIS/Core/Include/cmsis_gcc.h **** 
 431:/usr/local/lib/ARM/CMSIS/5.4.0/CMSIS/Core/Include/cmsis_gcc.h **** #if ((defined (__ARM_ARCH_7M__      ) && (__ARM_ARCH_7M__      == 1)) || \
 432:/usr/local/lib/ARM/CMSIS/5.4.0/CMSIS/Core/Include/cmsis_gcc.h ****      (defined (__ARM_ARCH_7EM__     ) && (__ARM_ARCH_7EM__     == 1)) || \
 433:/usr/local/lib/ARM/CMSIS/5.4.0/CMSIS/Core/Include/cmsis_gcc.h ****      (defined (__ARM_ARCH_8M_MAIN__ ) && (__ARM_ARCH_8M_MAIN__ == 1))    )
 434:/usr/local/lib/ARM/CMSIS/5.4.0/CMSIS/Core/Include/cmsis_gcc.h **** /**
 435:/usr/local/lib/ARM/CMSIS/5.4.0/CMSIS/Core/Include/cmsis_gcc.h ****   \brief   Enable FIQ
ARM GAS  /tmp/ccOyeoN6.s 			page 23


 436:/usr/local/lib/ARM/CMSIS/5.4.0/CMSIS/Core/Include/cmsis_gcc.h ****   \details Enables FIQ interrupts by clearing the F-bit in the CPSR.
 437:/usr/local/lib/ARM/CMSIS/5.4.0/CMSIS/Core/Include/cmsis_gcc.h ****            Can only be executed in Privileged modes.
 438:/usr/local/lib/ARM/CMSIS/5.4.0/CMSIS/Core/Include/cmsis_gcc.h ****  */
 439:/usr/local/lib/ARM/CMSIS/5.4.0/CMSIS/Core/Include/cmsis_gcc.h **** __STATIC_FORCEINLINE void __enable_fault_irq(void)
 440:/usr/local/lib/ARM/CMSIS/5.4.0/CMSIS/Core/Include/cmsis_gcc.h **** {
 441:/usr/local/lib/ARM/CMSIS/5.4.0/CMSIS/Core/Include/cmsis_gcc.h ****   __ASM volatile ("cpsie f" : : : "memory");
 442:/usr/local/lib/ARM/CMSIS/5.4.0/CMSIS/Core/Include/cmsis_gcc.h **** }
 443:/usr/local/lib/ARM/CMSIS/5.4.0/CMSIS/Core/Include/cmsis_gcc.h **** 
 444:/usr/local/lib/ARM/CMSIS/5.4.0/CMSIS/Core/Include/cmsis_gcc.h **** 
 445:/usr/local/lib/ARM/CMSIS/5.4.0/CMSIS/Core/Include/cmsis_gcc.h **** /**
 446:/usr/local/lib/ARM/CMSIS/5.4.0/CMSIS/Core/Include/cmsis_gcc.h ****   \brief   Disable FIQ
 447:/usr/local/lib/ARM/CMSIS/5.4.0/CMSIS/Core/Include/cmsis_gcc.h ****   \details Disables FIQ interrupts by setting the F-bit in the CPSR.
 448:/usr/local/lib/ARM/CMSIS/5.4.0/CMSIS/Core/Include/cmsis_gcc.h ****            Can only be executed in Privileged modes.
 449:/usr/local/lib/ARM/CMSIS/5.4.0/CMSIS/Core/Include/cmsis_gcc.h ****  */
 450:/usr/local/lib/ARM/CMSIS/5.4.0/CMSIS/Core/Include/cmsis_gcc.h **** __STATIC_FORCEINLINE void __disable_fault_irq(void)
 451:/usr/local/lib/ARM/CMSIS/5.4.0/CMSIS/Core/Include/cmsis_gcc.h **** {
 452:/usr/local/lib/ARM/CMSIS/5.4.0/CMSIS/Core/Include/cmsis_gcc.h ****   __ASM volatile ("cpsid f" : : : "memory");
 453:/usr/local/lib/ARM/CMSIS/5.4.0/CMSIS/Core/Include/cmsis_gcc.h **** }
 454:/usr/local/lib/ARM/CMSIS/5.4.0/CMSIS/Core/Include/cmsis_gcc.h **** 
 455:/usr/local/lib/ARM/CMSIS/5.4.0/CMSIS/Core/Include/cmsis_gcc.h **** 
 456:/usr/local/lib/ARM/CMSIS/5.4.0/CMSIS/Core/Include/cmsis_gcc.h **** /**
 457:/usr/local/lib/ARM/CMSIS/5.4.0/CMSIS/Core/Include/cmsis_gcc.h ****   \brief   Get Base Priority
 458:/usr/local/lib/ARM/CMSIS/5.4.0/CMSIS/Core/Include/cmsis_gcc.h ****   \details Returns the current value of the Base Priority register.
 459:/usr/local/lib/ARM/CMSIS/5.4.0/CMSIS/Core/Include/cmsis_gcc.h ****   \return               Base Priority register value
 460:/usr/local/lib/ARM/CMSIS/5.4.0/CMSIS/Core/Include/cmsis_gcc.h ****  */
 461:/usr/local/lib/ARM/CMSIS/5.4.0/CMSIS/Core/Include/cmsis_gcc.h **** __STATIC_FORCEINLINE uint32_t __get_BASEPRI(void)
 462:/usr/local/lib/ARM/CMSIS/5.4.0/CMSIS/Core/Include/cmsis_gcc.h **** {
 463:/usr/local/lib/ARM/CMSIS/5.4.0/CMSIS/Core/Include/cmsis_gcc.h ****   uint32_t result;
 464:/usr/local/lib/ARM/CMSIS/5.4.0/CMSIS/Core/Include/cmsis_gcc.h **** 
 465:/usr/local/lib/ARM/CMSIS/5.4.0/CMSIS/Core/Include/cmsis_gcc.h ****   __ASM volatile ("MRS %0, basepri" : "=r" (result) );
 466:/usr/local/lib/ARM/CMSIS/5.4.0/CMSIS/Core/Include/cmsis_gcc.h ****   return(result);
 467:/usr/local/lib/ARM/CMSIS/5.4.0/CMSIS/Core/Include/cmsis_gcc.h **** }
 468:/usr/local/lib/ARM/CMSIS/5.4.0/CMSIS/Core/Include/cmsis_gcc.h **** 
 469:/usr/local/lib/ARM/CMSIS/5.4.0/CMSIS/Core/Include/cmsis_gcc.h **** 
 470:/usr/local/lib/ARM/CMSIS/5.4.0/CMSIS/Core/Include/cmsis_gcc.h **** #if (defined (__ARM_FEATURE_CMSE ) && (__ARM_FEATURE_CMSE == 3))
 471:/usr/local/lib/ARM/CMSIS/5.4.0/CMSIS/Core/Include/cmsis_gcc.h **** /**
 472:/usr/local/lib/ARM/CMSIS/5.4.0/CMSIS/Core/Include/cmsis_gcc.h ****   \brief   Get Base Priority (non-secure)
 473:/usr/local/lib/ARM/CMSIS/5.4.0/CMSIS/Core/Include/cmsis_gcc.h ****   \details Returns the current value of the non-secure Base Priority register when in secure state.
 474:/usr/local/lib/ARM/CMSIS/5.4.0/CMSIS/Core/Include/cmsis_gcc.h ****   \return               Base Priority register value
 475:/usr/local/lib/ARM/CMSIS/5.4.0/CMSIS/Core/Include/cmsis_gcc.h ****  */
 476:/usr/local/lib/ARM/CMSIS/5.4.0/CMSIS/Core/Include/cmsis_gcc.h **** __STATIC_FORCEINLINE uint32_t __TZ_get_BASEPRI_NS(void)
 477:/usr/local/lib/ARM/CMSIS/5.4.0/CMSIS/Core/Include/cmsis_gcc.h **** {
 478:/usr/local/lib/ARM/CMSIS/5.4.0/CMSIS/Core/Include/cmsis_gcc.h ****   uint32_t result;
 479:/usr/local/lib/ARM/CMSIS/5.4.0/CMSIS/Core/Include/cmsis_gcc.h **** 
 480:/usr/local/lib/ARM/CMSIS/5.4.0/CMSIS/Core/Include/cmsis_gcc.h ****   __ASM volatile ("MRS %0, basepri_ns" : "=r" (result) );
 481:/usr/local/lib/ARM/CMSIS/5.4.0/CMSIS/Core/Include/cmsis_gcc.h ****   return(result);
 482:/usr/local/lib/ARM/CMSIS/5.4.0/CMSIS/Core/Include/cmsis_gcc.h **** }
 483:/usr/local/lib/ARM/CMSIS/5.4.0/CMSIS/Core/Include/cmsis_gcc.h **** #endif
 484:/usr/local/lib/ARM/CMSIS/5.4.0/CMSIS/Core/Include/cmsis_gcc.h **** 
 485:/usr/local/lib/ARM/CMSIS/5.4.0/CMSIS/Core/Include/cmsis_gcc.h **** 
 486:/usr/local/lib/ARM/CMSIS/5.4.0/CMSIS/Core/Include/cmsis_gcc.h **** /**
 487:/usr/local/lib/ARM/CMSIS/5.4.0/CMSIS/Core/Include/cmsis_gcc.h ****   \brief   Set Base Priority
 488:/usr/local/lib/ARM/CMSIS/5.4.0/CMSIS/Core/Include/cmsis_gcc.h ****   \details Assigns the given value to the Base Priority register.
 489:/usr/local/lib/ARM/CMSIS/5.4.0/CMSIS/Core/Include/cmsis_gcc.h ****   \param [in]    basePri  Base Priority value to set
 490:/usr/local/lib/ARM/CMSIS/5.4.0/CMSIS/Core/Include/cmsis_gcc.h ****  */
 491:/usr/local/lib/ARM/CMSIS/5.4.0/CMSIS/Core/Include/cmsis_gcc.h **** __STATIC_FORCEINLINE void __set_BASEPRI(uint32_t basePri)
 492:/usr/local/lib/ARM/CMSIS/5.4.0/CMSIS/Core/Include/cmsis_gcc.h **** {
ARM GAS  /tmp/ccOyeoN6.s 			page 24


 493:/usr/local/lib/ARM/CMSIS/5.4.0/CMSIS/Core/Include/cmsis_gcc.h ****   __ASM volatile ("MSR basepri, %0" : : "r" (basePri) : "memory");
 494:/usr/local/lib/ARM/CMSIS/5.4.0/CMSIS/Core/Include/cmsis_gcc.h **** }
 495:/usr/local/lib/ARM/CMSIS/5.4.0/CMSIS/Core/Include/cmsis_gcc.h **** 
 496:/usr/local/lib/ARM/CMSIS/5.4.0/CMSIS/Core/Include/cmsis_gcc.h **** 
 497:/usr/local/lib/ARM/CMSIS/5.4.0/CMSIS/Core/Include/cmsis_gcc.h **** #if (defined (__ARM_FEATURE_CMSE ) && (__ARM_FEATURE_CMSE == 3))
 498:/usr/local/lib/ARM/CMSIS/5.4.0/CMSIS/Core/Include/cmsis_gcc.h **** /**
 499:/usr/local/lib/ARM/CMSIS/5.4.0/CMSIS/Core/Include/cmsis_gcc.h ****   \brief   Set Base Priority (non-secure)
 500:/usr/local/lib/ARM/CMSIS/5.4.0/CMSIS/Core/Include/cmsis_gcc.h ****   \details Assigns the given value to the non-secure Base Priority register when in secure state.
 501:/usr/local/lib/ARM/CMSIS/5.4.0/CMSIS/Core/Include/cmsis_gcc.h ****   \param [in]    basePri  Base Priority value to set
 502:/usr/local/lib/ARM/CMSIS/5.4.0/CMSIS/Core/Include/cmsis_gcc.h ****  */
 503:/usr/local/lib/ARM/CMSIS/5.4.0/CMSIS/Core/Include/cmsis_gcc.h **** __STATIC_FORCEINLINE void __TZ_set_BASEPRI_NS(uint32_t basePri)
 504:/usr/local/lib/ARM/CMSIS/5.4.0/CMSIS/Core/Include/cmsis_gcc.h **** {
 505:/usr/local/lib/ARM/CMSIS/5.4.0/CMSIS/Core/Include/cmsis_gcc.h ****   __ASM volatile ("MSR basepri_ns, %0" : : "r" (basePri) : "memory");
 506:/usr/local/lib/ARM/CMSIS/5.4.0/CMSIS/Core/Include/cmsis_gcc.h **** }
 507:/usr/local/lib/ARM/CMSIS/5.4.0/CMSIS/Core/Include/cmsis_gcc.h **** #endif
 508:/usr/local/lib/ARM/CMSIS/5.4.0/CMSIS/Core/Include/cmsis_gcc.h **** 
 509:/usr/local/lib/ARM/CMSIS/5.4.0/CMSIS/Core/Include/cmsis_gcc.h **** 
 510:/usr/local/lib/ARM/CMSIS/5.4.0/CMSIS/Core/Include/cmsis_gcc.h **** /**
 511:/usr/local/lib/ARM/CMSIS/5.4.0/CMSIS/Core/Include/cmsis_gcc.h ****   \brief   Set Base Priority with condition
 512:/usr/local/lib/ARM/CMSIS/5.4.0/CMSIS/Core/Include/cmsis_gcc.h ****   \details Assigns the given value to the Base Priority register only if BASEPRI masking is disable
 513:/usr/local/lib/ARM/CMSIS/5.4.0/CMSIS/Core/Include/cmsis_gcc.h ****            or the new value increases the BASEPRI priority level.
 514:/usr/local/lib/ARM/CMSIS/5.4.0/CMSIS/Core/Include/cmsis_gcc.h ****   \param [in]    basePri  Base Priority value to set
 515:/usr/local/lib/ARM/CMSIS/5.4.0/CMSIS/Core/Include/cmsis_gcc.h ****  */
 516:/usr/local/lib/ARM/CMSIS/5.4.0/CMSIS/Core/Include/cmsis_gcc.h **** __STATIC_FORCEINLINE void __set_BASEPRI_MAX(uint32_t basePri)
 517:/usr/local/lib/ARM/CMSIS/5.4.0/CMSIS/Core/Include/cmsis_gcc.h **** {
 518:/usr/local/lib/ARM/CMSIS/5.4.0/CMSIS/Core/Include/cmsis_gcc.h ****   __ASM volatile ("MSR basepri_max, %0" : : "r" (basePri) : "memory");
 519:/usr/local/lib/ARM/CMSIS/5.4.0/CMSIS/Core/Include/cmsis_gcc.h **** }
 520:/usr/local/lib/ARM/CMSIS/5.4.0/CMSIS/Core/Include/cmsis_gcc.h **** 
 521:/usr/local/lib/ARM/CMSIS/5.4.0/CMSIS/Core/Include/cmsis_gcc.h **** 
 522:/usr/local/lib/ARM/CMSIS/5.4.0/CMSIS/Core/Include/cmsis_gcc.h **** /**
 523:/usr/local/lib/ARM/CMSIS/5.4.0/CMSIS/Core/Include/cmsis_gcc.h ****   \brief   Get Fault Mask
 524:/usr/local/lib/ARM/CMSIS/5.4.0/CMSIS/Core/Include/cmsis_gcc.h ****   \details Returns the current value of the Fault Mask register.
 525:/usr/local/lib/ARM/CMSIS/5.4.0/CMSIS/Core/Include/cmsis_gcc.h ****   \return               Fault Mask register value
 526:/usr/local/lib/ARM/CMSIS/5.4.0/CMSIS/Core/Include/cmsis_gcc.h ****  */
 527:/usr/local/lib/ARM/CMSIS/5.4.0/CMSIS/Core/Include/cmsis_gcc.h **** __STATIC_FORCEINLINE uint32_t __get_FAULTMASK(void)
 528:/usr/local/lib/ARM/CMSIS/5.4.0/CMSIS/Core/Include/cmsis_gcc.h **** {
 529:/usr/local/lib/ARM/CMSIS/5.4.0/CMSIS/Core/Include/cmsis_gcc.h ****   uint32_t result;
 530:/usr/local/lib/ARM/CMSIS/5.4.0/CMSIS/Core/Include/cmsis_gcc.h **** 
 531:/usr/local/lib/ARM/CMSIS/5.4.0/CMSIS/Core/Include/cmsis_gcc.h ****   __ASM volatile ("MRS %0, faultmask" : "=r" (result) );
 532:/usr/local/lib/ARM/CMSIS/5.4.0/CMSIS/Core/Include/cmsis_gcc.h ****   return(result);
 533:/usr/local/lib/ARM/CMSIS/5.4.0/CMSIS/Core/Include/cmsis_gcc.h **** }
 534:/usr/local/lib/ARM/CMSIS/5.4.0/CMSIS/Core/Include/cmsis_gcc.h **** 
 535:/usr/local/lib/ARM/CMSIS/5.4.0/CMSIS/Core/Include/cmsis_gcc.h **** 
 536:/usr/local/lib/ARM/CMSIS/5.4.0/CMSIS/Core/Include/cmsis_gcc.h **** #if (defined (__ARM_FEATURE_CMSE ) && (__ARM_FEATURE_CMSE == 3))
 537:/usr/local/lib/ARM/CMSIS/5.4.0/CMSIS/Core/Include/cmsis_gcc.h **** /**
 538:/usr/local/lib/ARM/CMSIS/5.4.0/CMSIS/Core/Include/cmsis_gcc.h ****   \brief   Get Fault Mask (non-secure)
 539:/usr/local/lib/ARM/CMSIS/5.4.0/CMSIS/Core/Include/cmsis_gcc.h ****   \details Returns the current value of the non-secure Fault Mask register when in secure state.
 540:/usr/local/lib/ARM/CMSIS/5.4.0/CMSIS/Core/Include/cmsis_gcc.h ****   \return               Fault Mask register value
 541:/usr/local/lib/ARM/CMSIS/5.4.0/CMSIS/Core/Include/cmsis_gcc.h ****  */
 542:/usr/local/lib/ARM/CMSIS/5.4.0/CMSIS/Core/Include/cmsis_gcc.h **** __STATIC_FORCEINLINE uint32_t __TZ_get_FAULTMASK_NS(void)
 543:/usr/local/lib/ARM/CMSIS/5.4.0/CMSIS/Core/Include/cmsis_gcc.h **** {
 544:/usr/local/lib/ARM/CMSIS/5.4.0/CMSIS/Core/Include/cmsis_gcc.h ****   uint32_t result;
 545:/usr/local/lib/ARM/CMSIS/5.4.0/CMSIS/Core/Include/cmsis_gcc.h **** 
 546:/usr/local/lib/ARM/CMSIS/5.4.0/CMSIS/Core/Include/cmsis_gcc.h ****   __ASM volatile ("MRS %0, faultmask_ns" : "=r" (result) );
 547:/usr/local/lib/ARM/CMSIS/5.4.0/CMSIS/Core/Include/cmsis_gcc.h ****   return(result);
 548:/usr/local/lib/ARM/CMSIS/5.4.0/CMSIS/Core/Include/cmsis_gcc.h **** }
 549:/usr/local/lib/ARM/CMSIS/5.4.0/CMSIS/Core/Include/cmsis_gcc.h **** #endif
ARM GAS  /tmp/ccOyeoN6.s 			page 25


 550:/usr/local/lib/ARM/CMSIS/5.4.0/CMSIS/Core/Include/cmsis_gcc.h **** 
 551:/usr/local/lib/ARM/CMSIS/5.4.0/CMSIS/Core/Include/cmsis_gcc.h **** 
 552:/usr/local/lib/ARM/CMSIS/5.4.0/CMSIS/Core/Include/cmsis_gcc.h **** /**
 553:/usr/local/lib/ARM/CMSIS/5.4.0/CMSIS/Core/Include/cmsis_gcc.h ****   \brief   Set Fault Mask
 554:/usr/local/lib/ARM/CMSIS/5.4.0/CMSIS/Core/Include/cmsis_gcc.h ****   \details Assigns the given value to the Fault Mask register.
 555:/usr/local/lib/ARM/CMSIS/5.4.0/CMSIS/Core/Include/cmsis_gcc.h ****   \param [in]    faultMask  Fault Mask value to set
 556:/usr/local/lib/ARM/CMSIS/5.4.0/CMSIS/Core/Include/cmsis_gcc.h ****  */
 557:/usr/local/lib/ARM/CMSIS/5.4.0/CMSIS/Core/Include/cmsis_gcc.h **** __STATIC_FORCEINLINE void __set_FAULTMASK(uint32_t faultMask)
 558:/usr/local/lib/ARM/CMSIS/5.4.0/CMSIS/Core/Include/cmsis_gcc.h **** {
 559:/usr/local/lib/ARM/CMSIS/5.4.0/CMSIS/Core/Include/cmsis_gcc.h ****   __ASM volatile ("MSR faultmask, %0" : : "r" (faultMask) : "memory");
 560:/usr/local/lib/ARM/CMSIS/5.4.0/CMSIS/Core/Include/cmsis_gcc.h **** }
 561:/usr/local/lib/ARM/CMSIS/5.4.0/CMSIS/Core/Include/cmsis_gcc.h **** 
 562:/usr/local/lib/ARM/CMSIS/5.4.0/CMSIS/Core/Include/cmsis_gcc.h **** 
 563:/usr/local/lib/ARM/CMSIS/5.4.0/CMSIS/Core/Include/cmsis_gcc.h **** #if (defined (__ARM_FEATURE_CMSE ) && (__ARM_FEATURE_CMSE == 3))
 564:/usr/local/lib/ARM/CMSIS/5.4.0/CMSIS/Core/Include/cmsis_gcc.h **** /**
 565:/usr/local/lib/ARM/CMSIS/5.4.0/CMSIS/Core/Include/cmsis_gcc.h ****   \brief   Set Fault Mask (non-secure)
 566:/usr/local/lib/ARM/CMSIS/5.4.0/CMSIS/Core/Include/cmsis_gcc.h ****   \details Assigns the given value to the non-secure Fault Mask register when in secure state.
 567:/usr/local/lib/ARM/CMSIS/5.4.0/CMSIS/Core/Include/cmsis_gcc.h ****   \param [in]    faultMask  Fault Mask value to set
 568:/usr/local/lib/ARM/CMSIS/5.4.0/CMSIS/Core/Include/cmsis_gcc.h ****  */
 569:/usr/local/lib/ARM/CMSIS/5.4.0/CMSIS/Core/Include/cmsis_gcc.h **** __STATIC_FORCEINLINE void __TZ_set_FAULTMASK_NS(uint32_t faultMask)
 570:/usr/local/lib/ARM/CMSIS/5.4.0/CMSIS/Core/Include/cmsis_gcc.h **** {
 571:/usr/local/lib/ARM/CMSIS/5.4.0/CMSIS/Core/Include/cmsis_gcc.h ****   __ASM volatile ("MSR faultmask_ns, %0" : : "r" (faultMask) : "memory");
 572:/usr/local/lib/ARM/CMSIS/5.4.0/CMSIS/Core/Include/cmsis_gcc.h **** }
 573:/usr/local/lib/ARM/CMSIS/5.4.0/CMSIS/Core/Include/cmsis_gcc.h **** #endif
 574:/usr/local/lib/ARM/CMSIS/5.4.0/CMSIS/Core/Include/cmsis_gcc.h **** 
 575:/usr/local/lib/ARM/CMSIS/5.4.0/CMSIS/Core/Include/cmsis_gcc.h **** #endif /* ((defined (__ARM_ARCH_7M__      ) && (__ARM_ARCH_7M__      == 1)) || \
 576:/usr/local/lib/ARM/CMSIS/5.4.0/CMSIS/Core/Include/cmsis_gcc.h ****            (defined (__ARM_ARCH_7EM__     ) && (__ARM_ARCH_7EM__     == 1)) || \
 577:/usr/local/lib/ARM/CMSIS/5.4.0/CMSIS/Core/Include/cmsis_gcc.h ****            (defined (__ARM_ARCH_8M_MAIN__ ) && (__ARM_ARCH_8M_MAIN__ == 1))    ) */
 578:/usr/local/lib/ARM/CMSIS/5.4.0/CMSIS/Core/Include/cmsis_gcc.h **** 
 579:/usr/local/lib/ARM/CMSIS/5.4.0/CMSIS/Core/Include/cmsis_gcc.h **** 
 580:/usr/local/lib/ARM/CMSIS/5.4.0/CMSIS/Core/Include/cmsis_gcc.h **** #if ((defined (__ARM_ARCH_8M_MAIN__ ) && (__ARM_ARCH_8M_MAIN__ == 1)) || \
 581:/usr/local/lib/ARM/CMSIS/5.4.0/CMSIS/Core/Include/cmsis_gcc.h ****      (defined (__ARM_ARCH_8M_BASE__ ) && (__ARM_ARCH_8M_BASE__ == 1))    )
 582:/usr/local/lib/ARM/CMSIS/5.4.0/CMSIS/Core/Include/cmsis_gcc.h **** 
 583:/usr/local/lib/ARM/CMSIS/5.4.0/CMSIS/Core/Include/cmsis_gcc.h **** /**
 584:/usr/local/lib/ARM/CMSIS/5.4.0/CMSIS/Core/Include/cmsis_gcc.h ****   \brief   Get Process Stack Pointer Limit
 585:/usr/local/lib/ARM/CMSIS/5.4.0/CMSIS/Core/Include/cmsis_gcc.h ****   Devices without ARMv8-M Main Extensions (i.e. Cortex-M23) lack the non-secure
 586:/usr/local/lib/ARM/CMSIS/5.4.0/CMSIS/Core/Include/cmsis_gcc.h ****   Stack Pointer Limit register hence zero is returned always in non-secure
 587:/usr/local/lib/ARM/CMSIS/5.4.0/CMSIS/Core/Include/cmsis_gcc.h ****   mode.
 588:/usr/local/lib/ARM/CMSIS/5.4.0/CMSIS/Core/Include/cmsis_gcc.h ****   
 589:/usr/local/lib/ARM/CMSIS/5.4.0/CMSIS/Core/Include/cmsis_gcc.h ****   \details Returns the current value of the Process Stack Pointer Limit (PSPLIM).
 590:/usr/local/lib/ARM/CMSIS/5.4.0/CMSIS/Core/Include/cmsis_gcc.h ****   \return               PSPLIM Register value
 591:/usr/local/lib/ARM/CMSIS/5.4.0/CMSIS/Core/Include/cmsis_gcc.h ****  */
 592:/usr/local/lib/ARM/CMSIS/5.4.0/CMSIS/Core/Include/cmsis_gcc.h **** __STATIC_FORCEINLINE uint32_t __get_PSPLIM(void)
 593:/usr/local/lib/ARM/CMSIS/5.4.0/CMSIS/Core/Include/cmsis_gcc.h **** {
 594:/usr/local/lib/ARM/CMSIS/5.4.0/CMSIS/Core/Include/cmsis_gcc.h **** #if (!(defined (__ARM_ARCH_8M_MAIN__ ) && (__ARM_ARCH_8M_MAIN__ == 1)) && \
 595:/usr/local/lib/ARM/CMSIS/5.4.0/CMSIS/Core/Include/cmsis_gcc.h ****     (!defined (__ARM_FEATURE_CMSE) || (__ARM_FEATURE_CMSE < 3)))
 596:/usr/local/lib/ARM/CMSIS/5.4.0/CMSIS/Core/Include/cmsis_gcc.h ****     // without main extensions, the non-secure PSPLIM is RAZ/WI
 597:/usr/local/lib/ARM/CMSIS/5.4.0/CMSIS/Core/Include/cmsis_gcc.h ****   return 0U;
 598:/usr/local/lib/ARM/CMSIS/5.4.0/CMSIS/Core/Include/cmsis_gcc.h **** #else
 599:/usr/local/lib/ARM/CMSIS/5.4.0/CMSIS/Core/Include/cmsis_gcc.h ****   uint32_t result;
 600:/usr/local/lib/ARM/CMSIS/5.4.0/CMSIS/Core/Include/cmsis_gcc.h ****   __ASM volatile ("MRS %0, psplim"  : "=r" (result) );
 601:/usr/local/lib/ARM/CMSIS/5.4.0/CMSIS/Core/Include/cmsis_gcc.h ****   return result;
 602:/usr/local/lib/ARM/CMSIS/5.4.0/CMSIS/Core/Include/cmsis_gcc.h **** #endif
 603:/usr/local/lib/ARM/CMSIS/5.4.0/CMSIS/Core/Include/cmsis_gcc.h **** }
 604:/usr/local/lib/ARM/CMSIS/5.4.0/CMSIS/Core/Include/cmsis_gcc.h **** 
 605:/usr/local/lib/ARM/CMSIS/5.4.0/CMSIS/Core/Include/cmsis_gcc.h **** #if (defined (__ARM_FEATURE_CMSE) && (__ARM_FEATURE_CMSE == 3))
 606:/usr/local/lib/ARM/CMSIS/5.4.0/CMSIS/Core/Include/cmsis_gcc.h **** /**
ARM GAS  /tmp/ccOyeoN6.s 			page 26


 607:/usr/local/lib/ARM/CMSIS/5.4.0/CMSIS/Core/Include/cmsis_gcc.h ****   \brief   Get Process Stack Pointer Limit (non-secure)
 608:/usr/local/lib/ARM/CMSIS/5.4.0/CMSIS/Core/Include/cmsis_gcc.h ****   Devices without ARMv8-M Main Extensions (i.e. Cortex-M23) lack the non-secure
 609:/usr/local/lib/ARM/CMSIS/5.4.0/CMSIS/Core/Include/cmsis_gcc.h ****   Stack Pointer Limit register hence zero is returned always.
 610:/usr/local/lib/ARM/CMSIS/5.4.0/CMSIS/Core/Include/cmsis_gcc.h **** 
 611:/usr/local/lib/ARM/CMSIS/5.4.0/CMSIS/Core/Include/cmsis_gcc.h ****   \details Returns the current value of the non-secure Process Stack Pointer Limit (PSPLIM) when in
 612:/usr/local/lib/ARM/CMSIS/5.4.0/CMSIS/Core/Include/cmsis_gcc.h ****   \return               PSPLIM Register value
 613:/usr/local/lib/ARM/CMSIS/5.4.0/CMSIS/Core/Include/cmsis_gcc.h ****  */
 614:/usr/local/lib/ARM/CMSIS/5.4.0/CMSIS/Core/Include/cmsis_gcc.h **** __STATIC_FORCEINLINE uint32_t __TZ_get_PSPLIM_NS(void)
 615:/usr/local/lib/ARM/CMSIS/5.4.0/CMSIS/Core/Include/cmsis_gcc.h **** {
 616:/usr/local/lib/ARM/CMSIS/5.4.0/CMSIS/Core/Include/cmsis_gcc.h **** #if (!(defined (__ARM_ARCH_8M_MAIN__ ) && (__ARM_ARCH_8M_MAIN__ == 1)))
 617:/usr/local/lib/ARM/CMSIS/5.4.0/CMSIS/Core/Include/cmsis_gcc.h ****   // without main extensions, the non-secure PSPLIM is RAZ/WI
 618:/usr/local/lib/ARM/CMSIS/5.4.0/CMSIS/Core/Include/cmsis_gcc.h ****   return 0U;
 619:/usr/local/lib/ARM/CMSIS/5.4.0/CMSIS/Core/Include/cmsis_gcc.h **** #else
 620:/usr/local/lib/ARM/CMSIS/5.4.0/CMSIS/Core/Include/cmsis_gcc.h ****   uint32_t result;
 621:/usr/local/lib/ARM/CMSIS/5.4.0/CMSIS/Core/Include/cmsis_gcc.h ****   __ASM volatile ("MRS %0, psplim_ns"  : "=r" (result) );
 622:/usr/local/lib/ARM/CMSIS/5.4.0/CMSIS/Core/Include/cmsis_gcc.h ****   return result;
 623:/usr/local/lib/ARM/CMSIS/5.4.0/CMSIS/Core/Include/cmsis_gcc.h **** #endif
 624:/usr/local/lib/ARM/CMSIS/5.4.0/CMSIS/Core/Include/cmsis_gcc.h **** }
 625:/usr/local/lib/ARM/CMSIS/5.4.0/CMSIS/Core/Include/cmsis_gcc.h **** #endif
 626:/usr/local/lib/ARM/CMSIS/5.4.0/CMSIS/Core/Include/cmsis_gcc.h **** 
 627:/usr/local/lib/ARM/CMSIS/5.4.0/CMSIS/Core/Include/cmsis_gcc.h **** 
 628:/usr/local/lib/ARM/CMSIS/5.4.0/CMSIS/Core/Include/cmsis_gcc.h **** /**
 629:/usr/local/lib/ARM/CMSIS/5.4.0/CMSIS/Core/Include/cmsis_gcc.h ****   \brief   Set Process Stack Pointer Limit
 630:/usr/local/lib/ARM/CMSIS/5.4.0/CMSIS/Core/Include/cmsis_gcc.h ****   Devices without ARMv8-M Main Extensions (i.e. Cortex-M23) lack the non-secure
 631:/usr/local/lib/ARM/CMSIS/5.4.0/CMSIS/Core/Include/cmsis_gcc.h ****   Stack Pointer Limit register hence the write is silently ignored in non-secure
 632:/usr/local/lib/ARM/CMSIS/5.4.0/CMSIS/Core/Include/cmsis_gcc.h ****   mode.
 633:/usr/local/lib/ARM/CMSIS/5.4.0/CMSIS/Core/Include/cmsis_gcc.h ****   
 634:/usr/local/lib/ARM/CMSIS/5.4.0/CMSIS/Core/Include/cmsis_gcc.h ****   \details Assigns the given value to the Process Stack Pointer Limit (PSPLIM).
 635:/usr/local/lib/ARM/CMSIS/5.4.0/CMSIS/Core/Include/cmsis_gcc.h ****   \param [in]    ProcStackPtrLimit  Process Stack Pointer Limit value to set
 636:/usr/local/lib/ARM/CMSIS/5.4.0/CMSIS/Core/Include/cmsis_gcc.h ****  */
 637:/usr/local/lib/ARM/CMSIS/5.4.0/CMSIS/Core/Include/cmsis_gcc.h **** __STATIC_FORCEINLINE void __set_PSPLIM(uint32_t ProcStackPtrLimit)
 638:/usr/local/lib/ARM/CMSIS/5.4.0/CMSIS/Core/Include/cmsis_gcc.h **** {
 639:/usr/local/lib/ARM/CMSIS/5.4.0/CMSIS/Core/Include/cmsis_gcc.h **** #if (!(defined (__ARM_ARCH_8M_MAIN__ ) && (__ARM_ARCH_8M_MAIN__ == 1)) && \
 640:/usr/local/lib/ARM/CMSIS/5.4.0/CMSIS/Core/Include/cmsis_gcc.h ****     (!defined (__ARM_FEATURE_CMSE) || (__ARM_FEATURE_CMSE < 3)))
 641:/usr/local/lib/ARM/CMSIS/5.4.0/CMSIS/Core/Include/cmsis_gcc.h ****   // without main extensions, the non-secure PSPLIM is RAZ/WI
 642:/usr/local/lib/ARM/CMSIS/5.4.0/CMSIS/Core/Include/cmsis_gcc.h ****   (void)ProcStackPtrLimit;
 643:/usr/local/lib/ARM/CMSIS/5.4.0/CMSIS/Core/Include/cmsis_gcc.h **** #else
 644:/usr/local/lib/ARM/CMSIS/5.4.0/CMSIS/Core/Include/cmsis_gcc.h ****   __ASM volatile ("MSR psplim, %0" : : "r" (ProcStackPtrLimit));
 645:/usr/local/lib/ARM/CMSIS/5.4.0/CMSIS/Core/Include/cmsis_gcc.h **** #endif
 646:/usr/local/lib/ARM/CMSIS/5.4.0/CMSIS/Core/Include/cmsis_gcc.h **** }
 647:/usr/local/lib/ARM/CMSIS/5.4.0/CMSIS/Core/Include/cmsis_gcc.h **** 
 648:/usr/local/lib/ARM/CMSIS/5.4.0/CMSIS/Core/Include/cmsis_gcc.h **** 
 649:/usr/local/lib/ARM/CMSIS/5.4.0/CMSIS/Core/Include/cmsis_gcc.h **** #if (defined (__ARM_FEATURE_CMSE  ) && (__ARM_FEATURE_CMSE   == 3))
 650:/usr/local/lib/ARM/CMSIS/5.4.0/CMSIS/Core/Include/cmsis_gcc.h **** /**
 651:/usr/local/lib/ARM/CMSIS/5.4.0/CMSIS/Core/Include/cmsis_gcc.h ****   \brief   Set Process Stack Pointer (non-secure)
 652:/usr/local/lib/ARM/CMSIS/5.4.0/CMSIS/Core/Include/cmsis_gcc.h ****   Devices without ARMv8-M Main Extensions (i.e. Cortex-M23) lack the non-secure
 653:/usr/local/lib/ARM/CMSIS/5.4.0/CMSIS/Core/Include/cmsis_gcc.h ****   Stack Pointer Limit register hence the write is silently ignored.
 654:/usr/local/lib/ARM/CMSIS/5.4.0/CMSIS/Core/Include/cmsis_gcc.h **** 
 655:/usr/local/lib/ARM/CMSIS/5.4.0/CMSIS/Core/Include/cmsis_gcc.h ****   \details Assigns the given value to the non-secure Process Stack Pointer Limit (PSPLIM) when in s
 656:/usr/local/lib/ARM/CMSIS/5.4.0/CMSIS/Core/Include/cmsis_gcc.h ****   \param [in]    ProcStackPtrLimit  Process Stack Pointer Limit value to set
 657:/usr/local/lib/ARM/CMSIS/5.4.0/CMSIS/Core/Include/cmsis_gcc.h ****  */
 658:/usr/local/lib/ARM/CMSIS/5.4.0/CMSIS/Core/Include/cmsis_gcc.h **** __STATIC_FORCEINLINE void __TZ_set_PSPLIM_NS(uint32_t ProcStackPtrLimit)
 659:/usr/local/lib/ARM/CMSIS/5.4.0/CMSIS/Core/Include/cmsis_gcc.h **** {
 660:/usr/local/lib/ARM/CMSIS/5.4.0/CMSIS/Core/Include/cmsis_gcc.h **** #if (!(defined (__ARM_ARCH_8M_MAIN__ ) && (__ARM_ARCH_8M_MAIN__ == 1)))
 661:/usr/local/lib/ARM/CMSIS/5.4.0/CMSIS/Core/Include/cmsis_gcc.h ****   // without main extensions, the non-secure PSPLIM is RAZ/WI
 662:/usr/local/lib/ARM/CMSIS/5.4.0/CMSIS/Core/Include/cmsis_gcc.h ****   (void)ProcStackPtrLimit;
 663:/usr/local/lib/ARM/CMSIS/5.4.0/CMSIS/Core/Include/cmsis_gcc.h **** #else
ARM GAS  /tmp/ccOyeoN6.s 			page 27


 664:/usr/local/lib/ARM/CMSIS/5.4.0/CMSIS/Core/Include/cmsis_gcc.h ****   __ASM volatile ("MSR psplim_ns, %0\n" : : "r" (ProcStackPtrLimit));
 665:/usr/local/lib/ARM/CMSIS/5.4.0/CMSIS/Core/Include/cmsis_gcc.h **** #endif
 666:/usr/local/lib/ARM/CMSIS/5.4.0/CMSIS/Core/Include/cmsis_gcc.h **** }
 667:/usr/local/lib/ARM/CMSIS/5.4.0/CMSIS/Core/Include/cmsis_gcc.h **** #endif
 668:/usr/local/lib/ARM/CMSIS/5.4.0/CMSIS/Core/Include/cmsis_gcc.h **** 
 669:/usr/local/lib/ARM/CMSIS/5.4.0/CMSIS/Core/Include/cmsis_gcc.h **** 
 670:/usr/local/lib/ARM/CMSIS/5.4.0/CMSIS/Core/Include/cmsis_gcc.h **** /**
 671:/usr/local/lib/ARM/CMSIS/5.4.0/CMSIS/Core/Include/cmsis_gcc.h ****   \brief   Get Main Stack Pointer Limit
 672:/usr/local/lib/ARM/CMSIS/5.4.0/CMSIS/Core/Include/cmsis_gcc.h ****   Devices without ARMv8-M Main Extensions (i.e. Cortex-M23) lack the non-secure
 673:/usr/local/lib/ARM/CMSIS/5.4.0/CMSIS/Core/Include/cmsis_gcc.h ****   Stack Pointer Limit register hence zero is returned always in non-secure
 674:/usr/local/lib/ARM/CMSIS/5.4.0/CMSIS/Core/Include/cmsis_gcc.h ****   mode.
 675:/usr/local/lib/ARM/CMSIS/5.4.0/CMSIS/Core/Include/cmsis_gcc.h **** 
 676:/usr/local/lib/ARM/CMSIS/5.4.0/CMSIS/Core/Include/cmsis_gcc.h ****   \details Returns the current value of the Main Stack Pointer Limit (MSPLIM).
 677:/usr/local/lib/ARM/CMSIS/5.4.0/CMSIS/Core/Include/cmsis_gcc.h ****   \return               MSPLIM Register value
 678:/usr/local/lib/ARM/CMSIS/5.4.0/CMSIS/Core/Include/cmsis_gcc.h ****  */
 679:/usr/local/lib/ARM/CMSIS/5.4.0/CMSIS/Core/Include/cmsis_gcc.h **** __STATIC_FORCEINLINE uint32_t __get_MSPLIM(void)
 680:/usr/local/lib/ARM/CMSIS/5.4.0/CMSIS/Core/Include/cmsis_gcc.h **** {
 681:/usr/local/lib/ARM/CMSIS/5.4.0/CMSIS/Core/Include/cmsis_gcc.h **** #if (!(defined (__ARM_ARCH_8M_MAIN__ ) && (__ARM_ARCH_8M_MAIN__ == 1)) && \
 682:/usr/local/lib/ARM/CMSIS/5.4.0/CMSIS/Core/Include/cmsis_gcc.h ****     (!defined (__ARM_FEATURE_CMSE) || (__ARM_FEATURE_CMSE < 3)))
 683:/usr/local/lib/ARM/CMSIS/5.4.0/CMSIS/Core/Include/cmsis_gcc.h ****   // without main extensions, the non-secure MSPLIM is RAZ/WI
 684:/usr/local/lib/ARM/CMSIS/5.4.0/CMSIS/Core/Include/cmsis_gcc.h ****   return 0U;
 685:/usr/local/lib/ARM/CMSIS/5.4.0/CMSIS/Core/Include/cmsis_gcc.h **** #else
 686:/usr/local/lib/ARM/CMSIS/5.4.0/CMSIS/Core/Include/cmsis_gcc.h ****   uint32_t result;
 687:/usr/local/lib/ARM/CMSIS/5.4.0/CMSIS/Core/Include/cmsis_gcc.h ****   __ASM volatile ("MRS %0, msplim" : "=r" (result) );
 688:/usr/local/lib/ARM/CMSIS/5.4.0/CMSIS/Core/Include/cmsis_gcc.h ****   return result;
 689:/usr/local/lib/ARM/CMSIS/5.4.0/CMSIS/Core/Include/cmsis_gcc.h **** #endif
 690:/usr/local/lib/ARM/CMSIS/5.4.0/CMSIS/Core/Include/cmsis_gcc.h **** }
 691:/usr/local/lib/ARM/CMSIS/5.4.0/CMSIS/Core/Include/cmsis_gcc.h **** 
 692:/usr/local/lib/ARM/CMSIS/5.4.0/CMSIS/Core/Include/cmsis_gcc.h **** 
 693:/usr/local/lib/ARM/CMSIS/5.4.0/CMSIS/Core/Include/cmsis_gcc.h **** #if (defined (__ARM_FEATURE_CMSE  ) && (__ARM_FEATURE_CMSE   == 3))
 694:/usr/local/lib/ARM/CMSIS/5.4.0/CMSIS/Core/Include/cmsis_gcc.h **** /**
 695:/usr/local/lib/ARM/CMSIS/5.4.0/CMSIS/Core/Include/cmsis_gcc.h ****   \brief   Get Main Stack Pointer Limit (non-secure)
 696:/usr/local/lib/ARM/CMSIS/5.4.0/CMSIS/Core/Include/cmsis_gcc.h ****   Devices without ARMv8-M Main Extensions (i.e. Cortex-M23) lack the non-secure
 697:/usr/local/lib/ARM/CMSIS/5.4.0/CMSIS/Core/Include/cmsis_gcc.h ****   Stack Pointer Limit register hence zero is returned always.
 698:/usr/local/lib/ARM/CMSIS/5.4.0/CMSIS/Core/Include/cmsis_gcc.h **** 
 699:/usr/local/lib/ARM/CMSIS/5.4.0/CMSIS/Core/Include/cmsis_gcc.h ****   \details Returns the current value of the non-secure Main Stack Pointer Limit(MSPLIM) when in sec
 700:/usr/local/lib/ARM/CMSIS/5.4.0/CMSIS/Core/Include/cmsis_gcc.h ****   \return               MSPLIM Register value
 701:/usr/local/lib/ARM/CMSIS/5.4.0/CMSIS/Core/Include/cmsis_gcc.h ****  */
 702:/usr/local/lib/ARM/CMSIS/5.4.0/CMSIS/Core/Include/cmsis_gcc.h **** __STATIC_FORCEINLINE uint32_t __TZ_get_MSPLIM_NS(void)
 703:/usr/local/lib/ARM/CMSIS/5.4.0/CMSIS/Core/Include/cmsis_gcc.h **** {
 704:/usr/local/lib/ARM/CMSIS/5.4.0/CMSIS/Core/Include/cmsis_gcc.h **** #if (!(defined (__ARM_ARCH_8M_MAIN__ ) && (__ARM_ARCH_8M_MAIN__ == 1)))
 705:/usr/local/lib/ARM/CMSIS/5.4.0/CMSIS/Core/Include/cmsis_gcc.h ****   // without main extensions, the non-secure MSPLIM is RAZ/WI
 706:/usr/local/lib/ARM/CMSIS/5.4.0/CMSIS/Core/Include/cmsis_gcc.h ****   return 0U;
 707:/usr/local/lib/ARM/CMSIS/5.4.0/CMSIS/Core/Include/cmsis_gcc.h **** #else
 708:/usr/local/lib/ARM/CMSIS/5.4.0/CMSIS/Core/Include/cmsis_gcc.h ****   uint32_t result;
 709:/usr/local/lib/ARM/CMSIS/5.4.0/CMSIS/Core/Include/cmsis_gcc.h ****   __ASM volatile ("MRS %0, msplim_ns" : "=r" (result) );
 710:/usr/local/lib/ARM/CMSIS/5.4.0/CMSIS/Core/Include/cmsis_gcc.h ****   return result;
 711:/usr/local/lib/ARM/CMSIS/5.4.0/CMSIS/Core/Include/cmsis_gcc.h **** #endif
 712:/usr/local/lib/ARM/CMSIS/5.4.0/CMSIS/Core/Include/cmsis_gcc.h **** }
 713:/usr/local/lib/ARM/CMSIS/5.4.0/CMSIS/Core/Include/cmsis_gcc.h **** #endif
 714:/usr/local/lib/ARM/CMSIS/5.4.0/CMSIS/Core/Include/cmsis_gcc.h **** 
 715:/usr/local/lib/ARM/CMSIS/5.4.0/CMSIS/Core/Include/cmsis_gcc.h **** 
 716:/usr/local/lib/ARM/CMSIS/5.4.0/CMSIS/Core/Include/cmsis_gcc.h **** /**
 717:/usr/local/lib/ARM/CMSIS/5.4.0/CMSIS/Core/Include/cmsis_gcc.h ****   \brief   Set Main Stack Pointer Limit
 718:/usr/local/lib/ARM/CMSIS/5.4.0/CMSIS/Core/Include/cmsis_gcc.h ****   Devices without ARMv8-M Main Extensions (i.e. Cortex-M23) lack the non-secure
 719:/usr/local/lib/ARM/CMSIS/5.4.0/CMSIS/Core/Include/cmsis_gcc.h ****   Stack Pointer Limit register hence the write is silently ignored in non-secure
 720:/usr/local/lib/ARM/CMSIS/5.4.0/CMSIS/Core/Include/cmsis_gcc.h ****   mode.
ARM GAS  /tmp/ccOyeoN6.s 			page 28


 721:/usr/local/lib/ARM/CMSIS/5.4.0/CMSIS/Core/Include/cmsis_gcc.h **** 
 722:/usr/local/lib/ARM/CMSIS/5.4.0/CMSIS/Core/Include/cmsis_gcc.h ****   \details Assigns the given value to the Main Stack Pointer Limit (MSPLIM).
 723:/usr/local/lib/ARM/CMSIS/5.4.0/CMSIS/Core/Include/cmsis_gcc.h ****   \param [in]    MainStackPtrLimit  Main Stack Pointer Limit value to set
 724:/usr/local/lib/ARM/CMSIS/5.4.0/CMSIS/Core/Include/cmsis_gcc.h ****  */
 725:/usr/local/lib/ARM/CMSIS/5.4.0/CMSIS/Core/Include/cmsis_gcc.h **** __STATIC_FORCEINLINE void __set_MSPLIM(uint32_t MainStackPtrLimit)
 726:/usr/local/lib/ARM/CMSIS/5.4.0/CMSIS/Core/Include/cmsis_gcc.h **** {
 727:/usr/local/lib/ARM/CMSIS/5.4.0/CMSIS/Core/Include/cmsis_gcc.h **** #if (!(defined (__ARM_ARCH_8M_MAIN__ ) && (__ARM_ARCH_8M_MAIN__ == 1)) && \
 728:/usr/local/lib/ARM/CMSIS/5.4.0/CMSIS/Core/Include/cmsis_gcc.h ****     (!defined (__ARM_FEATURE_CMSE) || (__ARM_FEATURE_CMSE < 3)))
 729:/usr/local/lib/ARM/CMSIS/5.4.0/CMSIS/Core/Include/cmsis_gcc.h ****   // without main extensions, the non-secure MSPLIM is RAZ/WI
 730:/usr/local/lib/ARM/CMSIS/5.4.0/CMSIS/Core/Include/cmsis_gcc.h ****   (void)MainStackPtrLimit;
 731:/usr/local/lib/ARM/CMSIS/5.4.0/CMSIS/Core/Include/cmsis_gcc.h **** #else
 732:/usr/local/lib/ARM/CMSIS/5.4.0/CMSIS/Core/Include/cmsis_gcc.h ****   __ASM volatile ("MSR msplim, %0" : : "r" (MainStackPtrLimit));
 733:/usr/local/lib/ARM/CMSIS/5.4.0/CMSIS/Core/Include/cmsis_gcc.h **** #endif
 734:/usr/local/lib/ARM/CMSIS/5.4.0/CMSIS/Core/Include/cmsis_gcc.h **** }
 735:/usr/local/lib/ARM/CMSIS/5.4.0/CMSIS/Core/Include/cmsis_gcc.h **** 
 736:/usr/local/lib/ARM/CMSIS/5.4.0/CMSIS/Core/Include/cmsis_gcc.h **** 
 737:/usr/local/lib/ARM/CMSIS/5.4.0/CMSIS/Core/Include/cmsis_gcc.h **** #if (defined (__ARM_FEATURE_CMSE  ) && (__ARM_FEATURE_CMSE   == 3))
 738:/usr/local/lib/ARM/CMSIS/5.4.0/CMSIS/Core/Include/cmsis_gcc.h **** /**
 739:/usr/local/lib/ARM/CMSIS/5.4.0/CMSIS/Core/Include/cmsis_gcc.h ****   \brief   Set Main Stack Pointer Limit (non-secure)
 740:/usr/local/lib/ARM/CMSIS/5.4.0/CMSIS/Core/Include/cmsis_gcc.h ****   Devices without ARMv8-M Main Extensions (i.e. Cortex-M23) lack the non-secure
 741:/usr/local/lib/ARM/CMSIS/5.4.0/CMSIS/Core/Include/cmsis_gcc.h ****   Stack Pointer Limit register hence the write is silently ignored.
 742:/usr/local/lib/ARM/CMSIS/5.4.0/CMSIS/Core/Include/cmsis_gcc.h **** 
 743:/usr/local/lib/ARM/CMSIS/5.4.0/CMSIS/Core/Include/cmsis_gcc.h ****   \details Assigns the given value to the non-secure Main Stack Pointer Limit (MSPLIM) when in secu
 744:/usr/local/lib/ARM/CMSIS/5.4.0/CMSIS/Core/Include/cmsis_gcc.h ****   \param [in]    MainStackPtrLimit  Main Stack Pointer value to set
 745:/usr/local/lib/ARM/CMSIS/5.4.0/CMSIS/Core/Include/cmsis_gcc.h ****  */
 746:/usr/local/lib/ARM/CMSIS/5.4.0/CMSIS/Core/Include/cmsis_gcc.h **** __STATIC_FORCEINLINE void __TZ_set_MSPLIM_NS(uint32_t MainStackPtrLimit)
 747:/usr/local/lib/ARM/CMSIS/5.4.0/CMSIS/Core/Include/cmsis_gcc.h **** {
 748:/usr/local/lib/ARM/CMSIS/5.4.0/CMSIS/Core/Include/cmsis_gcc.h **** #if (!(defined (__ARM_ARCH_8M_MAIN__ ) && (__ARM_ARCH_8M_MAIN__ == 1)))
 749:/usr/local/lib/ARM/CMSIS/5.4.0/CMSIS/Core/Include/cmsis_gcc.h ****   // without main extensions, the non-secure MSPLIM is RAZ/WI
 750:/usr/local/lib/ARM/CMSIS/5.4.0/CMSIS/Core/Include/cmsis_gcc.h ****   (void)MainStackPtrLimit;
 751:/usr/local/lib/ARM/CMSIS/5.4.0/CMSIS/Core/Include/cmsis_gcc.h **** #else
 752:/usr/local/lib/ARM/CMSIS/5.4.0/CMSIS/Core/Include/cmsis_gcc.h ****   __ASM volatile ("MSR msplim_ns, %0" : : "r" (MainStackPtrLimit));
 753:/usr/local/lib/ARM/CMSIS/5.4.0/CMSIS/Core/Include/cmsis_gcc.h **** #endif
 754:/usr/local/lib/ARM/CMSIS/5.4.0/CMSIS/Core/Include/cmsis_gcc.h **** }
 755:/usr/local/lib/ARM/CMSIS/5.4.0/CMSIS/Core/Include/cmsis_gcc.h **** #endif
 756:/usr/local/lib/ARM/CMSIS/5.4.0/CMSIS/Core/Include/cmsis_gcc.h **** 
 757:/usr/local/lib/ARM/CMSIS/5.4.0/CMSIS/Core/Include/cmsis_gcc.h **** #endif /* ((defined (__ARM_ARCH_8M_MAIN__ ) && (__ARM_ARCH_8M_MAIN__ == 1)) || \
 758:/usr/local/lib/ARM/CMSIS/5.4.0/CMSIS/Core/Include/cmsis_gcc.h ****            (defined (__ARM_ARCH_8M_BASE__ ) && (__ARM_ARCH_8M_BASE__ == 1))    ) */
 759:/usr/local/lib/ARM/CMSIS/5.4.0/CMSIS/Core/Include/cmsis_gcc.h **** 
 760:/usr/local/lib/ARM/CMSIS/5.4.0/CMSIS/Core/Include/cmsis_gcc.h **** 
 761:/usr/local/lib/ARM/CMSIS/5.4.0/CMSIS/Core/Include/cmsis_gcc.h **** /**
 762:/usr/local/lib/ARM/CMSIS/5.4.0/CMSIS/Core/Include/cmsis_gcc.h ****   \brief   Get FPSCR
 763:/usr/local/lib/ARM/CMSIS/5.4.0/CMSIS/Core/Include/cmsis_gcc.h ****   \details Returns the current value of the Floating Point Status/Control register.
 764:/usr/local/lib/ARM/CMSIS/5.4.0/CMSIS/Core/Include/cmsis_gcc.h ****   \return               Floating Point Status/Control register value
 765:/usr/local/lib/ARM/CMSIS/5.4.0/CMSIS/Core/Include/cmsis_gcc.h ****  */
 766:/usr/local/lib/ARM/CMSIS/5.4.0/CMSIS/Core/Include/cmsis_gcc.h **** __STATIC_FORCEINLINE uint32_t __get_FPSCR(void)
 767:/usr/local/lib/ARM/CMSIS/5.4.0/CMSIS/Core/Include/cmsis_gcc.h **** {
 768:/usr/local/lib/ARM/CMSIS/5.4.0/CMSIS/Core/Include/cmsis_gcc.h **** #if ((defined (__FPU_PRESENT) && (__FPU_PRESENT == 1U)) && \
 769:/usr/local/lib/ARM/CMSIS/5.4.0/CMSIS/Core/Include/cmsis_gcc.h ****      (defined (__FPU_USED   ) && (__FPU_USED    == 1U))     )
 770:/usr/local/lib/ARM/CMSIS/5.4.0/CMSIS/Core/Include/cmsis_gcc.h **** #if __has_builtin(__builtin_arm_get_fpscr) 
 771:/usr/local/lib/ARM/CMSIS/5.4.0/CMSIS/Core/Include/cmsis_gcc.h **** // Re-enable using built-in when GCC has been fixed
 772:/usr/local/lib/ARM/CMSIS/5.4.0/CMSIS/Core/Include/cmsis_gcc.h **** // || (__GNUC__ > 7) || (__GNUC__ == 7 && __GNUC_MINOR__ >= 2)
 773:/usr/local/lib/ARM/CMSIS/5.4.0/CMSIS/Core/Include/cmsis_gcc.h ****   /* see https://gcc.gnu.org/ml/gcc-patches/2017-04/msg00443.html */
 774:/usr/local/lib/ARM/CMSIS/5.4.0/CMSIS/Core/Include/cmsis_gcc.h ****   return __builtin_arm_get_fpscr();
 775:/usr/local/lib/ARM/CMSIS/5.4.0/CMSIS/Core/Include/cmsis_gcc.h **** #else
 776:/usr/local/lib/ARM/CMSIS/5.4.0/CMSIS/Core/Include/cmsis_gcc.h ****   uint32_t result;
 777:/usr/local/lib/ARM/CMSIS/5.4.0/CMSIS/Core/Include/cmsis_gcc.h **** 
ARM GAS  /tmp/ccOyeoN6.s 			page 29


 778:/usr/local/lib/ARM/CMSIS/5.4.0/CMSIS/Core/Include/cmsis_gcc.h ****   __ASM volatile ("VMRS %0, fpscr" : "=r" (result) );
 779:/usr/local/lib/ARM/CMSIS/5.4.0/CMSIS/Core/Include/cmsis_gcc.h ****   return(result);
 780:/usr/local/lib/ARM/CMSIS/5.4.0/CMSIS/Core/Include/cmsis_gcc.h **** #endif
 781:/usr/local/lib/ARM/CMSIS/5.4.0/CMSIS/Core/Include/cmsis_gcc.h **** #else
 782:/usr/local/lib/ARM/CMSIS/5.4.0/CMSIS/Core/Include/cmsis_gcc.h ****   return(0U);
 783:/usr/local/lib/ARM/CMSIS/5.4.0/CMSIS/Core/Include/cmsis_gcc.h **** #endif
 784:/usr/local/lib/ARM/CMSIS/5.4.0/CMSIS/Core/Include/cmsis_gcc.h **** }
 785:/usr/local/lib/ARM/CMSIS/5.4.0/CMSIS/Core/Include/cmsis_gcc.h **** 
 786:/usr/local/lib/ARM/CMSIS/5.4.0/CMSIS/Core/Include/cmsis_gcc.h **** 
 787:/usr/local/lib/ARM/CMSIS/5.4.0/CMSIS/Core/Include/cmsis_gcc.h **** /**
 788:/usr/local/lib/ARM/CMSIS/5.4.0/CMSIS/Core/Include/cmsis_gcc.h ****   \brief   Set FPSCR
 789:/usr/local/lib/ARM/CMSIS/5.4.0/CMSIS/Core/Include/cmsis_gcc.h ****   \details Assigns the given value to the Floating Point Status/Control register.
 790:/usr/local/lib/ARM/CMSIS/5.4.0/CMSIS/Core/Include/cmsis_gcc.h ****   \param [in]    fpscr  Floating Point Status/Control value to set
 791:/usr/local/lib/ARM/CMSIS/5.4.0/CMSIS/Core/Include/cmsis_gcc.h ****  */
 792:/usr/local/lib/ARM/CMSIS/5.4.0/CMSIS/Core/Include/cmsis_gcc.h **** __STATIC_FORCEINLINE void __set_FPSCR(uint32_t fpscr)
 793:/usr/local/lib/ARM/CMSIS/5.4.0/CMSIS/Core/Include/cmsis_gcc.h **** {
 794:/usr/local/lib/ARM/CMSIS/5.4.0/CMSIS/Core/Include/cmsis_gcc.h **** #if ((defined (__FPU_PRESENT) && (__FPU_PRESENT == 1U)) && \
 795:/usr/local/lib/ARM/CMSIS/5.4.0/CMSIS/Core/Include/cmsis_gcc.h ****      (defined (__FPU_USED   ) && (__FPU_USED    == 1U))     )
 796:/usr/local/lib/ARM/CMSIS/5.4.0/CMSIS/Core/Include/cmsis_gcc.h **** #if __has_builtin(__builtin_arm_set_fpscr)
 797:/usr/local/lib/ARM/CMSIS/5.4.0/CMSIS/Core/Include/cmsis_gcc.h **** // Re-enable using built-in when GCC has been fixed
 798:/usr/local/lib/ARM/CMSIS/5.4.0/CMSIS/Core/Include/cmsis_gcc.h **** // || (__GNUC__ > 7) || (__GNUC__ == 7 && __GNUC_MINOR__ >= 2)
 799:/usr/local/lib/ARM/CMSIS/5.4.0/CMSIS/Core/Include/cmsis_gcc.h ****   /* see https://gcc.gnu.org/ml/gcc-patches/2017-04/msg00443.html */
 800:/usr/local/lib/ARM/CMSIS/5.4.0/CMSIS/Core/Include/cmsis_gcc.h ****   __builtin_arm_set_fpscr(fpscr);
 801:/usr/local/lib/ARM/CMSIS/5.4.0/CMSIS/Core/Include/cmsis_gcc.h **** #else
 802:/usr/local/lib/ARM/CMSIS/5.4.0/CMSIS/Core/Include/cmsis_gcc.h ****   __ASM volatile ("VMSR fpscr, %0" : : "r" (fpscr) : "vfpcc", "memory");
 803:/usr/local/lib/ARM/CMSIS/5.4.0/CMSIS/Core/Include/cmsis_gcc.h **** #endif
 804:/usr/local/lib/ARM/CMSIS/5.4.0/CMSIS/Core/Include/cmsis_gcc.h **** #else
 805:/usr/local/lib/ARM/CMSIS/5.4.0/CMSIS/Core/Include/cmsis_gcc.h ****   (void)fpscr;
 806:/usr/local/lib/ARM/CMSIS/5.4.0/CMSIS/Core/Include/cmsis_gcc.h **** #endif
 807:/usr/local/lib/ARM/CMSIS/5.4.0/CMSIS/Core/Include/cmsis_gcc.h **** }
 808:/usr/local/lib/ARM/CMSIS/5.4.0/CMSIS/Core/Include/cmsis_gcc.h **** 
 809:/usr/local/lib/ARM/CMSIS/5.4.0/CMSIS/Core/Include/cmsis_gcc.h **** 
 810:/usr/local/lib/ARM/CMSIS/5.4.0/CMSIS/Core/Include/cmsis_gcc.h **** /*@} end of CMSIS_Core_RegAccFunctions */
 811:/usr/local/lib/ARM/CMSIS/5.4.0/CMSIS/Core/Include/cmsis_gcc.h **** 
 812:/usr/local/lib/ARM/CMSIS/5.4.0/CMSIS/Core/Include/cmsis_gcc.h **** 
 813:/usr/local/lib/ARM/CMSIS/5.4.0/CMSIS/Core/Include/cmsis_gcc.h **** /* ##########################  Core Instruction Access  ######################### */
 814:/usr/local/lib/ARM/CMSIS/5.4.0/CMSIS/Core/Include/cmsis_gcc.h **** /** \defgroup CMSIS_Core_InstructionInterface CMSIS Core Instruction Interface
 815:/usr/local/lib/ARM/CMSIS/5.4.0/CMSIS/Core/Include/cmsis_gcc.h ****   Access to dedicated instructions
 816:/usr/local/lib/ARM/CMSIS/5.4.0/CMSIS/Core/Include/cmsis_gcc.h ****   @{
 817:/usr/local/lib/ARM/CMSIS/5.4.0/CMSIS/Core/Include/cmsis_gcc.h **** */
 818:/usr/local/lib/ARM/CMSIS/5.4.0/CMSIS/Core/Include/cmsis_gcc.h **** 
 819:/usr/local/lib/ARM/CMSIS/5.4.0/CMSIS/Core/Include/cmsis_gcc.h **** /* Define macros for porting to both thumb1 and thumb2.
 820:/usr/local/lib/ARM/CMSIS/5.4.0/CMSIS/Core/Include/cmsis_gcc.h ****  * For thumb1, use low register (r0-r7), specified by constraint "l"
 821:/usr/local/lib/ARM/CMSIS/5.4.0/CMSIS/Core/Include/cmsis_gcc.h ****  * Otherwise, use general registers, specified by constraint "r" */
 822:/usr/local/lib/ARM/CMSIS/5.4.0/CMSIS/Core/Include/cmsis_gcc.h **** #if defined (__thumb__) && !defined (__thumb2__)
 823:/usr/local/lib/ARM/CMSIS/5.4.0/CMSIS/Core/Include/cmsis_gcc.h **** #define __CMSIS_GCC_OUT_REG(r) "=l" (r)
 824:/usr/local/lib/ARM/CMSIS/5.4.0/CMSIS/Core/Include/cmsis_gcc.h **** #define __CMSIS_GCC_RW_REG(r) "+l" (r)
 825:/usr/local/lib/ARM/CMSIS/5.4.0/CMSIS/Core/Include/cmsis_gcc.h **** #define __CMSIS_GCC_USE_REG(r) "l" (r)
 826:/usr/local/lib/ARM/CMSIS/5.4.0/CMSIS/Core/Include/cmsis_gcc.h **** #else
 827:/usr/local/lib/ARM/CMSIS/5.4.0/CMSIS/Core/Include/cmsis_gcc.h **** #define __CMSIS_GCC_OUT_REG(r) "=r" (r)
 828:/usr/local/lib/ARM/CMSIS/5.4.0/CMSIS/Core/Include/cmsis_gcc.h **** #define __CMSIS_GCC_RW_REG(r) "+r" (r)
 829:/usr/local/lib/ARM/CMSIS/5.4.0/CMSIS/Core/Include/cmsis_gcc.h **** #define __CMSIS_GCC_USE_REG(r) "r" (r)
 830:/usr/local/lib/ARM/CMSIS/5.4.0/CMSIS/Core/Include/cmsis_gcc.h **** #endif
 831:/usr/local/lib/ARM/CMSIS/5.4.0/CMSIS/Core/Include/cmsis_gcc.h **** 
 832:/usr/local/lib/ARM/CMSIS/5.4.0/CMSIS/Core/Include/cmsis_gcc.h **** /**
 833:/usr/local/lib/ARM/CMSIS/5.4.0/CMSIS/Core/Include/cmsis_gcc.h ****   \brief   No Operation
 834:/usr/local/lib/ARM/CMSIS/5.4.0/CMSIS/Core/Include/cmsis_gcc.h ****   \details No Operation does nothing. This instruction can be used for code alignment purposes.
ARM GAS  /tmp/ccOyeoN6.s 			page 30


 835:/usr/local/lib/ARM/CMSIS/5.4.0/CMSIS/Core/Include/cmsis_gcc.h ****  */
 836:/usr/local/lib/ARM/CMSIS/5.4.0/CMSIS/Core/Include/cmsis_gcc.h **** #define __NOP()                             __ASM volatile ("nop")
 837:/usr/local/lib/ARM/CMSIS/5.4.0/CMSIS/Core/Include/cmsis_gcc.h **** 
 838:/usr/local/lib/ARM/CMSIS/5.4.0/CMSIS/Core/Include/cmsis_gcc.h **** /**
 839:/usr/local/lib/ARM/CMSIS/5.4.0/CMSIS/Core/Include/cmsis_gcc.h ****   \brief   Wait For Interrupt
 840:/usr/local/lib/ARM/CMSIS/5.4.0/CMSIS/Core/Include/cmsis_gcc.h ****   \details Wait For Interrupt is a hint instruction that suspends execution until one of a number o
 841:/usr/local/lib/ARM/CMSIS/5.4.0/CMSIS/Core/Include/cmsis_gcc.h ****  */
 842:/usr/local/lib/ARM/CMSIS/5.4.0/CMSIS/Core/Include/cmsis_gcc.h **** #define __WFI()                             __ASM volatile ("wfi")
 843:/usr/local/lib/ARM/CMSIS/5.4.0/CMSIS/Core/Include/cmsis_gcc.h **** 
 844:/usr/local/lib/ARM/CMSIS/5.4.0/CMSIS/Core/Include/cmsis_gcc.h **** 
 845:/usr/local/lib/ARM/CMSIS/5.4.0/CMSIS/Core/Include/cmsis_gcc.h **** /**
 846:/usr/local/lib/ARM/CMSIS/5.4.0/CMSIS/Core/Include/cmsis_gcc.h ****   \brief   Wait For Event
 847:/usr/local/lib/ARM/CMSIS/5.4.0/CMSIS/Core/Include/cmsis_gcc.h ****   \details Wait For Event is a hint instruction that permits the processor to enter
 848:/usr/local/lib/ARM/CMSIS/5.4.0/CMSIS/Core/Include/cmsis_gcc.h ****            a low-power state until one of a number of events occurs.
 849:/usr/local/lib/ARM/CMSIS/5.4.0/CMSIS/Core/Include/cmsis_gcc.h ****  */
 850:/usr/local/lib/ARM/CMSIS/5.4.0/CMSIS/Core/Include/cmsis_gcc.h **** #define __WFE()                             __ASM volatile ("wfe")
 851:/usr/local/lib/ARM/CMSIS/5.4.0/CMSIS/Core/Include/cmsis_gcc.h **** 
 852:/usr/local/lib/ARM/CMSIS/5.4.0/CMSIS/Core/Include/cmsis_gcc.h **** 
 853:/usr/local/lib/ARM/CMSIS/5.4.0/CMSIS/Core/Include/cmsis_gcc.h **** /**
 854:/usr/local/lib/ARM/CMSIS/5.4.0/CMSIS/Core/Include/cmsis_gcc.h ****   \brief   Send Event
 855:/usr/local/lib/ARM/CMSIS/5.4.0/CMSIS/Core/Include/cmsis_gcc.h ****   \details Send Event is a hint instruction. It causes an event to be signaled to the CPU.
 856:/usr/local/lib/ARM/CMSIS/5.4.0/CMSIS/Core/Include/cmsis_gcc.h ****  */
 857:/usr/local/lib/ARM/CMSIS/5.4.0/CMSIS/Core/Include/cmsis_gcc.h **** #define __SEV()                             __ASM volatile ("sev")
 858:/usr/local/lib/ARM/CMSIS/5.4.0/CMSIS/Core/Include/cmsis_gcc.h **** 
 859:/usr/local/lib/ARM/CMSIS/5.4.0/CMSIS/Core/Include/cmsis_gcc.h **** 
 860:/usr/local/lib/ARM/CMSIS/5.4.0/CMSIS/Core/Include/cmsis_gcc.h **** /**
 861:/usr/local/lib/ARM/CMSIS/5.4.0/CMSIS/Core/Include/cmsis_gcc.h ****   \brief   Instruction Synchronization Barrier
 862:/usr/local/lib/ARM/CMSIS/5.4.0/CMSIS/Core/Include/cmsis_gcc.h ****   \details Instruction Synchronization Barrier flushes the pipeline in the processor,
 863:/usr/local/lib/ARM/CMSIS/5.4.0/CMSIS/Core/Include/cmsis_gcc.h ****            so that all instructions following the ISB are fetched from cache or memory,
 864:/usr/local/lib/ARM/CMSIS/5.4.0/CMSIS/Core/Include/cmsis_gcc.h ****            after the instruction has been completed.
 865:/usr/local/lib/ARM/CMSIS/5.4.0/CMSIS/Core/Include/cmsis_gcc.h ****  */
 866:/usr/local/lib/ARM/CMSIS/5.4.0/CMSIS/Core/Include/cmsis_gcc.h **** __STATIC_FORCEINLINE void __ISB(void)
 867:/usr/local/lib/ARM/CMSIS/5.4.0/CMSIS/Core/Include/cmsis_gcc.h **** {
 868:/usr/local/lib/ARM/CMSIS/5.4.0/CMSIS/Core/Include/cmsis_gcc.h ****   __ASM volatile ("isb 0xF":::"memory");
 869:/usr/local/lib/ARM/CMSIS/5.4.0/CMSIS/Core/Include/cmsis_gcc.h **** }
 870:/usr/local/lib/ARM/CMSIS/5.4.0/CMSIS/Core/Include/cmsis_gcc.h **** 
 871:/usr/local/lib/ARM/CMSIS/5.4.0/CMSIS/Core/Include/cmsis_gcc.h **** 
 872:/usr/local/lib/ARM/CMSIS/5.4.0/CMSIS/Core/Include/cmsis_gcc.h **** /**
 873:/usr/local/lib/ARM/CMSIS/5.4.0/CMSIS/Core/Include/cmsis_gcc.h ****   \brief   Data Synchronization Barrier
 874:/usr/local/lib/ARM/CMSIS/5.4.0/CMSIS/Core/Include/cmsis_gcc.h ****   \details Acts as a special kind of Data Memory Barrier.
 875:/usr/local/lib/ARM/CMSIS/5.4.0/CMSIS/Core/Include/cmsis_gcc.h ****            It completes when all explicit memory accesses before this instruction complete.
 876:/usr/local/lib/ARM/CMSIS/5.4.0/CMSIS/Core/Include/cmsis_gcc.h ****  */
 877:/usr/local/lib/ARM/CMSIS/5.4.0/CMSIS/Core/Include/cmsis_gcc.h **** __STATIC_FORCEINLINE void __DSB(void)
 878:/usr/local/lib/ARM/CMSIS/5.4.0/CMSIS/Core/Include/cmsis_gcc.h **** {
 879:/usr/local/lib/ARM/CMSIS/5.4.0/CMSIS/Core/Include/cmsis_gcc.h ****   __ASM volatile ("dsb 0xF":::"memory");
 446              		.loc 3 879 0
 447              		.syntax unified
 448              	@ 879 "/usr/local/lib/ARM/CMSIS/5.4.0/CMSIS/Core/Include/cmsis_gcc.h" 1
 449 0008 BFF34F8F 		dsb 0xF
 450              	@ 0 "" 2
 451              		.thumb
 452              		.syntax unified
 453              	.LBE233:
 454              	.LBE232:
  57:/usr/local/lib/ARM/CMSIS/5.4.0/CMSIS/RTOS2/RTX/Source/rtx_kernel.c ****     osRtxInfo.kernel.pendSV = 0U;
 455              		.loc 1 57 0
 456 000c 9B7A     		ldrb	r3, [r3, #10]	@ zero_extendqisi2
ARM GAS  /tmp/ccOyeoN6.s 			page 31


 457 000e 2BB1     		cbz	r3, .L38
  58:/usr/local/lib/ARM/CMSIS/5.4.0/CMSIS/RTOS2/RTX/Source/rtx_kernel.c ****     SetPendSV();
 458              		.loc 1 58 0
 459 0010 044B     		ldr	r3, .L40
 460 0012 9A72     		strb	r2, [r3, #10]
 461              	.LBB234:
 462              	.LBB235:
 463              		.file 4 "/usr/local/lib/ARM/CMSIS/5.4.0/CMSIS/RTOS2/RTX/Source/rtx_core_cm.h"
   1:/usr/local/lib/ARM/CMSIS/5.4.0/CMSIS/RTOS2/RTX/Source/rtx_core_cm.h **** /*
   2:/usr/local/lib/ARM/CMSIS/5.4.0/CMSIS/RTOS2/RTX/Source/rtx_core_cm.h ****  * Copyright (c) 2013-2018 Arm Limited. All rights reserved.
   3:/usr/local/lib/ARM/CMSIS/5.4.0/CMSIS/RTOS2/RTX/Source/rtx_core_cm.h ****  *
   4:/usr/local/lib/ARM/CMSIS/5.4.0/CMSIS/RTOS2/RTX/Source/rtx_core_cm.h ****  * SPDX-License-Identifier: Apache-2.0
   5:/usr/local/lib/ARM/CMSIS/5.4.0/CMSIS/RTOS2/RTX/Source/rtx_core_cm.h ****  *
   6:/usr/local/lib/ARM/CMSIS/5.4.0/CMSIS/RTOS2/RTX/Source/rtx_core_cm.h ****  * Licensed under the Apache License, Version 2.0 (the License); you may
   7:/usr/local/lib/ARM/CMSIS/5.4.0/CMSIS/RTOS2/RTX/Source/rtx_core_cm.h ****  * not use this file except in compliance with the License.
   8:/usr/local/lib/ARM/CMSIS/5.4.0/CMSIS/RTOS2/RTX/Source/rtx_core_cm.h ****  * You may obtain a copy of the License at
   9:/usr/local/lib/ARM/CMSIS/5.4.0/CMSIS/RTOS2/RTX/Source/rtx_core_cm.h ****  *
  10:/usr/local/lib/ARM/CMSIS/5.4.0/CMSIS/RTOS2/RTX/Source/rtx_core_cm.h ****  * www.apache.org/licenses/LICENSE-2.0
  11:/usr/local/lib/ARM/CMSIS/5.4.0/CMSIS/RTOS2/RTX/Source/rtx_core_cm.h ****  *
  12:/usr/local/lib/ARM/CMSIS/5.4.0/CMSIS/RTOS2/RTX/Source/rtx_core_cm.h ****  * Unless required by applicable law or agreed to in writing, software
  13:/usr/local/lib/ARM/CMSIS/5.4.0/CMSIS/RTOS2/RTX/Source/rtx_core_cm.h ****  * distributed under the License is distributed on an AS IS BASIS, WITHOUT
  14:/usr/local/lib/ARM/CMSIS/5.4.0/CMSIS/RTOS2/RTX/Source/rtx_core_cm.h ****  * WARRANTIES OR CONDITIONS OF ANY KIND, either express or implied.
  15:/usr/local/lib/ARM/CMSIS/5.4.0/CMSIS/RTOS2/RTX/Source/rtx_core_cm.h ****  * See the License for the specific language governing permissions and
  16:/usr/local/lib/ARM/CMSIS/5.4.0/CMSIS/RTOS2/RTX/Source/rtx_core_cm.h ****  * limitations under the License.
  17:/usr/local/lib/ARM/CMSIS/5.4.0/CMSIS/RTOS2/RTX/Source/rtx_core_cm.h ****  *
  18:/usr/local/lib/ARM/CMSIS/5.4.0/CMSIS/RTOS2/RTX/Source/rtx_core_cm.h ****  * -----------------------------------------------------------------------------
  19:/usr/local/lib/ARM/CMSIS/5.4.0/CMSIS/RTOS2/RTX/Source/rtx_core_cm.h ****  *
  20:/usr/local/lib/ARM/CMSIS/5.4.0/CMSIS/RTOS2/RTX/Source/rtx_core_cm.h ****  * Project:     CMSIS-RTOS RTX
  21:/usr/local/lib/ARM/CMSIS/5.4.0/CMSIS/RTOS2/RTX/Source/rtx_core_cm.h ****  * Title:       Cortex-M Core definitions
  22:/usr/local/lib/ARM/CMSIS/5.4.0/CMSIS/RTOS2/RTX/Source/rtx_core_cm.h ****  *
  23:/usr/local/lib/ARM/CMSIS/5.4.0/CMSIS/RTOS2/RTX/Source/rtx_core_cm.h ****  * -----------------------------------------------------------------------------
  24:/usr/local/lib/ARM/CMSIS/5.4.0/CMSIS/RTOS2/RTX/Source/rtx_core_cm.h ****  */
  25:/usr/local/lib/ARM/CMSIS/5.4.0/CMSIS/RTOS2/RTX/Source/rtx_core_cm.h **** 
  26:/usr/local/lib/ARM/CMSIS/5.4.0/CMSIS/RTOS2/RTX/Source/rtx_core_cm.h **** #ifndef RTX_CORE_CM_H_
  27:/usr/local/lib/ARM/CMSIS/5.4.0/CMSIS/RTOS2/RTX/Source/rtx_core_cm.h **** #define RTX_CORE_CM_H_
  28:/usr/local/lib/ARM/CMSIS/5.4.0/CMSIS/RTOS2/RTX/Source/rtx_core_cm.h **** 
  29:/usr/local/lib/ARM/CMSIS/5.4.0/CMSIS/RTOS2/RTX/Source/rtx_core_cm.h **** #ifndef RTX_CORE_C_H_
  30:/usr/local/lib/ARM/CMSIS/5.4.0/CMSIS/RTOS2/RTX/Source/rtx_core_cm.h **** #include "RTE_Components.h"
  31:/usr/local/lib/ARM/CMSIS/5.4.0/CMSIS/RTOS2/RTX/Source/rtx_core_cm.h **** #include CMSIS_device_header
  32:/usr/local/lib/ARM/CMSIS/5.4.0/CMSIS/RTOS2/RTX/Source/rtx_core_cm.h **** #endif
  33:/usr/local/lib/ARM/CMSIS/5.4.0/CMSIS/RTOS2/RTX/Source/rtx_core_cm.h **** 
  34:/usr/local/lib/ARM/CMSIS/5.4.0/CMSIS/RTOS2/RTX/Source/rtx_core_cm.h **** #include <stdbool.h>
  35:/usr/local/lib/ARM/CMSIS/5.4.0/CMSIS/RTOS2/RTX/Source/rtx_core_cm.h **** typedef bool bool_t;
  36:/usr/local/lib/ARM/CMSIS/5.4.0/CMSIS/RTOS2/RTX/Source/rtx_core_cm.h **** #define FALSE                   ((bool_t)0)
  37:/usr/local/lib/ARM/CMSIS/5.4.0/CMSIS/RTOS2/RTX/Source/rtx_core_cm.h **** #define TRUE                    ((bool_t)1)
  38:/usr/local/lib/ARM/CMSIS/5.4.0/CMSIS/RTOS2/RTX/Source/rtx_core_cm.h **** 
  39:/usr/local/lib/ARM/CMSIS/5.4.0/CMSIS/RTOS2/RTX/Source/rtx_core_cm.h **** #ifdef  RTE_CMSIS_RTOS2_RTX5_ARMV8M_NS
  40:/usr/local/lib/ARM/CMSIS/5.4.0/CMSIS/RTOS2/RTX/Source/rtx_core_cm.h **** #define DOMAIN_NS               1
  41:/usr/local/lib/ARM/CMSIS/5.4.0/CMSIS/RTOS2/RTX/Source/rtx_core_cm.h **** #endif
  42:/usr/local/lib/ARM/CMSIS/5.4.0/CMSIS/RTOS2/RTX/Source/rtx_core_cm.h **** 
  43:/usr/local/lib/ARM/CMSIS/5.4.0/CMSIS/RTOS2/RTX/Source/rtx_core_cm.h **** #ifndef DOMAIN_NS
  44:/usr/local/lib/ARM/CMSIS/5.4.0/CMSIS/RTOS2/RTX/Source/rtx_core_cm.h **** #define DOMAIN_NS               0
  45:/usr/local/lib/ARM/CMSIS/5.4.0/CMSIS/RTOS2/RTX/Source/rtx_core_cm.h **** #endif
  46:/usr/local/lib/ARM/CMSIS/5.4.0/CMSIS/RTOS2/RTX/Source/rtx_core_cm.h **** 
  47:/usr/local/lib/ARM/CMSIS/5.4.0/CMSIS/RTOS2/RTX/Source/rtx_core_cm.h **** #if    (DOMAIN_NS == 1)
  48:/usr/local/lib/ARM/CMSIS/5.4.0/CMSIS/RTOS2/RTX/Source/rtx_core_cm.h **** #if   ((!defined(__ARM_ARCH_8M_BASE__) || (__ARM_ARCH_8M_BASE__ == 0)) && \
  49:/usr/local/lib/ARM/CMSIS/5.4.0/CMSIS/RTOS2/RTX/Source/rtx_core_cm.h ****        (!defined(__ARM_ARCH_8M_MAIN__) || (__ARM_ARCH_8M_MAIN__ == 0)))
ARM GAS  /tmp/ccOyeoN6.s 			page 32


  50:/usr/local/lib/ARM/CMSIS/5.4.0/CMSIS/RTOS2/RTX/Source/rtx_core_cm.h **** #error "Non-secure domain requires ARMv8-M Architecture!"
  51:/usr/local/lib/ARM/CMSIS/5.4.0/CMSIS/RTOS2/RTX/Source/rtx_core_cm.h **** #endif
  52:/usr/local/lib/ARM/CMSIS/5.4.0/CMSIS/RTOS2/RTX/Source/rtx_core_cm.h **** #endif
  53:/usr/local/lib/ARM/CMSIS/5.4.0/CMSIS/RTOS2/RTX/Source/rtx_core_cm.h **** 
  54:/usr/local/lib/ARM/CMSIS/5.4.0/CMSIS/RTOS2/RTX/Source/rtx_core_cm.h **** #ifndef EXCLUSIVE_ACCESS
  55:/usr/local/lib/ARM/CMSIS/5.4.0/CMSIS/RTOS2/RTX/Source/rtx_core_cm.h **** #if    ((defined(__ARM_ARCH_7M__)      && (__ARM_ARCH_7M__      != 0)) || \
  56:/usr/local/lib/ARM/CMSIS/5.4.0/CMSIS/RTOS2/RTX/Source/rtx_core_cm.h ****         (defined(__ARM_ARCH_7EM__)     && (__ARM_ARCH_7EM__     != 0)) || \
  57:/usr/local/lib/ARM/CMSIS/5.4.0/CMSIS/RTOS2/RTX/Source/rtx_core_cm.h ****         (defined(__ARM_ARCH_8M_BASE__) && (__ARM_ARCH_8M_BASE__ != 0)) || \
  58:/usr/local/lib/ARM/CMSIS/5.4.0/CMSIS/RTOS2/RTX/Source/rtx_core_cm.h ****         (defined(__ARM_ARCH_8M_MAIN__) && (__ARM_ARCH_8M_MAIN__ != 0)))
  59:/usr/local/lib/ARM/CMSIS/5.4.0/CMSIS/RTOS2/RTX/Source/rtx_core_cm.h **** #define EXCLUSIVE_ACCESS        1
  60:/usr/local/lib/ARM/CMSIS/5.4.0/CMSIS/RTOS2/RTX/Source/rtx_core_cm.h **** #else
  61:/usr/local/lib/ARM/CMSIS/5.4.0/CMSIS/RTOS2/RTX/Source/rtx_core_cm.h **** #define EXCLUSIVE_ACCESS        0
  62:/usr/local/lib/ARM/CMSIS/5.4.0/CMSIS/RTOS2/RTX/Source/rtx_core_cm.h **** #endif
  63:/usr/local/lib/ARM/CMSIS/5.4.0/CMSIS/RTOS2/RTX/Source/rtx_core_cm.h **** #endif
  64:/usr/local/lib/ARM/CMSIS/5.4.0/CMSIS/RTOS2/RTX/Source/rtx_core_cm.h **** 
  65:/usr/local/lib/ARM/CMSIS/5.4.0/CMSIS/RTOS2/RTX/Source/rtx_core_cm.h **** #define OS_TICK_HANDLER         SysTick_Handler
  66:/usr/local/lib/ARM/CMSIS/5.4.0/CMSIS/RTOS2/RTX/Source/rtx_core_cm.h **** 
  67:/usr/local/lib/ARM/CMSIS/5.4.0/CMSIS/RTOS2/RTX/Source/rtx_core_cm.h **** /// xPSR_Initialization Value
  68:/usr/local/lib/ARM/CMSIS/5.4.0/CMSIS/RTOS2/RTX/Source/rtx_core_cm.h **** /// \param[in]  privileged      true=privileged, false=unprivileged
  69:/usr/local/lib/ARM/CMSIS/5.4.0/CMSIS/RTOS2/RTX/Source/rtx_core_cm.h **** /// \param[in]  thumb           true=Thumb, false=ARM
  70:/usr/local/lib/ARM/CMSIS/5.4.0/CMSIS/RTOS2/RTX/Source/rtx_core_cm.h **** /// \return                     xPSR Init Value
  71:/usr/local/lib/ARM/CMSIS/5.4.0/CMSIS/RTOS2/RTX/Source/rtx_core_cm.h **** __STATIC_INLINE uint32_t xPSR_InitVal (bool_t privileged, bool_t thumb) {
  72:/usr/local/lib/ARM/CMSIS/5.4.0/CMSIS/RTOS2/RTX/Source/rtx_core_cm.h ****   (void)privileged;
  73:/usr/local/lib/ARM/CMSIS/5.4.0/CMSIS/RTOS2/RTX/Source/rtx_core_cm.h ****   (void)thumb;
  74:/usr/local/lib/ARM/CMSIS/5.4.0/CMSIS/RTOS2/RTX/Source/rtx_core_cm.h ****   return (0x01000000U);
  75:/usr/local/lib/ARM/CMSIS/5.4.0/CMSIS/RTOS2/RTX/Source/rtx_core_cm.h **** }
  76:/usr/local/lib/ARM/CMSIS/5.4.0/CMSIS/RTOS2/RTX/Source/rtx_core_cm.h **** 
  77:/usr/local/lib/ARM/CMSIS/5.4.0/CMSIS/RTOS2/RTX/Source/rtx_core_cm.h **** // Stack Frame:
  78:/usr/local/lib/ARM/CMSIS/5.4.0/CMSIS/RTOS2/RTX/Source/rtx_core_cm.h **** //  - Extended: S16-S31, R4-R11, R0-R3, R12, LR, PC, xPSR, S0-S15, FPSCR
  79:/usr/local/lib/ARM/CMSIS/5.4.0/CMSIS/RTOS2/RTX/Source/rtx_core_cm.h **** //  - Basic:             R4-R11, R0-R3, R12, LR, PC, xPSR
  80:/usr/local/lib/ARM/CMSIS/5.4.0/CMSIS/RTOS2/RTX/Source/rtx_core_cm.h **** 
  81:/usr/local/lib/ARM/CMSIS/5.4.0/CMSIS/RTOS2/RTX/Source/rtx_core_cm.h **** /// Stack Frame Initialization Value (EXC_RETURN[7..0])
  82:/usr/local/lib/ARM/CMSIS/5.4.0/CMSIS/RTOS2/RTX/Source/rtx_core_cm.h **** #if (DOMAIN_NS == 1)
  83:/usr/local/lib/ARM/CMSIS/5.4.0/CMSIS/RTOS2/RTX/Source/rtx_core_cm.h **** #define STACK_FRAME_INIT_VAL    0xBCU
  84:/usr/local/lib/ARM/CMSIS/5.4.0/CMSIS/RTOS2/RTX/Source/rtx_core_cm.h **** #else
  85:/usr/local/lib/ARM/CMSIS/5.4.0/CMSIS/RTOS2/RTX/Source/rtx_core_cm.h **** #define STACK_FRAME_INIT_VAL    0xFDU
  86:/usr/local/lib/ARM/CMSIS/5.4.0/CMSIS/RTOS2/RTX/Source/rtx_core_cm.h **** #endif
  87:/usr/local/lib/ARM/CMSIS/5.4.0/CMSIS/RTOS2/RTX/Source/rtx_core_cm.h **** 
  88:/usr/local/lib/ARM/CMSIS/5.4.0/CMSIS/RTOS2/RTX/Source/rtx_core_cm.h **** /// Stack Offset of Register R0
  89:/usr/local/lib/ARM/CMSIS/5.4.0/CMSIS/RTOS2/RTX/Source/rtx_core_cm.h **** /// \param[in]  stack_frame     Stack Frame (EXC_RETURN[7..0])
  90:/usr/local/lib/ARM/CMSIS/5.4.0/CMSIS/RTOS2/RTX/Source/rtx_core_cm.h **** /// \return                     R0 Offset
  91:/usr/local/lib/ARM/CMSIS/5.4.0/CMSIS/RTOS2/RTX/Source/rtx_core_cm.h **** __STATIC_INLINE uint32_t StackOffsetR0 (uint8_t stack_frame) {
  92:/usr/local/lib/ARM/CMSIS/5.4.0/CMSIS/RTOS2/RTX/Source/rtx_core_cm.h **** #if (__FPU_USED == 1U)
  93:/usr/local/lib/ARM/CMSIS/5.4.0/CMSIS/RTOS2/RTX/Source/rtx_core_cm.h ****   return (((stack_frame & 0x10U) == 0U) ? ((16U+8U)*4U) : (8U*4U));
  94:/usr/local/lib/ARM/CMSIS/5.4.0/CMSIS/RTOS2/RTX/Source/rtx_core_cm.h **** #else
  95:/usr/local/lib/ARM/CMSIS/5.4.0/CMSIS/RTOS2/RTX/Source/rtx_core_cm.h ****   (void)stack_frame;
  96:/usr/local/lib/ARM/CMSIS/5.4.0/CMSIS/RTOS2/RTX/Source/rtx_core_cm.h ****   return (8U*4U);
  97:/usr/local/lib/ARM/CMSIS/5.4.0/CMSIS/RTOS2/RTX/Source/rtx_core_cm.h **** #endif
  98:/usr/local/lib/ARM/CMSIS/5.4.0/CMSIS/RTOS2/RTX/Source/rtx_core_cm.h **** }
  99:/usr/local/lib/ARM/CMSIS/5.4.0/CMSIS/RTOS2/RTX/Source/rtx_core_cm.h **** 
 100:/usr/local/lib/ARM/CMSIS/5.4.0/CMSIS/RTOS2/RTX/Source/rtx_core_cm.h **** 
 101:/usr/local/lib/ARM/CMSIS/5.4.0/CMSIS/RTOS2/RTX/Source/rtx_core_cm.h **** //  ==== Core functions ====
 102:/usr/local/lib/ARM/CMSIS/5.4.0/CMSIS/RTOS2/RTX/Source/rtx_core_cm.h **** 
 103:/usr/local/lib/ARM/CMSIS/5.4.0/CMSIS/RTOS2/RTX/Source/rtx_core_cm.h **** //lint -sem(__get_CONTROL, pure)
 104:/usr/local/lib/ARM/CMSIS/5.4.0/CMSIS/RTOS2/RTX/Source/rtx_core_cm.h **** //lint -sem(__get_IPSR,    pure)
 105:/usr/local/lib/ARM/CMSIS/5.4.0/CMSIS/RTOS2/RTX/Source/rtx_core_cm.h **** //lint -sem(__get_PRIMASK, pure)
 106:/usr/local/lib/ARM/CMSIS/5.4.0/CMSIS/RTOS2/RTX/Source/rtx_core_cm.h **** //lint -sem(__get_BASEPRI, pure)
ARM GAS  /tmp/ccOyeoN6.s 			page 33


 107:/usr/local/lib/ARM/CMSIS/5.4.0/CMSIS/RTOS2/RTX/Source/rtx_core_cm.h **** 
 108:/usr/local/lib/ARM/CMSIS/5.4.0/CMSIS/RTOS2/RTX/Source/rtx_core_cm.h **** /// Check if running Privileged
 109:/usr/local/lib/ARM/CMSIS/5.4.0/CMSIS/RTOS2/RTX/Source/rtx_core_cm.h **** /// \return     true=privileged, false=unprivileged
 110:/usr/local/lib/ARM/CMSIS/5.4.0/CMSIS/RTOS2/RTX/Source/rtx_core_cm.h **** __STATIC_INLINE bool_t IsPrivileged (void) {
 111:/usr/local/lib/ARM/CMSIS/5.4.0/CMSIS/RTOS2/RTX/Source/rtx_core_cm.h ****   return ((__get_CONTROL() & 1U) == 0U);
 112:/usr/local/lib/ARM/CMSIS/5.4.0/CMSIS/RTOS2/RTX/Source/rtx_core_cm.h **** }
 113:/usr/local/lib/ARM/CMSIS/5.4.0/CMSIS/RTOS2/RTX/Source/rtx_core_cm.h **** 
 114:/usr/local/lib/ARM/CMSIS/5.4.0/CMSIS/RTOS2/RTX/Source/rtx_core_cm.h **** /// Check if in IRQ Mode
 115:/usr/local/lib/ARM/CMSIS/5.4.0/CMSIS/RTOS2/RTX/Source/rtx_core_cm.h **** /// \return     true=IRQ, false=thread
 116:/usr/local/lib/ARM/CMSIS/5.4.0/CMSIS/RTOS2/RTX/Source/rtx_core_cm.h **** __STATIC_INLINE bool_t IsIrqMode (void) {
 117:/usr/local/lib/ARM/CMSIS/5.4.0/CMSIS/RTOS2/RTX/Source/rtx_core_cm.h ****   return (__get_IPSR() != 0U);
 118:/usr/local/lib/ARM/CMSIS/5.4.0/CMSIS/RTOS2/RTX/Source/rtx_core_cm.h **** }
 119:/usr/local/lib/ARM/CMSIS/5.4.0/CMSIS/RTOS2/RTX/Source/rtx_core_cm.h **** 
 120:/usr/local/lib/ARM/CMSIS/5.4.0/CMSIS/RTOS2/RTX/Source/rtx_core_cm.h **** /// Check if IRQ is Masked
 121:/usr/local/lib/ARM/CMSIS/5.4.0/CMSIS/RTOS2/RTX/Source/rtx_core_cm.h **** /// \return     true=masked, false=not masked
 122:/usr/local/lib/ARM/CMSIS/5.4.0/CMSIS/RTOS2/RTX/Source/rtx_core_cm.h **** __STATIC_INLINE bool_t IsIrqMasked (void) {
 123:/usr/local/lib/ARM/CMSIS/5.4.0/CMSIS/RTOS2/RTX/Source/rtx_core_cm.h **** #if   ((defined(__ARM_ARCH_7M__)      && (__ARM_ARCH_7M__      != 0)) || \
 124:/usr/local/lib/ARM/CMSIS/5.4.0/CMSIS/RTOS2/RTX/Source/rtx_core_cm.h ****        (defined(__ARM_ARCH_7EM__)     && (__ARM_ARCH_7EM__     != 0)) || \
 125:/usr/local/lib/ARM/CMSIS/5.4.0/CMSIS/RTOS2/RTX/Source/rtx_core_cm.h ****        (defined(__ARM_ARCH_8M_MAIN__) && (__ARM_ARCH_8M_MAIN__ != 0)))
 126:/usr/local/lib/ARM/CMSIS/5.4.0/CMSIS/RTOS2/RTX/Source/rtx_core_cm.h ****   return ((__get_PRIMASK() != 0U) || (__get_BASEPRI() != 0U));
 127:/usr/local/lib/ARM/CMSIS/5.4.0/CMSIS/RTOS2/RTX/Source/rtx_core_cm.h **** #else
 128:/usr/local/lib/ARM/CMSIS/5.4.0/CMSIS/RTOS2/RTX/Source/rtx_core_cm.h ****   return  (__get_PRIMASK() != 0U);
 129:/usr/local/lib/ARM/CMSIS/5.4.0/CMSIS/RTOS2/RTX/Source/rtx_core_cm.h **** #endif
 130:/usr/local/lib/ARM/CMSIS/5.4.0/CMSIS/RTOS2/RTX/Source/rtx_core_cm.h **** }
 131:/usr/local/lib/ARM/CMSIS/5.4.0/CMSIS/RTOS2/RTX/Source/rtx_core_cm.h **** 
 132:/usr/local/lib/ARM/CMSIS/5.4.0/CMSIS/RTOS2/RTX/Source/rtx_core_cm.h **** 
 133:/usr/local/lib/ARM/CMSIS/5.4.0/CMSIS/RTOS2/RTX/Source/rtx_core_cm.h **** //  ==== Core Peripherals functions ====
 134:/usr/local/lib/ARM/CMSIS/5.4.0/CMSIS/RTOS2/RTX/Source/rtx_core_cm.h **** 
 135:/usr/local/lib/ARM/CMSIS/5.4.0/CMSIS/RTOS2/RTX/Source/rtx_core_cm.h **** /// Setup SVC and PendSV System Service Calls
 136:/usr/local/lib/ARM/CMSIS/5.4.0/CMSIS/RTOS2/RTX/Source/rtx_core_cm.h **** __STATIC_INLINE void SVC_Setup (void) {
 137:/usr/local/lib/ARM/CMSIS/5.4.0/CMSIS/RTOS2/RTX/Source/rtx_core_cm.h **** #if   ((defined(__ARM_ARCH_8M_MAIN__) && (__ARM_ARCH_8M_MAIN__ != 0)) || \
 138:/usr/local/lib/ARM/CMSIS/5.4.0/CMSIS/RTOS2/RTX/Source/rtx_core_cm.h ****        (defined(__CORTEX_M)           && (__CORTEX_M == 7U)))
 139:/usr/local/lib/ARM/CMSIS/5.4.0/CMSIS/RTOS2/RTX/Source/rtx_core_cm.h ****   uint32_t p, n;
 140:/usr/local/lib/ARM/CMSIS/5.4.0/CMSIS/RTOS2/RTX/Source/rtx_core_cm.h **** 
 141:/usr/local/lib/ARM/CMSIS/5.4.0/CMSIS/RTOS2/RTX/Source/rtx_core_cm.h ****   SCB->SHPR[10] = 0xFFU;
 142:/usr/local/lib/ARM/CMSIS/5.4.0/CMSIS/RTOS2/RTX/Source/rtx_core_cm.h ****   n = 32U - (uint32_t)__CLZ(~(SCB->SHPR[10] | 0xFFFFFF00U));
 143:/usr/local/lib/ARM/CMSIS/5.4.0/CMSIS/RTOS2/RTX/Source/rtx_core_cm.h ****   p = NVIC_GetPriorityGrouping();
 144:/usr/local/lib/ARM/CMSIS/5.4.0/CMSIS/RTOS2/RTX/Source/rtx_core_cm.h ****   if (p >= n) {
 145:/usr/local/lib/ARM/CMSIS/5.4.0/CMSIS/RTOS2/RTX/Source/rtx_core_cm.h ****     n = p + 1U;
 146:/usr/local/lib/ARM/CMSIS/5.4.0/CMSIS/RTOS2/RTX/Source/rtx_core_cm.h ****   }
 147:/usr/local/lib/ARM/CMSIS/5.4.0/CMSIS/RTOS2/RTX/Source/rtx_core_cm.h ****   SCB->SHPR[7] = (uint8_t)(0xFEU << n);
 148:/usr/local/lib/ARM/CMSIS/5.4.0/CMSIS/RTOS2/RTX/Source/rtx_core_cm.h **** #elif  (defined(__ARM_ARCH_8M_BASE__) && (__ARM_ARCH_8M_BASE__ != 0))
 149:/usr/local/lib/ARM/CMSIS/5.4.0/CMSIS/RTOS2/RTX/Source/rtx_core_cm.h ****   uint32_t n;
 150:/usr/local/lib/ARM/CMSIS/5.4.0/CMSIS/RTOS2/RTX/Source/rtx_core_cm.h **** 
 151:/usr/local/lib/ARM/CMSIS/5.4.0/CMSIS/RTOS2/RTX/Source/rtx_core_cm.h ****   SCB->SHPR[1] |= 0x00FF0000U;
 152:/usr/local/lib/ARM/CMSIS/5.4.0/CMSIS/RTOS2/RTX/Source/rtx_core_cm.h ****   n = SCB->SHPR[1];
 153:/usr/local/lib/ARM/CMSIS/5.4.0/CMSIS/RTOS2/RTX/Source/rtx_core_cm.h ****   SCB->SHPR[0] |= (n << (8+1)) & 0xFC000000U;
 154:/usr/local/lib/ARM/CMSIS/5.4.0/CMSIS/RTOS2/RTX/Source/rtx_core_cm.h **** #elif ((defined(__ARM_ARCH_7M__)      && (__ARM_ARCH_7M__      != 0)) || \
 155:/usr/local/lib/ARM/CMSIS/5.4.0/CMSIS/RTOS2/RTX/Source/rtx_core_cm.h ****        (defined(__ARM_ARCH_7EM__)     && (__ARM_ARCH_7EM__     != 0)))
 156:/usr/local/lib/ARM/CMSIS/5.4.0/CMSIS/RTOS2/RTX/Source/rtx_core_cm.h ****   uint32_t p, n;
 157:/usr/local/lib/ARM/CMSIS/5.4.0/CMSIS/RTOS2/RTX/Source/rtx_core_cm.h **** 
 158:/usr/local/lib/ARM/CMSIS/5.4.0/CMSIS/RTOS2/RTX/Source/rtx_core_cm.h ****   SCB->SHP[10] = 0xFFU;
 159:/usr/local/lib/ARM/CMSIS/5.4.0/CMSIS/RTOS2/RTX/Source/rtx_core_cm.h ****   n = 32U - (uint32_t)__CLZ(~(SCB->SHP[10] | 0xFFFFFF00U));
 160:/usr/local/lib/ARM/CMSIS/5.4.0/CMSIS/RTOS2/RTX/Source/rtx_core_cm.h ****   p = NVIC_GetPriorityGrouping();
 161:/usr/local/lib/ARM/CMSIS/5.4.0/CMSIS/RTOS2/RTX/Source/rtx_core_cm.h ****   if (p >= n) {
 162:/usr/local/lib/ARM/CMSIS/5.4.0/CMSIS/RTOS2/RTX/Source/rtx_core_cm.h ****     n = p + 1U;
 163:/usr/local/lib/ARM/CMSIS/5.4.0/CMSIS/RTOS2/RTX/Source/rtx_core_cm.h ****   }
ARM GAS  /tmp/ccOyeoN6.s 			page 34


 164:/usr/local/lib/ARM/CMSIS/5.4.0/CMSIS/RTOS2/RTX/Source/rtx_core_cm.h ****   SCB->SHP[7] = (uint8_t)(0xFEU << n);
 165:/usr/local/lib/ARM/CMSIS/5.4.0/CMSIS/RTOS2/RTX/Source/rtx_core_cm.h **** #elif  (defined(__ARM_ARCH_6M__)      && (__ARM_ARCH_6M__      != 0))
 166:/usr/local/lib/ARM/CMSIS/5.4.0/CMSIS/RTOS2/RTX/Source/rtx_core_cm.h ****   uint32_t n;
 167:/usr/local/lib/ARM/CMSIS/5.4.0/CMSIS/RTOS2/RTX/Source/rtx_core_cm.h **** 
 168:/usr/local/lib/ARM/CMSIS/5.4.0/CMSIS/RTOS2/RTX/Source/rtx_core_cm.h ****   SCB->SHP[1] |= 0x00FF0000U;
 169:/usr/local/lib/ARM/CMSIS/5.4.0/CMSIS/RTOS2/RTX/Source/rtx_core_cm.h ****   n = SCB->SHP[1];
 170:/usr/local/lib/ARM/CMSIS/5.4.0/CMSIS/RTOS2/RTX/Source/rtx_core_cm.h ****   SCB->SHP[0] |= (n << (8+1)) & 0xFC000000U;
 171:/usr/local/lib/ARM/CMSIS/5.4.0/CMSIS/RTOS2/RTX/Source/rtx_core_cm.h **** #endif
 172:/usr/local/lib/ARM/CMSIS/5.4.0/CMSIS/RTOS2/RTX/Source/rtx_core_cm.h **** }
 173:/usr/local/lib/ARM/CMSIS/5.4.0/CMSIS/RTOS2/RTX/Source/rtx_core_cm.h **** 
 174:/usr/local/lib/ARM/CMSIS/5.4.0/CMSIS/RTOS2/RTX/Source/rtx_core_cm.h **** /// Get Pending SV (Service Call) Flag
 175:/usr/local/lib/ARM/CMSIS/5.4.0/CMSIS/RTOS2/RTX/Source/rtx_core_cm.h **** /// \return     Pending SV Flag
 176:/usr/local/lib/ARM/CMSIS/5.4.0/CMSIS/RTOS2/RTX/Source/rtx_core_cm.h **** __STATIC_INLINE uint8_t GetPendSV (void) {
 177:/usr/local/lib/ARM/CMSIS/5.4.0/CMSIS/RTOS2/RTX/Source/rtx_core_cm.h ****   return ((uint8_t)((SCB->ICSR & (SCB_ICSR_PENDSVSET_Msk)) >> 24));
 178:/usr/local/lib/ARM/CMSIS/5.4.0/CMSIS/RTOS2/RTX/Source/rtx_core_cm.h **** }
 179:/usr/local/lib/ARM/CMSIS/5.4.0/CMSIS/RTOS2/RTX/Source/rtx_core_cm.h **** 
 180:/usr/local/lib/ARM/CMSIS/5.4.0/CMSIS/RTOS2/RTX/Source/rtx_core_cm.h **** /// Clear Pending SV (Service Call) Flag
 181:/usr/local/lib/ARM/CMSIS/5.4.0/CMSIS/RTOS2/RTX/Source/rtx_core_cm.h **** __STATIC_INLINE void ClrPendSV (void) {
 182:/usr/local/lib/ARM/CMSIS/5.4.0/CMSIS/RTOS2/RTX/Source/rtx_core_cm.h ****   SCB->ICSR = SCB_ICSR_PENDSVCLR_Msk;
 183:/usr/local/lib/ARM/CMSIS/5.4.0/CMSIS/RTOS2/RTX/Source/rtx_core_cm.h **** }
 184:/usr/local/lib/ARM/CMSIS/5.4.0/CMSIS/RTOS2/RTX/Source/rtx_core_cm.h **** 
 185:/usr/local/lib/ARM/CMSIS/5.4.0/CMSIS/RTOS2/RTX/Source/rtx_core_cm.h **** /// Set Pending SV (Service Call) Flag
 186:/usr/local/lib/ARM/CMSIS/5.4.0/CMSIS/RTOS2/RTX/Source/rtx_core_cm.h **** __STATIC_INLINE void SetPendSV (void) {
 187:/usr/local/lib/ARM/CMSIS/5.4.0/CMSIS/RTOS2/RTX/Source/rtx_core_cm.h ****   SCB->ICSR = SCB_ICSR_PENDSVSET_Msk;
 464              		.loc 4 187 0
 465 0014 4FF08052 		mov	r2, #268435456
 466 0018 034B     		ldr	r3, .L40+4
 467 001a 5A60     		str	r2, [r3, #4]
 468              	.L38:
 469              	.LBE235:
 470              	.LBE234:
  62:/usr/local/lib/ARM/CMSIS/5.4.0/CMSIS/RTOS2/RTX/Source/rtx_kernel.c **** }
 471              		.loc 1 62 0
 472 001c FFF7FEFF 		bl	OS_Tick_Enable
 473              	.LVL26:
 474 0020 08BD     		pop	{r3, pc}
 475              	.L41:
 476 0022 00BF     		.align	2
 477              	.L40:
 478 0024 00000000 		.word	.LANCHOR0
 479 0028 00ED00E0 		.word	-536810240
 480              		.cfi_endproc
 481              	.LFE175:
 483              		.section	.text.svcRtxKernelStart,"ax",%progbits
 484              		.align	2
 485              		.thumb
 486              		.thumb_func
 488              	svcRtxKernelStart:
 489              	.LFB179:
 236:/usr/local/lib/ARM/CMSIS/5.4.0/CMSIS/RTOS2/RTX/Source/rtx_kernel.c **** 
 237:/usr/local/lib/ARM/CMSIS/5.4.0/CMSIS/RTOS2/RTX/Source/rtx_kernel.c **** /// Start the RTOS Kernel scheduler.
 238:/usr/local/lib/ARM/CMSIS/5.4.0/CMSIS/RTOS2/RTX/Source/rtx_kernel.c **** /// \note API identical to osKernelStart
 239:/usr/local/lib/ARM/CMSIS/5.4.0/CMSIS/RTOS2/RTX/Source/rtx_kernel.c **** static osStatus_t svcRtxKernelStart (void) {
 490              		.loc 1 239 0
 491              		.cfi_startproc
 492              		@ args = 0, pretend = 0, frame = 0
 493              		@ frame_needed = 0, uses_anonymous_args = 0
ARM GAS  /tmp/ccOyeoN6.s 			page 35


 494 0000 10B5     		push	{r4, lr}
 495              	.LCFI4:
 496              		.cfi_def_cfa_offset 8
 497              		.cfi_offset 4, -8
 498              		.cfi_offset 14, -4
 240:/usr/local/lib/ARM/CMSIS/5.4.0/CMSIS/RTOS2/RTX/Source/rtx_kernel.c ****   os_thread_t *thread;
 241:/usr/local/lib/ARM/CMSIS/5.4.0/CMSIS/RTOS2/RTX/Source/rtx_kernel.c **** 
 242:/usr/local/lib/ARM/CMSIS/5.4.0/CMSIS/RTOS2/RTX/Source/rtx_kernel.c ****   if (osRtxInfo.kernel.state != osRtxKernelReady) {
 499              		.loc 1 242 0
 500 0002 314B     		ldr	r3, .L52
 501 0004 1B7A     		ldrb	r3, [r3, #8]	@ zero_extendqisi2
 502 0006 012B     		cmp	r3, #1
 503 0008 06D0     		beq	.L43
 243:/usr/local/lib/ARM/CMSIS/5.4.0/CMSIS/RTOS2/RTX/Source/rtx_kernel.c ****     EvrRtxKernelError(osRtxErrorKernelNotReady);
 504              		.loc 1 243 0
 505 000a 6FF00600 		mvn	r0, #6
 506 000e FFF7FEFF 		bl	EvrRtxKernelError
 507              	.LVL27:
 244:/usr/local/lib/ARM/CMSIS/5.4.0/CMSIS/RTOS2/RTX/Source/rtx_kernel.c ****     //lint -e{904} "Return statement before end of function" [MISRA Note 1]
 245:/usr/local/lib/ARM/CMSIS/5.4.0/CMSIS/RTOS2/RTX/Source/rtx_kernel.c ****     return osError;
 508              		.loc 1 245 0
 509 0012 4FF0FF30 		mov	r0, #-1
 510 0016 10BD     		pop	{r4, pc}
 511              	.L43:
 246:/usr/local/lib/ARM/CMSIS/5.4.0/CMSIS/RTOS2/RTX/Source/rtx_kernel.c ****   }
 247:/usr/local/lib/ARM/CMSIS/5.4.0/CMSIS/RTOS2/RTX/Source/rtx_kernel.c **** 
 248:/usr/local/lib/ARM/CMSIS/5.4.0/CMSIS/RTOS2/RTX/Source/rtx_kernel.c ****   // Thread startup (Idle and Timer Thread)
 249:/usr/local/lib/ARM/CMSIS/5.4.0/CMSIS/RTOS2/RTX/Source/rtx_kernel.c ****   if (!osRtxThreadStartup()) {
 512              		.loc 1 249 0
 513 0018 FFF7FEFF 		bl	osRtxThreadStartup
 514              	.LVL28:
 515 001c 30B9     		cbnz	r0, .L45
 250:/usr/local/lib/ARM/CMSIS/5.4.0/CMSIS/RTOS2/RTX/Source/rtx_kernel.c ****     EvrRtxKernelError((int32_t)osError);
 516              		.loc 1 250 0
 517 001e 4FF0FF30 		mov	r0, #-1
 518 0022 FFF7FEFF 		bl	EvrRtxKernelError
 519              	.LVL29:
 251:/usr/local/lib/ARM/CMSIS/5.4.0/CMSIS/RTOS2/RTX/Source/rtx_kernel.c ****     //lint -e{904} "Return statement before end of function" [MISRA Note 1]
 252:/usr/local/lib/ARM/CMSIS/5.4.0/CMSIS/RTOS2/RTX/Source/rtx_kernel.c ****     return osError;
 520              		.loc 1 252 0
 521 0026 4FF0FF30 		mov	r0, #-1
 522 002a 10BD     		pop	{r4, pc}
 523              	.L45:
 524              	.LBB236:
 525              	.LBB237:
 158:/usr/local/lib/ARM/CMSIS/5.4.0/CMSIS/RTOS2/RTX/Source/rtx_core_cm.h ****   n = 32U - (uint32_t)__CLZ(~(SCB->SHP[10] | 0xFFFFFF00U));
 526              		.loc 4 158 0
 527 002c 274A     		ldr	r2, .L52+4
 528 002e FF23     		movs	r3, #255
 529 0030 82F82230 		strb	r3, [r2, #34]
 159:/usr/local/lib/ARM/CMSIS/5.4.0/CMSIS/RTOS2/RTX/Source/rtx_core_cm.h ****   p = NVIC_GetPriorityGrouping();
 530              		.loc 4 159 0
 531 0034 92F82230 		ldrb	r3, [r2, #34]	@ zero_extendqisi2
 532 0038 63F0FF03 		orn	r3, r3, #255
 533 003c DB43     		mvns	r3, r3
 534 003e B3FA83F3 		clz	r3, r3
 535 0042 C3F12003 		rsb	r3, r3, #32
ARM GAS  /tmp/ccOyeoN6.s 			page 36


 536              	.LVL30:
 537              	.LBB238:
 538              	.LBB239:
 539              		.file 5 "/usr/local/lib/ARM/CMSIS/5.4.0/CMSIS/Core/Include/core_cm4.h"
   1:/usr/local/lib/ARM/CMSIS/5.4.0/CMSIS/Core/Include/core_cm4.h **** /**************************************************************************//**
   2:/usr/local/lib/ARM/CMSIS/5.4.0/CMSIS/Core/Include/core_cm4.h ****  * @file     core_cm4.h
   3:/usr/local/lib/ARM/CMSIS/5.4.0/CMSIS/Core/Include/core_cm4.h ****  * @brief    CMSIS Cortex-M4 Core Peripheral Access Layer Header File
   4:/usr/local/lib/ARM/CMSIS/5.4.0/CMSIS/Core/Include/core_cm4.h ****  * @version  V5.0.8
   5:/usr/local/lib/ARM/CMSIS/5.4.0/CMSIS/Core/Include/core_cm4.h ****  * @date     04. June 2018
   6:/usr/local/lib/ARM/CMSIS/5.4.0/CMSIS/Core/Include/core_cm4.h ****  ******************************************************************************/
   7:/usr/local/lib/ARM/CMSIS/5.4.0/CMSIS/Core/Include/core_cm4.h **** /*
   8:/usr/local/lib/ARM/CMSIS/5.4.0/CMSIS/Core/Include/core_cm4.h ****  * Copyright (c) 2009-2018 Arm Limited. All rights reserved.
   9:/usr/local/lib/ARM/CMSIS/5.4.0/CMSIS/Core/Include/core_cm4.h ****  *
  10:/usr/local/lib/ARM/CMSIS/5.4.0/CMSIS/Core/Include/core_cm4.h ****  * SPDX-License-Identifier: Apache-2.0
  11:/usr/local/lib/ARM/CMSIS/5.4.0/CMSIS/Core/Include/core_cm4.h ****  *
  12:/usr/local/lib/ARM/CMSIS/5.4.0/CMSIS/Core/Include/core_cm4.h ****  * Licensed under the Apache License, Version 2.0 (the License); you may
  13:/usr/local/lib/ARM/CMSIS/5.4.0/CMSIS/Core/Include/core_cm4.h ****  * not use this file except in compliance with the License.
  14:/usr/local/lib/ARM/CMSIS/5.4.0/CMSIS/Core/Include/core_cm4.h ****  * You may obtain a copy of the License at
  15:/usr/local/lib/ARM/CMSIS/5.4.0/CMSIS/Core/Include/core_cm4.h ****  *
  16:/usr/local/lib/ARM/CMSIS/5.4.0/CMSIS/Core/Include/core_cm4.h ****  * www.apache.org/licenses/LICENSE-2.0
  17:/usr/local/lib/ARM/CMSIS/5.4.0/CMSIS/Core/Include/core_cm4.h ****  *
  18:/usr/local/lib/ARM/CMSIS/5.4.0/CMSIS/Core/Include/core_cm4.h ****  * Unless required by applicable law or agreed to in writing, software
  19:/usr/local/lib/ARM/CMSIS/5.4.0/CMSIS/Core/Include/core_cm4.h ****  * distributed under the License is distributed on an AS IS BASIS, WITHOUT
  20:/usr/local/lib/ARM/CMSIS/5.4.0/CMSIS/Core/Include/core_cm4.h ****  * WARRANTIES OR CONDITIONS OF ANY KIND, either express or implied.
  21:/usr/local/lib/ARM/CMSIS/5.4.0/CMSIS/Core/Include/core_cm4.h ****  * See the License for the specific language governing permissions and
  22:/usr/local/lib/ARM/CMSIS/5.4.0/CMSIS/Core/Include/core_cm4.h ****  * limitations under the License.
  23:/usr/local/lib/ARM/CMSIS/5.4.0/CMSIS/Core/Include/core_cm4.h ****  */
  24:/usr/local/lib/ARM/CMSIS/5.4.0/CMSIS/Core/Include/core_cm4.h **** 
  25:/usr/local/lib/ARM/CMSIS/5.4.0/CMSIS/Core/Include/core_cm4.h **** #if   defined ( __ICCARM__ )
  26:/usr/local/lib/ARM/CMSIS/5.4.0/CMSIS/Core/Include/core_cm4.h ****   #pragma system_include         /* treat file as system include file for MISRA check */
  27:/usr/local/lib/ARM/CMSIS/5.4.0/CMSIS/Core/Include/core_cm4.h **** #elif defined (__clang__)
  28:/usr/local/lib/ARM/CMSIS/5.4.0/CMSIS/Core/Include/core_cm4.h ****   #pragma clang system_header   /* treat file as system include file */
  29:/usr/local/lib/ARM/CMSIS/5.4.0/CMSIS/Core/Include/core_cm4.h **** #endif
  30:/usr/local/lib/ARM/CMSIS/5.4.0/CMSIS/Core/Include/core_cm4.h **** 
  31:/usr/local/lib/ARM/CMSIS/5.4.0/CMSIS/Core/Include/core_cm4.h **** #ifndef __CORE_CM4_H_GENERIC
  32:/usr/local/lib/ARM/CMSIS/5.4.0/CMSIS/Core/Include/core_cm4.h **** #define __CORE_CM4_H_GENERIC
  33:/usr/local/lib/ARM/CMSIS/5.4.0/CMSIS/Core/Include/core_cm4.h **** 
  34:/usr/local/lib/ARM/CMSIS/5.4.0/CMSIS/Core/Include/core_cm4.h **** #include <stdint.h>
  35:/usr/local/lib/ARM/CMSIS/5.4.0/CMSIS/Core/Include/core_cm4.h **** 
  36:/usr/local/lib/ARM/CMSIS/5.4.0/CMSIS/Core/Include/core_cm4.h **** #ifdef __cplusplus
  37:/usr/local/lib/ARM/CMSIS/5.4.0/CMSIS/Core/Include/core_cm4.h ****  extern "C" {
  38:/usr/local/lib/ARM/CMSIS/5.4.0/CMSIS/Core/Include/core_cm4.h **** #endif
  39:/usr/local/lib/ARM/CMSIS/5.4.0/CMSIS/Core/Include/core_cm4.h **** 
  40:/usr/local/lib/ARM/CMSIS/5.4.0/CMSIS/Core/Include/core_cm4.h **** /**
  41:/usr/local/lib/ARM/CMSIS/5.4.0/CMSIS/Core/Include/core_cm4.h ****   \page CMSIS_MISRA_Exceptions  MISRA-C:2004 Compliance Exceptions
  42:/usr/local/lib/ARM/CMSIS/5.4.0/CMSIS/Core/Include/core_cm4.h ****   CMSIS violates the following MISRA-C:2004 rules:
  43:/usr/local/lib/ARM/CMSIS/5.4.0/CMSIS/Core/Include/core_cm4.h **** 
  44:/usr/local/lib/ARM/CMSIS/5.4.0/CMSIS/Core/Include/core_cm4.h ****    \li Required Rule 8.5, object/function definition in header file.<br>
  45:/usr/local/lib/ARM/CMSIS/5.4.0/CMSIS/Core/Include/core_cm4.h ****      Function definitions in header files are used to allow 'inlining'.
  46:/usr/local/lib/ARM/CMSIS/5.4.0/CMSIS/Core/Include/core_cm4.h **** 
  47:/usr/local/lib/ARM/CMSIS/5.4.0/CMSIS/Core/Include/core_cm4.h ****    \li Required Rule 18.4, declaration of union type or object of union type: '{...}'.<br>
  48:/usr/local/lib/ARM/CMSIS/5.4.0/CMSIS/Core/Include/core_cm4.h ****      Unions are used for effective representation of core registers.
  49:/usr/local/lib/ARM/CMSIS/5.4.0/CMSIS/Core/Include/core_cm4.h **** 
  50:/usr/local/lib/ARM/CMSIS/5.4.0/CMSIS/Core/Include/core_cm4.h ****    \li Advisory Rule 19.7, Function-like macro defined.<br>
  51:/usr/local/lib/ARM/CMSIS/5.4.0/CMSIS/Core/Include/core_cm4.h ****      Function-like macros are used to allow more efficient code.
  52:/usr/local/lib/ARM/CMSIS/5.4.0/CMSIS/Core/Include/core_cm4.h ****  */
  53:/usr/local/lib/ARM/CMSIS/5.4.0/CMSIS/Core/Include/core_cm4.h **** 
ARM GAS  /tmp/ccOyeoN6.s 			page 37


  54:/usr/local/lib/ARM/CMSIS/5.4.0/CMSIS/Core/Include/core_cm4.h **** 
  55:/usr/local/lib/ARM/CMSIS/5.4.0/CMSIS/Core/Include/core_cm4.h **** /*******************************************************************************
  56:/usr/local/lib/ARM/CMSIS/5.4.0/CMSIS/Core/Include/core_cm4.h ****  *                 CMSIS definitions
  57:/usr/local/lib/ARM/CMSIS/5.4.0/CMSIS/Core/Include/core_cm4.h ****  ******************************************************************************/
  58:/usr/local/lib/ARM/CMSIS/5.4.0/CMSIS/Core/Include/core_cm4.h **** /**
  59:/usr/local/lib/ARM/CMSIS/5.4.0/CMSIS/Core/Include/core_cm4.h ****   \ingroup Cortex_M4
  60:/usr/local/lib/ARM/CMSIS/5.4.0/CMSIS/Core/Include/core_cm4.h ****   @{
  61:/usr/local/lib/ARM/CMSIS/5.4.0/CMSIS/Core/Include/core_cm4.h ****  */
  62:/usr/local/lib/ARM/CMSIS/5.4.0/CMSIS/Core/Include/core_cm4.h **** 
  63:/usr/local/lib/ARM/CMSIS/5.4.0/CMSIS/Core/Include/core_cm4.h **** #include "cmsis_version.h"
  64:/usr/local/lib/ARM/CMSIS/5.4.0/CMSIS/Core/Include/core_cm4.h **** 
  65:/usr/local/lib/ARM/CMSIS/5.4.0/CMSIS/Core/Include/core_cm4.h **** /* CMSIS CM4 definitions */
  66:/usr/local/lib/ARM/CMSIS/5.4.0/CMSIS/Core/Include/core_cm4.h **** #define __CM4_CMSIS_VERSION_MAIN  (__CM_CMSIS_VERSION_MAIN)              /*!< \deprecated [31:16] C
  67:/usr/local/lib/ARM/CMSIS/5.4.0/CMSIS/Core/Include/core_cm4.h **** #define __CM4_CMSIS_VERSION_SUB   (__CM_CMSIS_VERSION_SUB)               /*!< \deprecated [15:0]  C
  68:/usr/local/lib/ARM/CMSIS/5.4.0/CMSIS/Core/Include/core_cm4.h **** #define __CM4_CMSIS_VERSION       ((__CM4_CMSIS_VERSION_MAIN << 16U) | \
  69:/usr/local/lib/ARM/CMSIS/5.4.0/CMSIS/Core/Include/core_cm4.h ****                                     __CM4_CMSIS_VERSION_SUB           )  /*!< \deprecated CMSIS HAL
  70:/usr/local/lib/ARM/CMSIS/5.4.0/CMSIS/Core/Include/core_cm4.h **** 
  71:/usr/local/lib/ARM/CMSIS/5.4.0/CMSIS/Core/Include/core_cm4.h **** #define __CORTEX_M                (4U)                                   /*!< Cortex-M Core */
  72:/usr/local/lib/ARM/CMSIS/5.4.0/CMSIS/Core/Include/core_cm4.h **** 
  73:/usr/local/lib/ARM/CMSIS/5.4.0/CMSIS/Core/Include/core_cm4.h **** /** __FPU_USED indicates whether an FPU is used or not.
  74:/usr/local/lib/ARM/CMSIS/5.4.0/CMSIS/Core/Include/core_cm4.h ****     For this, __FPU_PRESENT has to be checked prior to making use of FPU specific registers and fun
  75:/usr/local/lib/ARM/CMSIS/5.4.0/CMSIS/Core/Include/core_cm4.h **** */
  76:/usr/local/lib/ARM/CMSIS/5.4.0/CMSIS/Core/Include/core_cm4.h **** #if defined ( __CC_ARM )
  77:/usr/local/lib/ARM/CMSIS/5.4.0/CMSIS/Core/Include/core_cm4.h ****   #if defined __TARGET_FPU_VFP
  78:/usr/local/lib/ARM/CMSIS/5.4.0/CMSIS/Core/Include/core_cm4.h ****     #if defined (__FPU_PRESENT) && (__FPU_PRESENT == 1U)
  79:/usr/local/lib/ARM/CMSIS/5.4.0/CMSIS/Core/Include/core_cm4.h ****       #define __FPU_USED       1U
  80:/usr/local/lib/ARM/CMSIS/5.4.0/CMSIS/Core/Include/core_cm4.h ****     #else
  81:/usr/local/lib/ARM/CMSIS/5.4.0/CMSIS/Core/Include/core_cm4.h ****       #error "Compiler generates FPU instructions for a device without an FPU (check __FPU_PRESENT)
  82:/usr/local/lib/ARM/CMSIS/5.4.0/CMSIS/Core/Include/core_cm4.h ****       #define __FPU_USED       0U
  83:/usr/local/lib/ARM/CMSIS/5.4.0/CMSIS/Core/Include/core_cm4.h ****     #endif
  84:/usr/local/lib/ARM/CMSIS/5.4.0/CMSIS/Core/Include/core_cm4.h ****   #else
  85:/usr/local/lib/ARM/CMSIS/5.4.0/CMSIS/Core/Include/core_cm4.h ****     #define __FPU_USED         0U
  86:/usr/local/lib/ARM/CMSIS/5.4.0/CMSIS/Core/Include/core_cm4.h ****   #endif
  87:/usr/local/lib/ARM/CMSIS/5.4.0/CMSIS/Core/Include/core_cm4.h **** 
  88:/usr/local/lib/ARM/CMSIS/5.4.0/CMSIS/Core/Include/core_cm4.h **** #elif defined (__ARMCC_VERSION) && (__ARMCC_VERSION >= 6010050)
  89:/usr/local/lib/ARM/CMSIS/5.4.0/CMSIS/Core/Include/core_cm4.h ****   #if defined __ARM_PCS_VFP
  90:/usr/local/lib/ARM/CMSIS/5.4.0/CMSIS/Core/Include/core_cm4.h ****     #if defined (__FPU_PRESENT) && (__FPU_PRESENT == 1U)
  91:/usr/local/lib/ARM/CMSIS/5.4.0/CMSIS/Core/Include/core_cm4.h ****       #define __FPU_USED       1U
  92:/usr/local/lib/ARM/CMSIS/5.4.0/CMSIS/Core/Include/core_cm4.h ****     #else
  93:/usr/local/lib/ARM/CMSIS/5.4.0/CMSIS/Core/Include/core_cm4.h ****       #warning "Compiler generates FPU instructions for a device without an FPU (check __FPU_PRESEN
  94:/usr/local/lib/ARM/CMSIS/5.4.0/CMSIS/Core/Include/core_cm4.h ****       #define __FPU_USED       0U
  95:/usr/local/lib/ARM/CMSIS/5.4.0/CMSIS/Core/Include/core_cm4.h ****     #endif
  96:/usr/local/lib/ARM/CMSIS/5.4.0/CMSIS/Core/Include/core_cm4.h ****   #else
  97:/usr/local/lib/ARM/CMSIS/5.4.0/CMSIS/Core/Include/core_cm4.h ****     #define __FPU_USED         0U
  98:/usr/local/lib/ARM/CMSIS/5.4.0/CMSIS/Core/Include/core_cm4.h ****   #endif
  99:/usr/local/lib/ARM/CMSIS/5.4.0/CMSIS/Core/Include/core_cm4.h **** 
 100:/usr/local/lib/ARM/CMSIS/5.4.0/CMSIS/Core/Include/core_cm4.h **** #elif defined ( __GNUC__ )
 101:/usr/local/lib/ARM/CMSIS/5.4.0/CMSIS/Core/Include/core_cm4.h ****   #if defined (__VFP_FP__) && !defined(__SOFTFP__)
 102:/usr/local/lib/ARM/CMSIS/5.4.0/CMSIS/Core/Include/core_cm4.h ****     #if defined (__FPU_PRESENT) && (__FPU_PRESENT == 1U)
 103:/usr/local/lib/ARM/CMSIS/5.4.0/CMSIS/Core/Include/core_cm4.h ****       #define __FPU_USED       1U
 104:/usr/local/lib/ARM/CMSIS/5.4.0/CMSIS/Core/Include/core_cm4.h ****     #else
 105:/usr/local/lib/ARM/CMSIS/5.4.0/CMSIS/Core/Include/core_cm4.h ****       #error "Compiler generates FPU instructions for a device without an FPU (check __FPU_PRESENT)
 106:/usr/local/lib/ARM/CMSIS/5.4.0/CMSIS/Core/Include/core_cm4.h ****       #define __FPU_USED       0U
 107:/usr/local/lib/ARM/CMSIS/5.4.0/CMSIS/Core/Include/core_cm4.h ****     #endif
 108:/usr/local/lib/ARM/CMSIS/5.4.0/CMSIS/Core/Include/core_cm4.h ****   #else
 109:/usr/local/lib/ARM/CMSIS/5.4.0/CMSIS/Core/Include/core_cm4.h ****     #define __FPU_USED         0U
 110:/usr/local/lib/ARM/CMSIS/5.4.0/CMSIS/Core/Include/core_cm4.h ****   #endif
ARM GAS  /tmp/ccOyeoN6.s 			page 38


 111:/usr/local/lib/ARM/CMSIS/5.4.0/CMSIS/Core/Include/core_cm4.h **** 
 112:/usr/local/lib/ARM/CMSIS/5.4.0/CMSIS/Core/Include/core_cm4.h **** #elif defined ( __ICCARM__ )
 113:/usr/local/lib/ARM/CMSIS/5.4.0/CMSIS/Core/Include/core_cm4.h ****   #if defined __ARMVFP__
 114:/usr/local/lib/ARM/CMSIS/5.4.0/CMSIS/Core/Include/core_cm4.h ****     #if defined (__FPU_PRESENT) && (__FPU_PRESENT == 1U)
 115:/usr/local/lib/ARM/CMSIS/5.4.0/CMSIS/Core/Include/core_cm4.h ****       #define __FPU_USED       1U
 116:/usr/local/lib/ARM/CMSIS/5.4.0/CMSIS/Core/Include/core_cm4.h ****     #else
 117:/usr/local/lib/ARM/CMSIS/5.4.0/CMSIS/Core/Include/core_cm4.h ****       #error "Compiler generates FPU instructions for a device without an FPU (check __FPU_PRESENT)
 118:/usr/local/lib/ARM/CMSIS/5.4.0/CMSIS/Core/Include/core_cm4.h ****       #define __FPU_USED       0U
 119:/usr/local/lib/ARM/CMSIS/5.4.0/CMSIS/Core/Include/core_cm4.h ****     #endif
 120:/usr/local/lib/ARM/CMSIS/5.4.0/CMSIS/Core/Include/core_cm4.h ****   #else
 121:/usr/local/lib/ARM/CMSIS/5.4.0/CMSIS/Core/Include/core_cm4.h ****     #define __FPU_USED         0U
 122:/usr/local/lib/ARM/CMSIS/5.4.0/CMSIS/Core/Include/core_cm4.h ****   #endif
 123:/usr/local/lib/ARM/CMSIS/5.4.0/CMSIS/Core/Include/core_cm4.h **** 
 124:/usr/local/lib/ARM/CMSIS/5.4.0/CMSIS/Core/Include/core_cm4.h **** #elif defined ( __TI_ARM__ )
 125:/usr/local/lib/ARM/CMSIS/5.4.0/CMSIS/Core/Include/core_cm4.h ****   #if defined __TI_VFP_SUPPORT__
 126:/usr/local/lib/ARM/CMSIS/5.4.0/CMSIS/Core/Include/core_cm4.h ****     #if defined (__FPU_PRESENT) && (__FPU_PRESENT == 1U)
 127:/usr/local/lib/ARM/CMSIS/5.4.0/CMSIS/Core/Include/core_cm4.h ****       #define __FPU_USED       1U
 128:/usr/local/lib/ARM/CMSIS/5.4.0/CMSIS/Core/Include/core_cm4.h ****     #else
 129:/usr/local/lib/ARM/CMSIS/5.4.0/CMSIS/Core/Include/core_cm4.h ****       #error "Compiler generates FPU instructions for a device without an FPU (check __FPU_PRESENT)
 130:/usr/local/lib/ARM/CMSIS/5.4.0/CMSIS/Core/Include/core_cm4.h ****       #define __FPU_USED       0U
 131:/usr/local/lib/ARM/CMSIS/5.4.0/CMSIS/Core/Include/core_cm4.h ****     #endif
 132:/usr/local/lib/ARM/CMSIS/5.4.0/CMSIS/Core/Include/core_cm4.h ****   #else
 133:/usr/local/lib/ARM/CMSIS/5.4.0/CMSIS/Core/Include/core_cm4.h ****     #define __FPU_USED         0U
 134:/usr/local/lib/ARM/CMSIS/5.4.0/CMSIS/Core/Include/core_cm4.h ****   #endif
 135:/usr/local/lib/ARM/CMSIS/5.4.0/CMSIS/Core/Include/core_cm4.h **** 
 136:/usr/local/lib/ARM/CMSIS/5.4.0/CMSIS/Core/Include/core_cm4.h **** #elif defined ( __TASKING__ )
 137:/usr/local/lib/ARM/CMSIS/5.4.0/CMSIS/Core/Include/core_cm4.h ****   #if defined __FPU_VFP__
 138:/usr/local/lib/ARM/CMSIS/5.4.0/CMSIS/Core/Include/core_cm4.h ****     #if defined (__FPU_PRESENT) && (__FPU_PRESENT == 1U)
 139:/usr/local/lib/ARM/CMSIS/5.4.0/CMSIS/Core/Include/core_cm4.h ****       #define __FPU_USED       1U
 140:/usr/local/lib/ARM/CMSIS/5.4.0/CMSIS/Core/Include/core_cm4.h ****     #else
 141:/usr/local/lib/ARM/CMSIS/5.4.0/CMSIS/Core/Include/core_cm4.h ****       #error "Compiler generates FPU instructions for a device without an FPU (check __FPU_PRESENT)
 142:/usr/local/lib/ARM/CMSIS/5.4.0/CMSIS/Core/Include/core_cm4.h ****       #define __FPU_USED       0U
 143:/usr/local/lib/ARM/CMSIS/5.4.0/CMSIS/Core/Include/core_cm4.h ****     #endif
 144:/usr/local/lib/ARM/CMSIS/5.4.0/CMSIS/Core/Include/core_cm4.h ****   #else
 145:/usr/local/lib/ARM/CMSIS/5.4.0/CMSIS/Core/Include/core_cm4.h ****     #define __FPU_USED         0U
 146:/usr/local/lib/ARM/CMSIS/5.4.0/CMSIS/Core/Include/core_cm4.h ****   #endif
 147:/usr/local/lib/ARM/CMSIS/5.4.0/CMSIS/Core/Include/core_cm4.h **** 
 148:/usr/local/lib/ARM/CMSIS/5.4.0/CMSIS/Core/Include/core_cm4.h **** #elif defined ( __CSMC__ )
 149:/usr/local/lib/ARM/CMSIS/5.4.0/CMSIS/Core/Include/core_cm4.h ****   #if ( __CSMC__ & 0x400U)
 150:/usr/local/lib/ARM/CMSIS/5.4.0/CMSIS/Core/Include/core_cm4.h ****     #if defined (__FPU_PRESENT) && (__FPU_PRESENT == 1U)
 151:/usr/local/lib/ARM/CMSIS/5.4.0/CMSIS/Core/Include/core_cm4.h ****       #define __FPU_USED       1U
 152:/usr/local/lib/ARM/CMSIS/5.4.0/CMSIS/Core/Include/core_cm4.h ****     #else
 153:/usr/local/lib/ARM/CMSIS/5.4.0/CMSIS/Core/Include/core_cm4.h ****       #error "Compiler generates FPU instructions for a device without an FPU (check __FPU_PRESENT)
 154:/usr/local/lib/ARM/CMSIS/5.4.0/CMSIS/Core/Include/core_cm4.h ****       #define __FPU_USED       0U
 155:/usr/local/lib/ARM/CMSIS/5.4.0/CMSIS/Core/Include/core_cm4.h ****     #endif
 156:/usr/local/lib/ARM/CMSIS/5.4.0/CMSIS/Core/Include/core_cm4.h ****   #else
 157:/usr/local/lib/ARM/CMSIS/5.4.0/CMSIS/Core/Include/core_cm4.h ****     #define __FPU_USED         0U
 158:/usr/local/lib/ARM/CMSIS/5.4.0/CMSIS/Core/Include/core_cm4.h ****   #endif
 159:/usr/local/lib/ARM/CMSIS/5.4.0/CMSIS/Core/Include/core_cm4.h **** 
 160:/usr/local/lib/ARM/CMSIS/5.4.0/CMSIS/Core/Include/core_cm4.h **** #endif
 161:/usr/local/lib/ARM/CMSIS/5.4.0/CMSIS/Core/Include/core_cm4.h **** 
 162:/usr/local/lib/ARM/CMSIS/5.4.0/CMSIS/Core/Include/core_cm4.h **** #include "cmsis_compiler.h"               /* CMSIS compiler specific defines */
 163:/usr/local/lib/ARM/CMSIS/5.4.0/CMSIS/Core/Include/core_cm4.h **** 
 164:/usr/local/lib/ARM/CMSIS/5.4.0/CMSIS/Core/Include/core_cm4.h **** 
 165:/usr/local/lib/ARM/CMSIS/5.4.0/CMSIS/Core/Include/core_cm4.h **** #ifdef __cplusplus
 166:/usr/local/lib/ARM/CMSIS/5.4.0/CMSIS/Core/Include/core_cm4.h **** }
 167:/usr/local/lib/ARM/CMSIS/5.4.0/CMSIS/Core/Include/core_cm4.h **** #endif
ARM GAS  /tmp/ccOyeoN6.s 			page 39


 168:/usr/local/lib/ARM/CMSIS/5.4.0/CMSIS/Core/Include/core_cm4.h **** 
 169:/usr/local/lib/ARM/CMSIS/5.4.0/CMSIS/Core/Include/core_cm4.h **** #endif /* __CORE_CM4_H_GENERIC */
 170:/usr/local/lib/ARM/CMSIS/5.4.0/CMSIS/Core/Include/core_cm4.h **** 
 171:/usr/local/lib/ARM/CMSIS/5.4.0/CMSIS/Core/Include/core_cm4.h **** #ifndef __CMSIS_GENERIC
 172:/usr/local/lib/ARM/CMSIS/5.4.0/CMSIS/Core/Include/core_cm4.h **** 
 173:/usr/local/lib/ARM/CMSIS/5.4.0/CMSIS/Core/Include/core_cm4.h **** #ifndef __CORE_CM4_H_DEPENDANT
 174:/usr/local/lib/ARM/CMSIS/5.4.0/CMSIS/Core/Include/core_cm4.h **** #define __CORE_CM4_H_DEPENDANT
 175:/usr/local/lib/ARM/CMSIS/5.4.0/CMSIS/Core/Include/core_cm4.h **** 
 176:/usr/local/lib/ARM/CMSIS/5.4.0/CMSIS/Core/Include/core_cm4.h **** #ifdef __cplusplus
 177:/usr/local/lib/ARM/CMSIS/5.4.0/CMSIS/Core/Include/core_cm4.h ****  extern "C" {
 178:/usr/local/lib/ARM/CMSIS/5.4.0/CMSIS/Core/Include/core_cm4.h **** #endif
 179:/usr/local/lib/ARM/CMSIS/5.4.0/CMSIS/Core/Include/core_cm4.h **** 
 180:/usr/local/lib/ARM/CMSIS/5.4.0/CMSIS/Core/Include/core_cm4.h **** /* check device defines and use defaults */
 181:/usr/local/lib/ARM/CMSIS/5.4.0/CMSIS/Core/Include/core_cm4.h **** #if defined __CHECK_DEVICE_DEFINES
 182:/usr/local/lib/ARM/CMSIS/5.4.0/CMSIS/Core/Include/core_cm4.h ****   #ifndef __CM4_REV
 183:/usr/local/lib/ARM/CMSIS/5.4.0/CMSIS/Core/Include/core_cm4.h ****     #define __CM4_REV               0x0000U
 184:/usr/local/lib/ARM/CMSIS/5.4.0/CMSIS/Core/Include/core_cm4.h ****     #warning "__CM4_REV not defined in device header file; using default!"
 185:/usr/local/lib/ARM/CMSIS/5.4.0/CMSIS/Core/Include/core_cm4.h ****   #endif
 186:/usr/local/lib/ARM/CMSIS/5.4.0/CMSIS/Core/Include/core_cm4.h **** 
 187:/usr/local/lib/ARM/CMSIS/5.4.0/CMSIS/Core/Include/core_cm4.h ****   #ifndef __FPU_PRESENT
 188:/usr/local/lib/ARM/CMSIS/5.4.0/CMSIS/Core/Include/core_cm4.h ****     #define __FPU_PRESENT             0U
 189:/usr/local/lib/ARM/CMSIS/5.4.0/CMSIS/Core/Include/core_cm4.h ****     #warning "__FPU_PRESENT not defined in device header file; using default!"
 190:/usr/local/lib/ARM/CMSIS/5.4.0/CMSIS/Core/Include/core_cm4.h ****   #endif
 191:/usr/local/lib/ARM/CMSIS/5.4.0/CMSIS/Core/Include/core_cm4.h **** 
 192:/usr/local/lib/ARM/CMSIS/5.4.0/CMSIS/Core/Include/core_cm4.h ****   #ifndef __MPU_PRESENT
 193:/usr/local/lib/ARM/CMSIS/5.4.0/CMSIS/Core/Include/core_cm4.h ****     #define __MPU_PRESENT             0U
 194:/usr/local/lib/ARM/CMSIS/5.4.0/CMSIS/Core/Include/core_cm4.h ****     #warning "__MPU_PRESENT not defined in device header file; using default!"
 195:/usr/local/lib/ARM/CMSIS/5.4.0/CMSIS/Core/Include/core_cm4.h ****   #endif
 196:/usr/local/lib/ARM/CMSIS/5.4.0/CMSIS/Core/Include/core_cm4.h **** 
 197:/usr/local/lib/ARM/CMSIS/5.4.0/CMSIS/Core/Include/core_cm4.h ****   #ifndef __NVIC_PRIO_BITS
 198:/usr/local/lib/ARM/CMSIS/5.4.0/CMSIS/Core/Include/core_cm4.h ****     #define __NVIC_PRIO_BITS          3U
 199:/usr/local/lib/ARM/CMSIS/5.4.0/CMSIS/Core/Include/core_cm4.h ****     #warning "__NVIC_PRIO_BITS not defined in device header file; using default!"
 200:/usr/local/lib/ARM/CMSIS/5.4.0/CMSIS/Core/Include/core_cm4.h ****   #endif
 201:/usr/local/lib/ARM/CMSIS/5.4.0/CMSIS/Core/Include/core_cm4.h **** 
 202:/usr/local/lib/ARM/CMSIS/5.4.0/CMSIS/Core/Include/core_cm4.h ****   #ifndef __Vendor_SysTickConfig
 203:/usr/local/lib/ARM/CMSIS/5.4.0/CMSIS/Core/Include/core_cm4.h ****     #define __Vendor_SysTickConfig    0U
 204:/usr/local/lib/ARM/CMSIS/5.4.0/CMSIS/Core/Include/core_cm4.h ****     #warning "__Vendor_SysTickConfig not defined in device header file; using default!"
 205:/usr/local/lib/ARM/CMSIS/5.4.0/CMSIS/Core/Include/core_cm4.h ****   #endif
 206:/usr/local/lib/ARM/CMSIS/5.4.0/CMSIS/Core/Include/core_cm4.h **** #endif
 207:/usr/local/lib/ARM/CMSIS/5.4.0/CMSIS/Core/Include/core_cm4.h **** 
 208:/usr/local/lib/ARM/CMSIS/5.4.0/CMSIS/Core/Include/core_cm4.h **** /* IO definitions (access restrictions to peripheral registers) */
 209:/usr/local/lib/ARM/CMSIS/5.4.0/CMSIS/Core/Include/core_cm4.h **** /**
 210:/usr/local/lib/ARM/CMSIS/5.4.0/CMSIS/Core/Include/core_cm4.h ****     \defgroup CMSIS_glob_defs CMSIS Global Defines
 211:/usr/local/lib/ARM/CMSIS/5.4.0/CMSIS/Core/Include/core_cm4.h **** 
 212:/usr/local/lib/ARM/CMSIS/5.4.0/CMSIS/Core/Include/core_cm4.h ****     <strong>IO Type Qualifiers</strong> are used
 213:/usr/local/lib/ARM/CMSIS/5.4.0/CMSIS/Core/Include/core_cm4.h ****     \li to specify the access to peripheral variables.
 214:/usr/local/lib/ARM/CMSIS/5.4.0/CMSIS/Core/Include/core_cm4.h ****     \li for automatic generation of peripheral register debug information.
 215:/usr/local/lib/ARM/CMSIS/5.4.0/CMSIS/Core/Include/core_cm4.h **** */
 216:/usr/local/lib/ARM/CMSIS/5.4.0/CMSIS/Core/Include/core_cm4.h **** #ifdef __cplusplus
 217:/usr/local/lib/ARM/CMSIS/5.4.0/CMSIS/Core/Include/core_cm4.h ****   #define   __I     volatile             /*!< Defines 'read only' permissions */
 218:/usr/local/lib/ARM/CMSIS/5.4.0/CMSIS/Core/Include/core_cm4.h **** #else
 219:/usr/local/lib/ARM/CMSIS/5.4.0/CMSIS/Core/Include/core_cm4.h ****   #define   __I     volatile const       /*!< Defines 'read only' permissions */
 220:/usr/local/lib/ARM/CMSIS/5.4.0/CMSIS/Core/Include/core_cm4.h **** #endif
 221:/usr/local/lib/ARM/CMSIS/5.4.0/CMSIS/Core/Include/core_cm4.h **** #define     __O     volatile             /*!< Defines 'write only' permissions */
 222:/usr/local/lib/ARM/CMSIS/5.4.0/CMSIS/Core/Include/core_cm4.h **** #define     __IO    volatile             /*!< Defines 'read / write' permissions */
 223:/usr/local/lib/ARM/CMSIS/5.4.0/CMSIS/Core/Include/core_cm4.h **** 
 224:/usr/local/lib/ARM/CMSIS/5.4.0/CMSIS/Core/Include/core_cm4.h **** /* following defines should be used for structure members */
ARM GAS  /tmp/ccOyeoN6.s 			page 40


 225:/usr/local/lib/ARM/CMSIS/5.4.0/CMSIS/Core/Include/core_cm4.h **** #define     __IM     volatile const      /*! Defines 'read only' structure member permissions */
 226:/usr/local/lib/ARM/CMSIS/5.4.0/CMSIS/Core/Include/core_cm4.h **** #define     __OM     volatile            /*! Defines 'write only' structure member permissions */
 227:/usr/local/lib/ARM/CMSIS/5.4.0/CMSIS/Core/Include/core_cm4.h **** #define     __IOM    volatile            /*! Defines 'read / write' structure member permissions */
 228:/usr/local/lib/ARM/CMSIS/5.4.0/CMSIS/Core/Include/core_cm4.h **** 
 229:/usr/local/lib/ARM/CMSIS/5.4.0/CMSIS/Core/Include/core_cm4.h **** /*@} end of group Cortex_M4 */
 230:/usr/local/lib/ARM/CMSIS/5.4.0/CMSIS/Core/Include/core_cm4.h **** 
 231:/usr/local/lib/ARM/CMSIS/5.4.0/CMSIS/Core/Include/core_cm4.h **** 
 232:/usr/local/lib/ARM/CMSIS/5.4.0/CMSIS/Core/Include/core_cm4.h **** 
 233:/usr/local/lib/ARM/CMSIS/5.4.0/CMSIS/Core/Include/core_cm4.h **** /*******************************************************************************
 234:/usr/local/lib/ARM/CMSIS/5.4.0/CMSIS/Core/Include/core_cm4.h ****  *                 Register Abstraction
 235:/usr/local/lib/ARM/CMSIS/5.4.0/CMSIS/Core/Include/core_cm4.h ****   Core Register contain:
 236:/usr/local/lib/ARM/CMSIS/5.4.0/CMSIS/Core/Include/core_cm4.h ****   - Core Register
 237:/usr/local/lib/ARM/CMSIS/5.4.0/CMSIS/Core/Include/core_cm4.h ****   - Core NVIC Register
 238:/usr/local/lib/ARM/CMSIS/5.4.0/CMSIS/Core/Include/core_cm4.h ****   - Core SCB Register
 239:/usr/local/lib/ARM/CMSIS/5.4.0/CMSIS/Core/Include/core_cm4.h ****   - Core SysTick Register
 240:/usr/local/lib/ARM/CMSIS/5.4.0/CMSIS/Core/Include/core_cm4.h ****   - Core Debug Register
 241:/usr/local/lib/ARM/CMSIS/5.4.0/CMSIS/Core/Include/core_cm4.h ****   - Core MPU Register
 242:/usr/local/lib/ARM/CMSIS/5.4.0/CMSIS/Core/Include/core_cm4.h ****   - Core FPU Register
 243:/usr/local/lib/ARM/CMSIS/5.4.0/CMSIS/Core/Include/core_cm4.h ****  ******************************************************************************/
 244:/usr/local/lib/ARM/CMSIS/5.4.0/CMSIS/Core/Include/core_cm4.h **** /**
 245:/usr/local/lib/ARM/CMSIS/5.4.0/CMSIS/Core/Include/core_cm4.h ****   \defgroup CMSIS_core_register Defines and Type Definitions
 246:/usr/local/lib/ARM/CMSIS/5.4.0/CMSIS/Core/Include/core_cm4.h ****   \brief Type definitions and defines for Cortex-M processor based devices.
 247:/usr/local/lib/ARM/CMSIS/5.4.0/CMSIS/Core/Include/core_cm4.h **** */
 248:/usr/local/lib/ARM/CMSIS/5.4.0/CMSIS/Core/Include/core_cm4.h **** 
 249:/usr/local/lib/ARM/CMSIS/5.4.0/CMSIS/Core/Include/core_cm4.h **** /**
 250:/usr/local/lib/ARM/CMSIS/5.4.0/CMSIS/Core/Include/core_cm4.h ****   \ingroup    CMSIS_core_register
 251:/usr/local/lib/ARM/CMSIS/5.4.0/CMSIS/Core/Include/core_cm4.h ****   \defgroup   CMSIS_CORE  Status and Control Registers
 252:/usr/local/lib/ARM/CMSIS/5.4.0/CMSIS/Core/Include/core_cm4.h ****   \brief      Core Register type definitions.
 253:/usr/local/lib/ARM/CMSIS/5.4.0/CMSIS/Core/Include/core_cm4.h ****   @{
 254:/usr/local/lib/ARM/CMSIS/5.4.0/CMSIS/Core/Include/core_cm4.h ****  */
 255:/usr/local/lib/ARM/CMSIS/5.4.0/CMSIS/Core/Include/core_cm4.h **** 
 256:/usr/local/lib/ARM/CMSIS/5.4.0/CMSIS/Core/Include/core_cm4.h **** /**
 257:/usr/local/lib/ARM/CMSIS/5.4.0/CMSIS/Core/Include/core_cm4.h ****   \brief  Union type to access the Application Program Status Register (APSR).
 258:/usr/local/lib/ARM/CMSIS/5.4.0/CMSIS/Core/Include/core_cm4.h ****  */
 259:/usr/local/lib/ARM/CMSIS/5.4.0/CMSIS/Core/Include/core_cm4.h **** typedef union
 260:/usr/local/lib/ARM/CMSIS/5.4.0/CMSIS/Core/Include/core_cm4.h **** {
 261:/usr/local/lib/ARM/CMSIS/5.4.0/CMSIS/Core/Include/core_cm4.h ****   struct
 262:/usr/local/lib/ARM/CMSIS/5.4.0/CMSIS/Core/Include/core_cm4.h ****   {
 263:/usr/local/lib/ARM/CMSIS/5.4.0/CMSIS/Core/Include/core_cm4.h ****     uint32_t _reserved0:16;              /*!< bit:  0..15  Reserved */
 264:/usr/local/lib/ARM/CMSIS/5.4.0/CMSIS/Core/Include/core_cm4.h ****     uint32_t GE:4;                       /*!< bit: 16..19  Greater than or Equal flags */
 265:/usr/local/lib/ARM/CMSIS/5.4.0/CMSIS/Core/Include/core_cm4.h ****     uint32_t _reserved1:7;               /*!< bit: 20..26  Reserved */
 266:/usr/local/lib/ARM/CMSIS/5.4.0/CMSIS/Core/Include/core_cm4.h ****     uint32_t Q:1;                        /*!< bit:     27  Saturation condition flag */
 267:/usr/local/lib/ARM/CMSIS/5.4.0/CMSIS/Core/Include/core_cm4.h ****     uint32_t V:1;                        /*!< bit:     28  Overflow condition code flag */
 268:/usr/local/lib/ARM/CMSIS/5.4.0/CMSIS/Core/Include/core_cm4.h ****     uint32_t C:1;                        /*!< bit:     29  Carry condition code flag */
 269:/usr/local/lib/ARM/CMSIS/5.4.0/CMSIS/Core/Include/core_cm4.h ****     uint32_t Z:1;                        /*!< bit:     30  Zero condition code flag */
 270:/usr/local/lib/ARM/CMSIS/5.4.0/CMSIS/Core/Include/core_cm4.h ****     uint32_t N:1;                        /*!< bit:     31  Negative condition code flag */
 271:/usr/local/lib/ARM/CMSIS/5.4.0/CMSIS/Core/Include/core_cm4.h ****   } b;                                   /*!< Structure used for bit  access */
 272:/usr/local/lib/ARM/CMSIS/5.4.0/CMSIS/Core/Include/core_cm4.h ****   uint32_t w;                            /*!< Type      used for word access */
 273:/usr/local/lib/ARM/CMSIS/5.4.0/CMSIS/Core/Include/core_cm4.h **** } APSR_Type;
 274:/usr/local/lib/ARM/CMSIS/5.4.0/CMSIS/Core/Include/core_cm4.h **** 
 275:/usr/local/lib/ARM/CMSIS/5.4.0/CMSIS/Core/Include/core_cm4.h **** /* APSR Register Definitions */
 276:/usr/local/lib/ARM/CMSIS/5.4.0/CMSIS/Core/Include/core_cm4.h **** #define APSR_N_Pos                         31U                                            /*!< APSR
 277:/usr/local/lib/ARM/CMSIS/5.4.0/CMSIS/Core/Include/core_cm4.h **** #define APSR_N_Msk                         (1UL << APSR_N_Pos)                            /*!< APSR
 278:/usr/local/lib/ARM/CMSIS/5.4.0/CMSIS/Core/Include/core_cm4.h **** 
 279:/usr/local/lib/ARM/CMSIS/5.4.0/CMSIS/Core/Include/core_cm4.h **** #define APSR_Z_Pos                         30U                                            /*!< APSR
 280:/usr/local/lib/ARM/CMSIS/5.4.0/CMSIS/Core/Include/core_cm4.h **** #define APSR_Z_Msk                         (1UL << APSR_Z_Pos)                            /*!< APSR
 281:/usr/local/lib/ARM/CMSIS/5.4.0/CMSIS/Core/Include/core_cm4.h **** 
ARM GAS  /tmp/ccOyeoN6.s 			page 41


 282:/usr/local/lib/ARM/CMSIS/5.4.0/CMSIS/Core/Include/core_cm4.h **** #define APSR_C_Pos                         29U                                            /*!< APSR
 283:/usr/local/lib/ARM/CMSIS/5.4.0/CMSIS/Core/Include/core_cm4.h **** #define APSR_C_Msk                         (1UL << APSR_C_Pos)                            /*!< APSR
 284:/usr/local/lib/ARM/CMSIS/5.4.0/CMSIS/Core/Include/core_cm4.h **** 
 285:/usr/local/lib/ARM/CMSIS/5.4.0/CMSIS/Core/Include/core_cm4.h **** #define APSR_V_Pos                         28U                                            /*!< APSR
 286:/usr/local/lib/ARM/CMSIS/5.4.0/CMSIS/Core/Include/core_cm4.h **** #define APSR_V_Msk                         (1UL << APSR_V_Pos)                            /*!< APSR
 287:/usr/local/lib/ARM/CMSIS/5.4.0/CMSIS/Core/Include/core_cm4.h **** 
 288:/usr/local/lib/ARM/CMSIS/5.4.0/CMSIS/Core/Include/core_cm4.h **** #define APSR_Q_Pos                         27U                                            /*!< APSR
 289:/usr/local/lib/ARM/CMSIS/5.4.0/CMSIS/Core/Include/core_cm4.h **** #define APSR_Q_Msk                         (1UL << APSR_Q_Pos)                            /*!< APSR
 290:/usr/local/lib/ARM/CMSIS/5.4.0/CMSIS/Core/Include/core_cm4.h **** 
 291:/usr/local/lib/ARM/CMSIS/5.4.0/CMSIS/Core/Include/core_cm4.h **** #define APSR_GE_Pos                        16U                                            /*!< APSR
 292:/usr/local/lib/ARM/CMSIS/5.4.0/CMSIS/Core/Include/core_cm4.h **** #define APSR_GE_Msk                        (0xFUL << APSR_GE_Pos)                         /*!< APSR
 293:/usr/local/lib/ARM/CMSIS/5.4.0/CMSIS/Core/Include/core_cm4.h **** 
 294:/usr/local/lib/ARM/CMSIS/5.4.0/CMSIS/Core/Include/core_cm4.h **** 
 295:/usr/local/lib/ARM/CMSIS/5.4.0/CMSIS/Core/Include/core_cm4.h **** /**
 296:/usr/local/lib/ARM/CMSIS/5.4.0/CMSIS/Core/Include/core_cm4.h ****   \brief  Union type to access the Interrupt Program Status Register (IPSR).
 297:/usr/local/lib/ARM/CMSIS/5.4.0/CMSIS/Core/Include/core_cm4.h ****  */
 298:/usr/local/lib/ARM/CMSIS/5.4.0/CMSIS/Core/Include/core_cm4.h **** typedef union
 299:/usr/local/lib/ARM/CMSIS/5.4.0/CMSIS/Core/Include/core_cm4.h **** {
 300:/usr/local/lib/ARM/CMSIS/5.4.0/CMSIS/Core/Include/core_cm4.h ****   struct
 301:/usr/local/lib/ARM/CMSIS/5.4.0/CMSIS/Core/Include/core_cm4.h ****   {
 302:/usr/local/lib/ARM/CMSIS/5.4.0/CMSIS/Core/Include/core_cm4.h ****     uint32_t ISR:9;                      /*!< bit:  0.. 8  Exception number */
 303:/usr/local/lib/ARM/CMSIS/5.4.0/CMSIS/Core/Include/core_cm4.h ****     uint32_t _reserved0:23;              /*!< bit:  9..31  Reserved */
 304:/usr/local/lib/ARM/CMSIS/5.4.0/CMSIS/Core/Include/core_cm4.h ****   } b;                                   /*!< Structure used for bit  access */
 305:/usr/local/lib/ARM/CMSIS/5.4.0/CMSIS/Core/Include/core_cm4.h ****   uint32_t w;                            /*!< Type      used for word access */
 306:/usr/local/lib/ARM/CMSIS/5.4.0/CMSIS/Core/Include/core_cm4.h **** } IPSR_Type;
 307:/usr/local/lib/ARM/CMSIS/5.4.0/CMSIS/Core/Include/core_cm4.h **** 
 308:/usr/local/lib/ARM/CMSIS/5.4.0/CMSIS/Core/Include/core_cm4.h **** /* IPSR Register Definitions */
 309:/usr/local/lib/ARM/CMSIS/5.4.0/CMSIS/Core/Include/core_cm4.h **** #define IPSR_ISR_Pos                        0U                                            /*!< IPSR
 310:/usr/local/lib/ARM/CMSIS/5.4.0/CMSIS/Core/Include/core_cm4.h **** #define IPSR_ISR_Msk                       (0x1FFUL /*<< IPSR_ISR_Pos*/)                  /*!< IPSR
 311:/usr/local/lib/ARM/CMSIS/5.4.0/CMSIS/Core/Include/core_cm4.h **** 
 312:/usr/local/lib/ARM/CMSIS/5.4.0/CMSIS/Core/Include/core_cm4.h **** 
 313:/usr/local/lib/ARM/CMSIS/5.4.0/CMSIS/Core/Include/core_cm4.h **** /**
 314:/usr/local/lib/ARM/CMSIS/5.4.0/CMSIS/Core/Include/core_cm4.h ****   \brief  Union type to access the Special-Purpose Program Status Registers (xPSR).
 315:/usr/local/lib/ARM/CMSIS/5.4.0/CMSIS/Core/Include/core_cm4.h ****  */
 316:/usr/local/lib/ARM/CMSIS/5.4.0/CMSIS/Core/Include/core_cm4.h **** typedef union
 317:/usr/local/lib/ARM/CMSIS/5.4.0/CMSIS/Core/Include/core_cm4.h **** {
 318:/usr/local/lib/ARM/CMSIS/5.4.0/CMSIS/Core/Include/core_cm4.h ****   struct
 319:/usr/local/lib/ARM/CMSIS/5.4.0/CMSIS/Core/Include/core_cm4.h ****   {
 320:/usr/local/lib/ARM/CMSIS/5.4.0/CMSIS/Core/Include/core_cm4.h ****     uint32_t ISR:9;                      /*!< bit:  0.. 8  Exception number */
 321:/usr/local/lib/ARM/CMSIS/5.4.0/CMSIS/Core/Include/core_cm4.h ****     uint32_t _reserved0:1;               /*!< bit:      9  Reserved */
 322:/usr/local/lib/ARM/CMSIS/5.4.0/CMSIS/Core/Include/core_cm4.h ****     uint32_t ICI_IT_1:6;                 /*!< bit: 10..15  ICI/IT part 1 */
 323:/usr/local/lib/ARM/CMSIS/5.4.0/CMSIS/Core/Include/core_cm4.h ****     uint32_t GE:4;                       /*!< bit: 16..19  Greater than or Equal flags */
 324:/usr/local/lib/ARM/CMSIS/5.4.0/CMSIS/Core/Include/core_cm4.h ****     uint32_t _reserved1:4;               /*!< bit: 20..23  Reserved */
 325:/usr/local/lib/ARM/CMSIS/5.4.0/CMSIS/Core/Include/core_cm4.h ****     uint32_t T:1;                        /*!< bit:     24  Thumb bit */
 326:/usr/local/lib/ARM/CMSIS/5.4.0/CMSIS/Core/Include/core_cm4.h ****     uint32_t ICI_IT_2:2;                 /*!< bit: 25..26  ICI/IT part 2 */
 327:/usr/local/lib/ARM/CMSIS/5.4.0/CMSIS/Core/Include/core_cm4.h ****     uint32_t Q:1;                        /*!< bit:     27  Saturation condition flag */
 328:/usr/local/lib/ARM/CMSIS/5.4.0/CMSIS/Core/Include/core_cm4.h ****     uint32_t V:1;                        /*!< bit:     28  Overflow condition code flag */
 329:/usr/local/lib/ARM/CMSIS/5.4.0/CMSIS/Core/Include/core_cm4.h ****     uint32_t C:1;                        /*!< bit:     29  Carry condition code flag */
 330:/usr/local/lib/ARM/CMSIS/5.4.0/CMSIS/Core/Include/core_cm4.h ****     uint32_t Z:1;                        /*!< bit:     30  Zero condition code flag */
 331:/usr/local/lib/ARM/CMSIS/5.4.0/CMSIS/Core/Include/core_cm4.h ****     uint32_t N:1;                        /*!< bit:     31  Negative condition code flag */
 332:/usr/local/lib/ARM/CMSIS/5.4.0/CMSIS/Core/Include/core_cm4.h ****   } b;                                   /*!< Structure used for bit  access */
 333:/usr/local/lib/ARM/CMSIS/5.4.0/CMSIS/Core/Include/core_cm4.h ****   uint32_t w;                            /*!< Type      used for word access */
 334:/usr/local/lib/ARM/CMSIS/5.4.0/CMSIS/Core/Include/core_cm4.h **** } xPSR_Type;
 335:/usr/local/lib/ARM/CMSIS/5.4.0/CMSIS/Core/Include/core_cm4.h **** 
 336:/usr/local/lib/ARM/CMSIS/5.4.0/CMSIS/Core/Include/core_cm4.h **** /* xPSR Register Definitions */
 337:/usr/local/lib/ARM/CMSIS/5.4.0/CMSIS/Core/Include/core_cm4.h **** #define xPSR_N_Pos                         31U                                            /*!< xPSR
 338:/usr/local/lib/ARM/CMSIS/5.4.0/CMSIS/Core/Include/core_cm4.h **** #define xPSR_N_Msk                         (1UL << xPSR_N_Pos)                            /*!< xPSR
ARM GAS  /tmp/ccOyeoN6.s 			page 42


 339:/usr/local/lib/ARM/CMSIS/5.4.0/CMSIS/Core/Include/core_cm4.h **** 
 340:/usr/local/lib/ARM/CMSIS/5.4.0/CMSIS/Core/Include/core_cm4.h **** #define xPSR_Z_Pos                         30U                                            /*!< xPSR
 341:/usr/local/lib/ARM/CMSIS/5.4.0/CMSIS/Core/Include/core_cm4.h **** #define xPSR_Z_Msk                         (1UL << xPSR_Z_Pos)                            /*!< xPSR
 342:/usr/local/lib/ARM/CMSIS/5.4.0/CMSIS/Core/Include/core_cm4.h **** 
 343:/usr/local/lib/ARM/CMSIS/5.4.0/CMSIS/Core/Include/core_cm4.h **** #define xPSR_C_Pos                         29U                                            /*!< xPSR
 344:/usr/local/lib/ARM/CMSIS/5.4.0/CMSIS/Core/Include/core_cm4.h **** #define xPSR_C_Msk                         (1UL << xPSR_C_Pos)                            /*!< xPSR
 345:/usr/local/lib/ARM/CMSIS/5.4.0/CMSIS/Core/Include/core_cm4.h **** 
 346:/usr/local/lib/ARM/CMSIS/5.4.0/CMSIS/Core/Include/core_cm4.h **** #define xPSR_V_Pos                         28U                                            /*!< xPSR
 347:/usr/local/lib/ARM/CMSIS/5.4.0/CMSIS/Core/Include/core_cm4.h **** #define xPSR_V_Msk                         (1UL << xPSR_V_Pos)                            /*!< xPSR
 348:/usr/local/lib/ARM/CMSIS/5.4.0/CMSIS/Core/Include/core_cm4.h **** 
 349:/usr/local/lib/ARM/CMSIS/5.4.0/CMSIS/Core/Include/core_cm4.h **** #define xPSR_Q_Pos                         27U                                            /*!< xPSR
 350:/usr/local/lib/ARM/CMSIS/5.4.0/CMSIS/Core/Include/core_cm4.h **** #define xPSR_Q_Msk                         (1UL << xPSR_Q_Pos)                            /*!< xPSR
 351:/usr/local/lib/ARM/CMSIS/5.4.0/CMSIS/Core/Include/core_cm4.h **** 
 352:/usr/local/lib/ARM/CMSIS/5.4.0/CMSIS/Core/Include/core_cm4.h **** #define xPSR_ICI_IT_2_Pos                  25U                                            /*!< xPSR
 353:/usr/local/lib/ARM/CMSIS/5.4.0/CMSIS/Core/Include/core_cm4.h **** #define xPSR_ICI_IT_2_Msk                  (3UL << xPSR_ICI_IT_2_Pos)                     /*!< xPSR
 354:/usr/local/lib/ARM/CMSIS/5.4.0/CMSIS/Core/Include/core_cm4.h **** 
 355:/usr/local/lib/ARM/CMSIS/5.4.0/CMSIS/Core/Include/core_cm4.h **** #define xPSR_T_Pos                         24U                                            /*!< xPSR
 356:/usr/local/lib/ARM/CMSIS/5.4.0/CMSIS/Core/Include/core_cm4.h **** #define xPSR_T_Msk                         (1UL << xPSR_T_Pos)                            /*!< xPSR
 357:/usr/local/lib/ARM/CMSIS/5.4.0/CMSIS/Core/Include/core_cm4.h **** 
 358:/usr/local/lib/ARM/CMSIS/5.4.0/CMSIS/Core/Include/core_cm4.h **** #define xPSR_GE_Pos                        16U                                            /*!< xPSR
 359:/usr/local/lib/ARM/CMSIS/5.4.0/CMSIS/Core/Include/core_cm4.h **** #define xPSR_GE_Msk                        (0xFUL << xPSR_GE_Pos)                         /*!< xPSR
 360:/usr/local/lib/ARM/CMSIS/5.4.0/CMSIS/Core/Include/core_cm4.h **** 
 361:/usr/local/lib/ARM/CMSIS/5.4.0/CMSIS/Core/Include/core_cm4.h **** #define xPSR_ICI_IT_1_Pos                  10U                                            /*!< xPSR
 362:/usr/local/lib/ARM/CMSIS/5.4.0/CMSIS/Core/Include/core_cm4.h **** #define xPSR_ICI_IT_1_Msk                  (0x3FUL << xPSR_ICI_IT_1_Pos)                  /*!< xPSR
 363:/usr/local/lib/ARM/CMSIS/5.4.0/CMSIS/Core/Include/core_cm4.h **** 
 364:/usr/local/lib/ARM/CMSIS/5.4.0/CMSIS/Core/Include/core_cm4.h **** #define xPSR_ISR_Pos                        0U                                            /*!< xPSR
 365:/usr/local/lib/ARM/CMSIS/5.4.0/CMSIS/Core/Include/core_cm4.h **** #define xPSR_ISR_Msk                       (0x1FFUL /*<< xPSR_ISR_Pos*/)                  /*!< xPSR
 366:/usr/local/lib/ARM/CMSIS/5.4.0/CMSIS/Core/Include/core_cm4.h **** 
 367:/usr/local/lib/ARM/CMSIS/5.4.0/CMSIS/Core/Include/core_cm4.h **** 
 368:/usr/local/lib/ARM/CMSIS/5.4.0/CMSIS/Core/Include/core_cm4.h **** /**
 369:/usr/local/lib/ARM/CMSIS/5.4.0/CMSIS/Core/Include/core_cm4.h ****   \brief  Union type to access the Control Registers (CONTROL).
 370:/usr/local/lib/ARM/CMSIS/5.4.0/CMSIS/Core/Include/core_cm4.h ****  */
 371:/usr/local/lib/ARM/CMSIS/5.4.0/CMSIS/Core/Include/core_cm4.h **** typedef union
 372:/usr/local/lib/ARM/CMSIS/5.4.0/CMSIS/Core/Include/core_cm4.h **** {
 373:/usr/local/lib/ARM/CMSIS/5.4.0/CMSIS/Core/Include/core_cm4.h ****   struct
 374:/usr/local/lib/ARM/CMSIS/5.4.0/CMSIS/Core/Include/core_cm4.h ****   {
 375:/usr/local/lib/ARM/CMSIS/5.4.0/CMSIS/Core/Include/core_cm4.h ****     uint32_t nPRIV:1;                    /*!< bit:      0  Execution privilege in Thread mode */
 376:/usr/local/lib/ARM/CMSIS/5.4.0/CMSIS/Core/Include/core_cm4.h ****     uint32_t SPSEL:1;                    /*!< bit:      1  Stack to be used */
 377:/usr/local/lib/ARM/CMSIS/5.4.0/CMSIS/Core/Include/core_cm4.h ****     uint32_t FPCA:1;                     /*!< bit:      2  FP extension active flag */
 378:/usr/local/lib/ARM/CMSIS/5.4.0/CMSIS/Core/Include/core_cm4.h ****     uint32_t _reserved0:29;              /*!< bit:  3..31  Reserved */
 379:/usr/local/lib/ARM/CMSIS/5.4.0/CMSIS/Core/Include/core_cm4.h ****   } b;                                   /*!< Structure used for bit  access */
 380:/usr/local/lib/ARM/CMSIS/5.4.0/CMSIS/Core/Include/core_cm4.h ****   uint32_t w;                            /*!< Type      used for word access */
 381:/usr/local/lib/ARM/CMSIS/5.4.0/CMSIS/Core/Include/core_cm4.h **** } CONTROL_Type;
 382:/usr/local/lib/ARM/CMSIS/5.4.0/CMSIS/Core/Include/core_cm4.h **** 
 383:/usr/local/lib/ARM/CMSIS/5.4.0/CMSIS/Core/Include/core_cm4.h **** /* CONTROL Register Definitions */
 384:/usr/local/lib/ARM/CMSIS/5.4.0/CMSIS/Core/Include/core_cm4.h **** #define CONTROL_FPCA_Pos                    2U                                            /*!< CONT
 385:/usr/local/lib/ARM/CMSIS/5.4.0/CMSIS/Core/Include/core_cm4.h **** #define CONTROL_FPCA_Msk                   (1UL << CONTROL_FPCA_Pos)                      /*!< CONT
 386:/usr/local/lib/ARM/CMSIS/5.4.0/CMSIS/Core/Include/core_cm4.h **** 
 387:/usr/local/lib/ARM/CMSIS/5.4.0/CMSIS/Core/Include/core_cm4.h **** #define CONTROL_SPSEL_Pos                   1U                                            /*!< CONT
 388:/usr/local/lib/ARM/CMSIS/5.4.0/CMSIS/Core/Include/core_cm4.h **** #define CONTROL_SPSEL_Msk                  (1UL << CONTROL_SPSEL_Pos)                     /*!< CONT
 389:/usr/local/lib/ARM/CMSIS/5.4.0/CMSIS/Core/Include/core_cm4.h **** 
 390:/usr/local/lib/ARM/CMSIS/5.4.0/CMSIS/Core/Include/core_cm4.h **** #define CONTROL_nPRIV_Pos                   0U                                            /*!< CONT
 391:/usr/local/lib/ARM/CMSIS/5.4.0/CMSIS/Core/Include/core_cm4.h **** #define CONTROL_nPRIV_Msk                  (1UL /*<< CONTROL_nPRIV_Pos*/)                 /*!< CONT
 392:/usr/local/lib/ARM/CMSIS/5.4.0/CMSIS/Core/Include/core_cm4.h **** 
 393:/usr/local/lib/ARM/CMSIS/5.4.0/CMSIS/Core/Include/core_cm4.h **** /*@} end of group CMSIS_CORE */
 394:/usr/local/lib/ARM/CMSIS/5.4.0/CMSIS/Core/Include/core_cm4.h **** 
 395:/usr/local/lib/ARM/CMSIS/5.4.0/CMSIS/Core/Include/core_cm4.h **** 
ARM GAS  /tmp/ccOyeoN6.s 			page 43


 396:/usr/local/lib/ARM/CMSIS/5.4.0/CMSIS/Core/Include/core_cm4.h **** /**
 397:/usr/local/lib/ARM/CMSIS/5.4.0/CMSIS/Core/Include/core_cm4.h ****   \ingroup    CMSIS_core_register
 398:/usr/local/lib/ARM/CMSIS/5.4.0/CMSIS/Core/Include/core_cm4.h ****   \defgroup   CMSIS_NVIC  Nested Vectored Interrupt Controller (NVIC)
 399:/usr/local/lib/ARM/CMSIS/5.4.0/CMSIS/Core/Include/core_cm4.h ****   \brief      Type definitions for the NVIC Registers
 400:/usr/local/lib/ARM/CMSIS/5.4.0/CMSIS/Core/Include/core_cm4.h ****   @{
 401:/usr/local/lib/ARM/CMSIS/5.4.0/CMSIS/Core/Include/core_cm4.h ****  */
 402:/usr/local/lib/ARM/CMSIS/5.4.0/CMSIS/Core/Include/core_cm4.h **** 
 403:/usr/local/lib/ARM/CMSIS/5.4.0/CMSIS/Core/Include/core_cm4.h **** /**
 404:/usr/local/lib/ARM/CMSIS/5.4.0/CMSIS/Core/Include/core_cm4.h ****   \brief  Structure type to access the Nested Vectored Interrupt Controller (NVIC).
 405:/usr/local/lib/ARM/CMSIS/5.4.0/CMSIS/Core/Include/core_cm4.h ****  */
 406:/usr/local/lib/ARM/CMSIS/5.4.0/CMSIS/Core/Include/core_cm4.h **** typedef struct
 407:/usr/local/lib/ARM/CMSIS/5.4.0/CMSIS/Core/Include/core_cm4.h **** {
 408:/usr/local/lib/ARM/CMSIS/5.4.0/CMSIS/Core/Include/core_cm4.h ****   __IOM uint32_t ISER[8U];               /*!< Offset: 0x000 (R/W)  Interrupt Set Enable Register */
 409:/usr/local/lib/ARM/CMSIS/5.4.0/CMSIS/Core/Include/core_cm4.h ****         uint32_t RESERVED0[24U];
 410:/usr/local/lib/ARM/CMSIS/5.4.0/CMSIS/Core/Include/core_cm4.h ****   __IOM uint32_t ICER[8U];               /*!< Offset: 0x080 (R/W)  Interrupt Clear Enable Register 
 411:/usr/local/lib/ARM/CMSIS/5.4.0/CMSIS/Core/Include/core_cm4.h ****         uint32_t RSERVED1[24U];
 412:/usr/local/lib/ARM/CMSIS/5.4.0/CMSIS/Core/Include/core_cm4.h ****   __IOM uint32_t ISPR[8U];               /*!< Offset: 0x100 (R/W)  Interrupt Set Pending Register *
 413:/usr/local/lib/ARM/CMSIS/5.4.0/CMSIS/Core/Include/core_cm4.h ****         uint32_t RESERVED2[24U];
 414:/usr/local/lib/ARM/CMSIS/5.4.0/CMSIS/Core/Include/core_cm4.h ****   __IOM uint32_t ICPR[8U];               /*!< Offset: 0x180 (R/W)  Interrupt Clear Pending Register
 415:/usr/local/lib/ARM/CMSIS/5.4.0/CMSIS/Core/Include/core_cm4.h ****         uint32_t RESERVED3[24U];
 416:/usr/local/lib/ARM/CMSIS/5.4.0/CMSIS/Core/Include/core_cm4.h ****   __IOM uint32_t IABR[8U];               /*!< Offset: 0x200 (R/W)  Interrupt Active bit Register */
 417:/usr/local/lib/ARM/CMSIS/5.4.0/CMSIS/Core/Include/core_cm4.h ****         uint32_t RESERVED4[56U];
 418:/usr/local/lib/ARM/CMSIS/5.4.0/CMSIS/Core/Include/core_cm4.h ****   __IOM uint8_t  IP[240U];               /*!< Offset: 0x300 (R/W)  Interrupt Priority Register (8Bi
 419:/usr/local/lib/ARM/CMSIS/5.4.0/CMSIS/Core/Include/core_cm4.h ****         uint32_t RESERVED5[644U];
 420:/usr/local/lib/ARM/CMSIS/5.4.0/CMSIS/Core/Include/core_cm4.h ****   __OM  uint32_t STIR;                   /*!< Offset: 0xE00 ( /W)  Software Trigger Interrupt Regis
 421:/usr/local/lib/ARM/CMSIS/5.4.0/CMSIS/Core/Include/core_cm4.h **** }  NVIC_Type;
 422:/usr/local/lib/ARM/CMSIS/5.4.0/CMSIS/Core/Include/core_cm4.h **** 
 423:/usr/local/lib/ARM/CMSIS/5.4.0/CMSIS/Core/Include/core_cm4.h **** /* Software Triggered Interrupt Register Definitions */
 424:/usr/local/lib/ARM/CMSIS/5.4.0/CMSIS/Core/Include/core_cm4.h **** #define NVIC_STIR_INTID_Pos                 0U                                         /*!< STIR: I
 425:/usr/local/lib/ARM/CMSIS/5.4.0/CMSIS/Core/Include/core_cm4.h **** #define NVIC_STIR_INTID_Msk                (0x1FFUL /*<< NVIC_STIR_INTID_Pos*/)        /*!< STIR: I
 426:/usr/local/lib/ARM/CMSIS/5.4.0/CMSIS/Core/Include/core_cm4.h **** 
 427:/usr/local/lib/ARM/CMSIS/5.4.0/CMSIS/Core/Include/core_cm4.h **** /*@} end of group CMSIS_NVIC */
 428:/usr/local/lib/ARM/CMSIS/5.4.0/CMSIS/Core/Include/core_cm4.h **** 
 429:/usr/local/lib/ARM/CMSIS/5.4.0/CMSIS/Core/Include/core_cm4.h **** 
 430:/usr/local/lib/ARM/CMSIS/5.4.0/CMSIS/Core/Include/core_cm4.h **** /**
 431:/usr/local/lib/ARM/CMSIS/5.4.0/CMSIS/Core/Include/core_cm4.h ****   \ingroup  CMSIS_core_register
 432:/usr/local/lib/ARM/CMSIS/5.4.0/CMSIS/Core/Include/core_cm4.h ****   \defgroup CMSIS_SCB     System Control Block (SCB)
 433:/usr/local/lib/ARM/CMSIS/5.4.0/CMSIS/Core/Include/core_cm4.h ****   \brief    Type definitions for the System Control Block Registers
 434:/usr/local/lib/ARM/CMSIS/5.4.0/CMSIS/Core/Include/core_cm4.h ****   @{
 435:/usr/local/lib/ARM/CMSIS/5.4.0/CMSIS/Core/Include/core_cm4.h ****  */
 436:/usr/local/lib/ARM/CMSIS/5.4.0/CMSIS/Core/Include/core_cm4.h **** 
 437:/usr/local/lib/ARM/CMSIS/5.4.0/CMSIS/Core/Include/core_cm4.h **** /**
 438:/usr/local/lib/ARM/CMSIS/5.4.0/CMSIS/Core/Include/core_cm4.h ****   \brief  Structure type to access the System Control Block (SCB).
 439:/usr/local/lib/ARM/CMSIS/5.4.0/CMSIS/Core/Include/core_cm4.h ****  */
 440:/usr/local/lib/ARM/CMSIS/5.4.0/CMSIS/Core/Include/core_cm4.h **** typedef struct
 441:/usr/local/lib/ARM/CMSIS/5.4.0/CMSIS/Core/Include/core_cm4.h **** {
 442:/usr/local/lib/ARM/CMSIS/5.4.0/CMSIS/Core/Include/core_cm4.h ****   __IM  uint32_t CPUID;                  /*!< Offset: 0x000 (R/ )  CPUID Base Register */
 443:/usr/local/lib/ARM/CMSIS/5.4.0/CMSIS/Core/Include/core_cm4.h ****   __IOM uint32_t ICSR;                   /*!< Offset: 0x004 (R/W)  Interrupt Control and State Regi
 444:/usr/local/lib/ARM/CMSIS/5.4.0/CMSIS/Core/Include/core_cm4.h ****   __IOM uint32_t VTOR;                   /*!< Offset: 0x008 (R/W)  Vector Table Offset Register */
 445:/usr/local/lib/ARM/CMSIS/5.4.0/CMSIS/Core/Include/core_cm4.h ****   __IOM uint32_t AIRCR;                  /*!< Offset: 0x00C (R/W)  Application Interrupt and Reset 
 446:/usr/local/lib/ARM/CMSIS/5.4.0/CMSIS/Core/Include/core_cm4.h ****   __IOM uint32_t SCR;                    /*!< Offset: 0x010 (R/W)  System Control Register */
 447:/usr/local/lib/ARM/CMSIS/5.4.0/CMSIS/Core/Include/core_cm4.h ****   __IOM uint32_t CCR;                    /*!< Offset: 0x014 (R/W)  Configuration Control Register *
 448:/usr/local/lib/ARM/CMSIS/5.4.0/CMSIS/Core/Include/core_cm4.h ****   __IOM uint8_t  SHP[12U];               /*!< Offset: 0x018 (R/W)  System Handlers Priority Registe
 449:/usr/local/lib/ARM/CMSIS/5.4.0/CMSIS/Core/Include/core_cm4.h ****   __IOM uint32_t SHCSR;                  /*!< Offset: 0x024 (R/W)  System Handler Control and State
 450:/usr/local/lib/ARM/CMSIS/5.4.0/CMSIS/Core/Include/core_cm4.h ****   __IOM uint32_t CFSR;                   /*!< Offset: 0x028 (R/W)  Configurable Fault Status Regist
 451:/usr/local/lib/ARM/CMSIS/5.4.0/CMSIS/Core/Include/core_cm4.h ****   __IOM uint32_t HFSR;                   /*!< Offset: 0x02C (R/W)  HardFault Status Register */
 452:/usr/local/lib/ARM/CMSIS/5.4.0/CMSIS/Core/Include/core_cm4.h ****   __IOM uint32_t DFSR;                   /*!< Offset: 0x030 (R/W)  Debug Fault Status Register */
ARM GAS  /tmp/ccOyeoN6.s 			page 44


 453:/usr/local/lib/ARM/CMSIS/5.4.0/CMSIS/Core/Include/core_cm4.h ****   __IOM uint32_t MMFAR;                  /*!< Offset: 0x034 (R/W)  MemManage Fault Address Register
 454:/usr/local/lib/ARM/CMSIS/5.4.0/CMSIS/Core/Include/core_cm4.h ****   __IOM uint32_t BFAR;                   /*!< Offset: 0x038 (R/W)  BusFault Address Register */
 455:/usr/local/lib/ARM/CMSIS/5.4.0/CMSIS/Core/Include/core_cm4.h ****   __IOM uint32_t AFSR;                   /*!< Offset: 0x03C (R/W)  Auxiliary Fault Status Register 
 456:/usr/local/lib/ARM/CMSIS/5.4.0/CMSIS/Core/Include/core_cm4.h ****   __IM  uint32_t PFR[2U];                /*!< Offset: 0x040 (R/ )  Processor Feature Register */
 457:/usr/local/lib/ARM/CMSIS/5.4.0/CMSIS/Core/Include/core_cm4.h ****   __IM  uint32_t DFR;                    /*!< Offset: 0x048 (R/ )  Debug Feature Register */
 458:/usr/local/lib/ARM/CMSIS/5.4.0/CMSIS/Core/Include/core_cm4.h ****   __IM  uint32_t ADR;                    /*!< Offset: 0x04C (R/ )  Auxiliary Feature Register */
 459:/usr/local/lib/ARM/CMSIS/5.4.0/CMSIS/Core/Include/core_cm4.h ****   __IM  uint32_t MMFR[4U];               /*!< Offset: 0x050 (R/ )  Memory Model Feature Register */
 460:/usr/local/lib/ARM/CMSIS/5.4.0/CMSIS/Core/Include/core_cm4.h ****   __IM  uint32_t ISAR[5U];               /*!< Offset: 0x060 (R/ )  Instruction Set Attributes Regis
 461:/usr/local/lib/ARM/CMSIS/5.4.0/CMSIS/Core/Include/core_cm4.h ****         uint32_t RESERVED0[5U];
 462:/usr/local/lib/ARM/CMSIS/5.4.0/CMSIS/Core/Include/core_cm4.h ****   __IOM uint32_t CPACR;                  /*!< Offset: 0x088 (R/W)  Coprocessor Access Control Regis
 463:/usr/local/lib/ARM/CMSIS/5.4.0/CMSIS/Core/Include/core_cm4.h **** } SCB_Type;
 464:/usr/local/lib/ARM/CMSIS/5.4.0/CMSIS/Core/Include/core_cm4.h **** 
 465:/usr/local/lib/ARM/CMSIS/5.4.0/CMSIS/Core/Include/core_cm4.h **** /* SCB CPUID Register Definitions */
 466:/usr/local/lib/ARM/CMSIS/5.4.0/CMSIS/Core/Include/core_cm4.h **** #define SCB_CPUID_IMPLEMENTER_Pos          24U                                            /*!< SCB 
 467:/usr/local/lib/ARM/CMSIS/5.4.0/CMSIS/Core/Include/core_cm4.h **** #define SCB_CPUID_IMPLEMENTER_Msk          (0xFFUL << SCB_CPUID_IMPLEMENTER_Pos)          /*!< SCB 
 468:/usr/local/lib/ARM/CMSIS/5.4.0/CMSIS/Core/Include/core_cm4.h **** 
 469:/usr/local/lib/ARM/CMSIS/5.4.0/CMSIS/Core/Include/core_cm4.h **** #define SCB_CPUID_VARIANT_Pos              20U                                            /*!< SCB 
 470:/usr/local/lib/ARM/CMSIS/5.4.0/CMSIS/Core/Include/core_cm4.h **** #define SCB_CPUID_VARIANT_Msk              (0xFUL << SCB_CPUID_VARIANT_Pos)               /*!< SCB 
 471:/usr/local/lib/ARM/CMSIS/5.4.0/CMSIS/Core/Include/core_cm4.h **** 
 472:/usr/local/lib/ARM/CMSIS/5.4.0/CMSIS/Core/Include/core_cm4.h **** #define SCB_CPUID_ARCHITECTURE_Pos         16U                                            /*!< SCB 
 473:/usr/local/lib/ARM/CMSIS/5.4.0/CMSIS/Core/Include/core_cm4.h **** #define SCB_CPUID_ARCHITECTURE_Msk         (0xFUL << SCB_CPUID_ARCHITECTURE_Pos)          /*!< SCB 
 474:/usr/local/lib/ARM/CMSIS/5.4.0/CMSIS/Core/Include/core_cm4.h **** 
 475:/usr/local/lib/ARM/CMSIS/5.4.0/CMSIS/Core/Include/core_cm4.h **** #define SCB_CPUID_PARTNO_Pos                4U                                            /*!< SCB 
 476:/usr/local/lib/ARM/CMSIS/5.4.0/CMSIS/Core/Include/core_cm4.h **** #define SCB_CPUID_PARTNO_Msk               (0xFFFUL << SCB_CPUID_PARTNO_Pos)              /*!< SCB 
 477:/usr/local/lib/ARM/CMSIS/5.4.0/CMSIS/Core/Include/core_cm4.h **** 
 478:/usr/local/lib/ARM/CMSIS/5.4.0/CMSIS/Core/Include/core_cm4.h **** #define SCB_CPUID_REVISION_Pos              0U                                            /*!< SCB 
 479:/usr/local/lib/ARM/CMSIS/5.4.0/CMSIS/Core/Include/core_cm4.h **** #define SCB_CPUID_REVISION_Msk             (0xFUL /*<< SCB_CPUID_REVISION_Pos*/)          /*!< SCB 
 480:/usr/local/lib/ARM/CMSIS/5.4.0/CMSIS/Core/Include/core_cm4.h **** 
 481:/usr/local/lib/ARM/CMSIS/5.4.0/CMSIS/Core/Include/core_cm4.h **** /* SCB Interrupt Control State Register Definitions */
 482:/usr/local/lib/ARM/CMSIS/5.4.0/CMSIS/Core/Include/core_cm4.h **** #define SCB_ICSR_NMIPENDSET_Pos            31U                                            /*!< SCB 
 483:/usr/local/lib/ARM/CMSIS/5.4.0/CMSIS/Core/Include/core_cm4.h **** #define SCB_ICSR_NMIPENDSET_Msk            (1UL << SCB_ICSR_NMIPENDSET_Pos)               /*!< SCB 
 484:/usr/local/lib/ARM/CMSIS/5.4.0/CMSIS/Core/Include/core_cm4.h **** 
 485:/usr/local/lib/ARM/CMSIS/5.4.0/CMSIS/Core/Include/core_cm4.h **** #define SCB_ICSR_PENDSVSET_Pos             28U                                            /*!< SCB 
 486:/usr/local/lib/ARM/CMSIS/5.4.0/CMSIS/Core/Include/core_cm4.h **** #define SCB_ICSR_PENDSVSET_Msk             (1UL << SCB_ICSR_PENDSVSET_Pos)                /*!< SCB 
 487:/usr/local/lib/ARM/CMSIS/5.4.0/CMSIS/Core/Include/core_cm4.h **** 
 488:/usr/local/lib/ARM/CMSIS/5.4.0/CMSIS/Core/Include/core_cm4.h **** #define SCB_ICSR_PENDSVCLR_Pos             27U                                            /*!< SCB 
 489:/usr/local/lib/ARM/CMSIS/5.4.0/CMSIS/Core/Include/core_cm4.h **** #define SCB_ICSR_PENDSVCLR_Msk             (1UL << SCB_ICSR_PENDSVCLR_Pos)                /*!< SCB 
 490:/usr/local/lib/ARM/CMSIS/5.4.0/CMSIS/Core/Include/core_cm4.h **** 
 491:/usr/local/lib/ARM/CMSIS/5.4.0/CMSIS/Core/Include/core_cm4.h **** #define SCB_ICSR_PENDSTSET_Pos             26U                                            /*!< SCB 
 492:/usr/local/lib/ARM/CMSIS/5.4.0/CMSIS/Core/Include/core_cm4.h **** #define SCB_ICSR_PENDSTSET_Msk             (1UL << SCB_ICSR_PENDSTSET_Pos)                /*!< SCB 
 493:/usr/local/lib/ARM/CMSIS/5.4.0/CMSIS/Core/Include/core_cm4.h **** 
 494:/usr/local/lib/ARM/CMSIS/5.4.0/CMSIS/Core/Include/core_cm4.h **** #define SCB_ICSR_PENDSTCLR_Pos             25U                                            /*!< SCB 
 495:/usr/local/lib/ARM/CMSIS/5.4.0/CMSIS/Core/Include/core_cm4.h **** #define SCB_ICSR_PENDSTCLR_Msk             (1UL << SCB_ICSR_PENDSTCLR_Pos)                /*!< SCB 
 496:/usr/local/lib/ARM/CMSIS/5.4.0/CMSIS/Core/Include/core_cm4.h **** 
 497:/usr/local/lib/ARM/CMSIS/5.4.0/CMSIS/Core/Include/core_cm4.h **** #define SCB_ICSR_ISRPREEMPT_Pos            23U                                            /*!< SCB 
 498:/usr/local/lib/ARM/CMSIS/5.4.0/CMSIS/Core/Include/core_cm4.h **** #define SCB_ICSR_ISRPREEMPT_Msk            (1UL << SCB_ICSR_ISRPREEMPT_Pos)               /*!< SCB 
 499:/usr/local/lib/ARM/CMSIS/5.4.0/CMSIS/Core/Include/core_cm4.h **** 
 500:/usr/local/lib/ARM/CMSIS/5.4.0/CMSIS/Core/Include/core_cm4.h **** #define SCB_ICSR_ISRPENDING_Pos            22U                                            /*!< SCB 
 501:/usr/local/lib/ARM/CMSIS/5.4.0/CMSIS/Core/Include/core_cm4.h **** #define SCB_ICSR_ISRPENDING_Msk            (1UL << SCB_ICSR_ISRPENDING_Pos)               /*!< SCB 
 502:/usr/local/lib/ARM/CMSIS/5.4.0/CMSIS/Core/Include/core_cm4.h **** 
 503:/usr/local/lib/ARM/CMSIS/5.4.0/CMSIS/Core/Include/core_cm4.h **** #define SCB_ICSR_VECTPENDING_Pos           12U                                            /*!< SCB 
 504:/usr/local/lib/ARM/CMSIS/5.4.0/CMSIS/Core/Include/core_cm4.h **** #define SCB_ICSR_VECTPENDING_Msk           (0x1FFUL << SCB_ICSR_VECTPENDING_Pos)          /*!< SCB 
 505:/usr/local/lib/ARM/CMSIS/5.4.0/CMSIS/Core/Include/core_cm4.h **** 
 506:/usr/local/lib/ARM/CMSIS/5.4.0/CMSIS/Core/Include/core_cm4.h **** #define SCB_ICSR_RETTOBASE_Pos             11U                                            /*!< SCB 
 507:/usr/local/lib/ARM/CMSIS/5.4.0/CMSIS/Core/Include/core_cm4.h **** #define SCB_ICSR_RETTOBASE_Msk             (1UL << SCB_ICSR_RETTOBASE_Pos)                /*!< SCB 
 508:/usr/local/lib/ARM/CMSIS/5.4.0/CMSIS/Core/Include/core_cm4.h **** 
 509:/usr/local/lib/ARM/CMSIS/5.4.0/CMSIS/Core/Include/core_cm4.h **** #define SCB_ICSR_VECTACTIVE_Pos             0U                                            /*!< SCB 
ARM GAS  /tmp/ccOyeoN6.s 			page 45


 510:/usr/local/lib/ARM/CMSIS/5.4.0/CMSIS/Core/Include/core_cm4.h **** #define SCB_ICSR_VECTACTIVE_Msk            (0x1FFUL /*<< SCB_ICSR_VECTACTIVE_Pos*/)       /*!< SCB 
 511:/usr/local/lib/ARM/CMSIS/5.4.0/CMSIS/Core/Include/core_cm4.h **** 
 512:/usr/local/lib/ARM/CMSIS/5.4.0/CMSIS/Core/Include/core_cm4.h **** /* SCB Vector Table Offset Register Definitions */
 513:/usr/local/lib/ARM/CMSIS/5.4.0/CMSIS/Core/Include/core_cm4.h **** #define SCB_VTOR_TBLOFF_Pos                 7U                                            /*!< SCB 
 514:/usr/local/lib/ARM/CMSIS/5.4.0/CMSIS/Core/Include/core_cm4.h **** #define SCB_VTOR_TBLOFF_Msk                (0x1FFFFFFUL << SCB_VTOR_TBLOFF_Pos)           /*!< SCB 
 515:/usr/local/lib/ARM/CMSIS/5.4.0/CMSIS/Core/Include/core_cm4.h **** 
 516:/usr/local/lib/ARM/CMSIS/5.4.0/CMSIS/Core/Include/core_cm4.h **** /* SCB Application Interrupt and Reset Control Register Definitions */
 517:/usr/local/lib/ARM/CMSIS/5.4.0/CMSIS/Core/Include/core_cm4.h **** #define SCB_AIRCR_VECTKEY_Pos              16U                                            /*!< SCB 
 518:/usr/local/lib/ARM/CMSIS/5.4.0/CMSIS/Core/Include/core_cm4.h **** #define SCB_AIRCR_VECTKEY_Msk              (0xFFFFUL << SCB_AIRCR_VECTKEY_Pos)            /*!< SCB 
 519:/usr/local/lib/ARM/CMSIS/5.4.0/CMSIS/Core/Include/core_cm4.h **** 
 520:/usr/local/lib/ARM/CMSIS/5.4.0/CMSIS/Core/Include/core_cm4.h **** #define SCB_AIRCR_VECTKEYSTAT_Pos          16U                                            /*!< SCB 
 521:/usr/local/lib/ARM/CMSIS/5.4.0/CMSIS/Core/Include/core_cm4.h **** #define SCB_AIRCR_VECTKEYSTAT_Msk          (0xFFFFUL << SCB_AIRCR_VECTKEYSTAT_Pos)        /*!< SCB 
 522:/usr/local/lib/ARM/CMSIS/5.4.0/CMSIS/Core/Include/core_cm4.h **** 
 523:/usr/local/lib/ARM/CMSIS/5.4.0/CMSIS/Core/Include/core_cm4.h **** #define SCB_AIRCR_ENDIANESS_Pos            15U                                            /*!< SCB 
 524:/usr/local/lib/ARM/CMSIS/5.4.0/CMSIS/Core/Include/core_cm4.h **** #define SCB_AIRCR_ENDIANESS_Msk            (1UL << SCB_AIRCR_ENDIANESS_Pos)               /*!< SCB 
 525:/usr/local/lib/ARM/CMSIS/5.4.0/CMSIS/Core/Include/core_cm4.h **** 
 526:/usr/local/lib/ARM/CMSIS/5.4.0/CMSIS/Core/Include/core_cm4.h **** #define SCB_AIRCR_PRIGROUP_Pos              8U                                            /*!< SCB 
 527:/usr/local/lib/ARM/CMSIS/5.4.0/CMSIS/Core/Include/core_cm4.h **** #define SCB_AIRCR_PRIGROUP_Msk             (7UL << SCB_AIRCR_PRIGROUP_Pos)                /*!< SCB 
 528:/usr/local/lib/ARM/CMSIS/5.4.0/CMSIS/Core/Include/core_cm4.h **** 
 529:/usr/local/lib/ARM/CMSIS/5.4.0/CMSIS/Core/Include/core_cm4.h **** #define SCB_AIRCR_SYSRESETREQ_Pos           2U                                            /*!< SCB 
 530:/usr/local/lib/ARM/CMSIS/5.4.0/CMSIS/Core/Include/core_cm4.h **** #define SCB_AIRCR_SYSRESETREQ_Msk          (1UL << SCB_AIRCR_SYSRESETREQ_Pos)             /*!< SCB 
 531:/usr/local/lib/ARM/CMSIS/5.4.0/CMSIS/Core/Include/core_cm4.h **** 
 532:/usr/local/lib/ARM/CMSIS/5.4.0/CMSIS/Core/Include/core_cm4.h **** #define SCB_AIRCR_VECTCLRACTIVE_Pos         1U                                            /*!< SCB 
 533:/usr/local/lib/ARM/CMSIS/5.4.0/CMSIS/Core/Include/core_cm4.h **** #define SCB_AIRCR_VECTCLRACTIVE_Msk        (1UL << SCB_AIRCR_VECTCLRACTIVE_Pos)           /*!< SCB 
 534:/usr/local/lib/ARM/CMSIS/5.4.0/CMSIS/Core/Include/core_cm4.h **** 
 535:/usr/local/lib/ARM/CMSIS/5.4.0/CMSIS/Core/Include/core_cm4.h **** #define SCB_AIRCR_VECTRESET_Pos             0U                                            /*!< SCB 
 536:/usr/local/lib/ARM/CMSIS/5.4.0/CMSIS/Core/Include/core_cm4.h **** #define SCB_AIRCR_VECTRESET_Msk            (1UL /*<< SCB_AIRCR_VECTRESET_Pos*/)           /*!< SCB 
 537:/usr/local/lib/ARM/CMSIS/5.4.0/CMSIS/Core/Include/core_cm4.h **** 
 538:/usr/local/lib/ARM/CMSIS/5.4.0/CMSIS/Core/Include/core_cm4.h **** /* SCB System Control Register Definitions */
 539:/usr/local/lib/ARM/CMSIS/5.4.0/CMSIS/Core/Include/core_cm4.h **** #define SCB_SCR_SEVONPEND_Pos               4U                                            /*!< SCB 
 540:/usr/local/lib/ARM/CMSIS/5.4.0/CMSIS/Core/Include/core_cm4.h **** #define SCB_SCR_SEVONPEND_Msk              (1UL << SCB_SCR_SEVONPEND_Pos)                 /*!< SCB 
 541:/usr/local/lib/ARM/CMSIS/5.4.0/CMSIS/Core/Include/core_cm4.h **** 
 542:/usr/local/lib/ARM/CMSIS/5.4.0/CMSIS/Core/Include/core_cm4.h **** #define SCB_SCR_SLEEPDEEP_Pos               2U                                            /*!< SCB 
 543:/usr/local/lib/ARM/CMSIS/5.4.0/CMSIS/Core/Include/core_cm4.h **** #define SCB_SCR_SLEEPDEEP_Msk              (1UL << SCB_SCR_SLEEPDEEP_Pos)                 /*!< SCB 
 544:/usr/local/lib/ARM/CMSIS/5.4.0/CMSIS/Core/Include/core_cm4.h **** 
 545:/usr/local/lib/ARM/CMSIS/5.4.0/CMSIS/Core/Include/core_cm4.h **** #define SCB_SCR_SLEEPONEXIT_Pos             1U                                            /*!< SCB 
 546:/usr/local/lib/ARM/CMSIS/5.4.0/CMSIS/Core/Include/core_cm4.h **** #define SCB_SCR_SLEEPONEXIT_Msk            (1UL << SCB_SCR_SLEEPONEXIT_Pos)               /*!< SCB 
 547:/usr/local/lib/ARM/CMSIS/5.4.0/CMSIS/Core/Include/core_cm4.h **** 
 548:/usr/local/lib/ARM/CMSIS/5.4.0/CMSIS/Core/Include/core_cm4.h **** /* SCB Configuration Control Register Definitions */
 549:/usr/local/lib/ARM/CMSIS/5.4.0/CMSIS/Core/Include/core_cm4.h **** #define SCB_CCR_STKALIGN_Pos                9U                                            /*!< SCB 
 550:/usr/local/lib/ARM/CMSIS/5.4.0/CMSIS/Core/Include/core_cm4.h **** #define SCB_CCR_STKALIGN_Msk               (1UL << SCB_CCR_STKALIGN_Pos)                  /*!< SCB 
 551:/usr/local/lib/ARM/CMSIS/5.4.0/CMSIS/Core/Include/core_cm4.h **** 
 552:/usr/local/lib/ARM/CMSIS/5.4.0/CMSIS/Core/Include/core_cm4.h **** #define SCB_CCR_BFHFNMIGN_Pos               8U                                            /*!< SCB 
 553:/usr/local/lib/ARM/CMSIS/5.4.0/CMSIS/Core/Include/core_cm4.h **** #define SCB_CCR_BFHFNMIGN_Msk              (1UL << SCB_CCR_BFHFNMIGN_Pos)                 /*!< SCB 
 554:/usr/local/lib/ARM/CMSIS/5.4.0/CMSIS/Core/Include/core_cm4.h **** 
 555:/usr/local/lib/ARM/CMSIS/5.4.0/CMSIS/Core/Include/core_cm4.h **** #define SCB_CCR_DIV_0_TRP_Pos               4U                                            /*!< SCB 
 556:/usr/local/lib/ARM/CMSIS/5.4.0/CMSIS/Core/Include/core_cm4.h **** #define SCB_CCR_DIV_0_TRP_Msk              (1UL << SCB_CCR_DIV_0_TRP_Pos)                 /*!< SCB 
 557:/usr/local/lib/ARM/CMSIS/5.4.0/CMSIS/Core/Include/core_cm4.h **** 
 558:/usr/local/lib/ARM/CMSIS/5.4.0/CMSIS/Core/Include/core_cm4.h **** #define SCB_CCR_UNALIGN_TRP_Pos             3U                                            /*!< SCB 
 559:/usr/local/lib/ARM/CMSIS/5.4.0/CMSIS/Core/Include/core_cm4.h **** #define SCB_CCR_UNALIGN_TRP_Msk            (1UL << SCB_CCR_UNALIGN_TRP_Pos)               /*!< SCB 
 560:/usr/local/lib/ARM/CMSIS/5.4.0/CMSIS/Core/Include/core_cm4.h **** 
 561:/usr/local/lib/ARM/CMSIS/5.4.0/CMSIS/Core/Include/core_cm4.h **** #define SCB_CCR_USERSETMPEND_Pos            1U                                            /*!< SCB 
 562:/usr/local/lib/ARM/CMSIS/5.4.0/CMSIS/Core/Include/core_cm4.h **** #define SCB_CCR_USERSETMPEND_Msk           (1UL << SCB_CCR_USERSETMPEND_Pos)              /*!< SCB 
 563:/usr/local/lib/ARM/CMSIS/5.4.0/CMSIS/Core/Include/core_cm4.h **** 
 564:/usr/local/lib/ARM/CMSIS/5.4.0/CMSIS/Core/Include/core_cm4.h **** #define SCB_CCR_NONBASETHRDENA_Pos          0U                                            /*!< SCB 
 565:/usr/local/lib/ARM/CMSIS/5.4.0/CMSIS/Core/Include/core_cm4.h **** #define SCB_CCR_NONBASETHRDENA_Msk         (1UL /*<< SCB_CCR_NONBASETHRDENA_Pos*/)        /*!< SCB 
 566:/usr/local/lib/ARM/CMSIS/5.4.0/CMSIS/Core/Include/core_cm4.h **** 
ARM GAS  /tmp/ccOyeoN6.s 			page 46


 567:/usr/local/lib/ARM/CMSIS/5.4.0/CMSIS/Core/Include/core_cm4.h **** /* SCB System Handler Control and State Register Definitions */
 568:/usr/local/lib/ARM/CMSIS/5.4.0/CMSIS/Core/Include/core_cm4.h **** #define SCB_SHCSR_USGFAULTENA_Pos          18U                                            /*!< SCB 
 569:/usr/local/lib/ARM/CMSIS/5.4.0/CMSIS/Core/Include/core_cm4.h **** #define SCB_SHCSR_USGFAULTENA_Msk          (1UL << SCB_SHCSR_USGFAULTENA_Pos)             /*!< SCB 
 570:/usr/local/lib/ARM/CMSIS/5.4.0/CMSIS/Core/Include/core_cm4.h **** 
 571:/usr/local/lib/ARM/CMSIS/5.4.0/CMSIS/Core/Include/core_cm4.h **** #define SCB_SHCSR_BUSFAULTENA_Pos          17U                                            /*!< SCB 
 572:/usr/local/lib/ARM/CMSIS/5.4.0/CMSIS/Core/Include/core_cm4.h **** #define SCB_SHCSR_BUSFAULTENA_Msk          (1UL << SCB_SHCSR_BUSFAULTENA_Pos)             /*!< SCB 
 573:/usr/local/lib/ARM/CMSIS/5.4.0/CMSIS/Core/Include/core_cm4.h **** 
 574:/usr/local/lib/ARM/CMSIS/5.4.0/CMSIS/Core/Include/core_cm4.h **** #define SCB_SHCSR_MEMFAULTENA_Pos          16U                                            /*!< SCB 
 575:/usr/local/lib/ARM/CMSIS/5.4.0/CMSIS/Core/Include/core_cm4.h **** #define SCB_SHCSR_MEMFAULTENA_Msk          (1UL << SCB_SHCSR_MEMFAULTENA_Pos)             /*!< SCB 
 576:/usr/local/lib/ARM/CMSIS/5.4.0/CMSIS/Core/Include/core_cm4.h **** 
 577:/usr/local/lib/ARM/CMSIS/5.4.0/CMSIS/Core/Include/core_cm4.h **** #define SCB_SHCSR_SVCALLPENDED_Pos         15U                                            /*!< SCB 
 578:/usr/local/lib/ARM/CMSIS/5.4.0/CMSIS/Core/Include/core_cm4.h **** #define SCB_SHCSR_SVCALLPENDED_Msk         (1UL << SCB_SHCSR_SVCALLPENDED_Pos)            /*!< SCB 
 579:/usr/local/lib/ARM/CMSIS/5.4.0/CMSIS/Core/Include/core_cm4.h **** 
 580:/usr/local/lib/ARM/CMSIS/5.4.0/CMSIS/Core/Include/core_cm4.h **** #define SCB_SHCSR_BUSFAULTPENDED_Pos       14U                                            /*!< SCB 
 581:/usr/local/lib/ARM/CMSIS/5.4.0/CMSIS/Core/Include/core_cm4.h **** #define SCB_SHCSR_BUSFAULTPENDED_Msk       (1UL << SCB_SHCSR_BUSFAULTPENDED_Pos)          /*!< SCB 
 582:/usr/local/lib/ARM/CMSIS/5.4.0/CMSIS/Core/Include/core_cm4.h **** 
 583:/usr/local/lib/ARM/CMSIS/5.4.0/CMSIS/Core/Include/core_cm4.h **** #define SCB_SHCSR_MEMFAULTPENDED_Pos       13U                                            /*!< SCB 
 584:/usr/local/lib/ARM/CMSIS/5.4.0/CMSIS/Core/Include/core_cm4.h **** #define SCB_SHCSR_MEMFAULTPENDED_Msk       (1UL << SCB_SHCSR_MEMFAULTPENDED_Pos)          /*!< SCB 
 585:/usr/local/lib/ARM/CMSIS/5.4.0/CMSIS/Core/Include/core_cm4.h **** 
 586:/usr/local/lib/ARM/CMSIS/5.4.0/CMSIS/Core/Include/core_cm4.h **** #define SCB_SHCSR_USGFAULTPENDED_Pos       12U                                            /*!< SCB 
 587:/usr/local/lib/ARM/CMSIS/5.4.0/CMSIS/Core/Include/core_cm4.h **** #define SCB_SHCSR_USGFAULTPENDED_Msk       (1UL << SCB_SHCSR_USGFAULTPENDED_Pos)          /*!< SCB 
 588:/usr/local/lib/ARM/CMSIS/5.4.0/CMSIS/Core/Include/core_cm4.h **** 
 589:/usr/local/lib/ARM/CMSIS/5.4.0/CMSIS/Core/Include/core_cm4.h **** #define SCB_SHCSR_SYSTICKACT_Pos           11U                                            /*!< SCB 
 590:/usr/local/lib/ARM/CMSIS/5.4.0/CMSIS/Core/Include/core_cm4.h **** #define SCB_SHCSR_SYSTICKACT_Msk           (1UL << SCB_SHCSR_SYSTICKACT_Pos)              /*!< SCB 
 591:/usr/local/lib/ARM/CMSIS/5.4.0/CMSIS/Core/Include/core_cm4.h **** 
 592:/usr/local/lib/ARM/CMSIS/5.4.0/CMSIS/Core/Include/core_cm4.h **** #define SCB_SHCSR_PENDSVACT_Pos            10U                                            /*!< SCB 
 593:/usr/local/lib/ARM/CMSIS/5.4.0/CMSIS/Core/Include/core_cm4.h **** #define SCB_SHCSR_PENDSVACT_Msk            (1UL << SCB_SHCSR_PENDSVACT_Pos)               /*!< SCB 
 594:/usr/local/lib/ARM/CMSIS/5.4.0/CMSIS/Core/Include/core_cm4.h **** 
 595:/usr/local/lib/ARM/CMSIS/5.4.0/CMSIS/Core/Include/core_cm4.h **** #define SCB_SHCSR_MONITORACT_Pos            8U                                            /*!< SCB 
 596:/usr/local/lib/ARM/CMSIS/5.4.0/CMSIS/Core/Include/core_cm4.h **** #define SCB_SHCSR_MONITORACT_Msk           (1UL << SCB_SHCSR_MONITORACT_Pos)              /*!< SCB 
 597:/usr/local/lib/ARM/CMSIS/5.4.0/CMSIS/Core/Include/core_cm4.h **** 
 598:/usr/local/lib/ARM/CMSIS/5.4.0/CMSIS/Core/Include/core_cm4.h **** #define SCB_SHCSR_SVCALLACT_Pos             7U                                            /*!< SCB 
 599:/usr/local/lib/ARM/CMSIS/5.4.0/CMSIS/Core/Include/core_cm4.h **** #define SCB_SHCSR_SVCALLACT_Msk            (1UL << SCB_SHCSR_SVCALLACT_Pos)               /*!< SCB 
 600:/usr/local/lib/ARM/CMSIS/5.4.0/CMSIS/Core/Include/core_cm4.h **** 
 601:/usr/local/lib/ARM/CMSIS/5.4.0/CMSIS/Core/Include/core_cm4.h **** #define SCB_SHCSR_USGFAULTACT_Pos           3U                                            /*!< SCB 
 602:/usr/local/lib/ARM/CMSIS/5.4.0/CMSIS/Core/Include/core_cm4.h **** #define SCB_SHCSR_USGFAULTACT_Msk          (1UL << SCB_SHCSR_USGFAULTACT_Pos)             /*!< SCB 
 603:/usr/local/lib/ARM/CMSIS/5.4.0/CMSIS/Core/Include/core_cm4.h **** 
 604:/usr/local/lib/ARM/CMSIS/5.4.0/CMSIS/Core/Include/core_cm4.h **** #define SCB_SHCSR_BUSFAULTACT_Pos           1U                                            /*!< SCB 
 605:/usr/local/lib/ARM/CMSIS/5.4.0/CMSIS/Core/Include/core_cm4.h **** #define SCB_SHCSR_BUSFAULTACT_Msk          (1UL << SCB_SHCSR_BUSFAULTACT_Pos)             /*!< SCB 
 606:/usr/local/lib/ARM/CMSIS/5.4.0/CMSIS/Core/Include/core_cm4.h **** 
 607:/usr/local/lib/ARM/CMSIS/5.4.0/CMSIS/Core/Include/core_cm4.h **** #define SCB_SHCSR_MEMFAULTACT_Pos           0U                                            /*!< SCB 
 608:/usr/local/lib/ARM/CMSIS/5.4.0/CMSIS/Core/Include/core_cm4.h **** #define SCB_SHCSR_MEMFAULTACT_Msk          (1UL /*<< SCB_SHCSR_MEMFAULTACT_Pos*/)         /*!< SCB 
 609:/usr/local/lib/ARM/CMSIS/5.4.0/CMSIS/Core/Include/core_cm4.h **** 
 610:/usr/local/lib/ARM/CMSIS/5.4.0/CMSIS/Core/Include/core_cm4.h **** /* SCB Configurable Fault Status Register Definitions */
 611:/usr/local/lib/ARM/CMSIS/5.4.0/CMSIS/Core/Include/core_cm4.h **** #define SCB_CFSR_USGFAULTSR_Pos            16U                                            /*!< SCB 
 612:/usr/local/lib/ARM/CMSIS/5.4.0/CMSIS/Core/Include/core_cm4.h **** #define SCB_CFSR_USGFAULTSR_Msk            (0xFFFFUL << SCB_CFSR_USGFAULTSR_Pos)          /*!< SCB 
 613:/usr/local/lib/ARM/CMSIS/5.4.0/CMSIS/Core/Include/core_cm4.h **** 
 614:/usr/local/lib/ARM/CMSIS/5.4.0/CMSIS/Core/Include/core_cm4.h **** #define SCB_CFSR_BUSFAULTSR_Pos             8U                                            /*!< SCB 
 615:/usr/local/lib/ARM/CMSIS/5.4.0/CMSIS/Core/Include/core_cm4.h **** #define SCB_CFSR_BUSFAULTSR_Msk            (0xFFUL << SCB_CFSR_BUSFAULTSR_Pos)            /*!< SCB 
 616:/usr/local/lib/ARM/CMSIS/5.4.0/CMSIS/Core/Include/core_cm4.h **** 
 617:/usr/local/lib/ARM/CMSIS/5.4.0/CMSIS/Core/Include/core_cm4.h **** #define SCB_CFSR_MEMFAULTSR_Pos             0U                                            /*!< SCB 
 618:/usr/local/lib/ARM/CMSIS/5.4.0/CMSIS/Core/Include/core_cm4.h **** #define SCB_CFSR_MEMFAULTSR_Msk            (0xFFUL /*<< SCB_CFSR_MEMFAULTSR_Pos*/)        /*!< SCB 
 619:/usr/local/lib/ARM/CMSIS/5.4.0/CMSIS/Core/Include/core_cm4.h **** 
 620:/usr/local/lib/ARM/CMSIS/5.4.0/CMSIS/Core/Include/core_cm4.h **** /* MemManage Fault Status Register (part of SCB Configurable Fault Status Register) */
